ARM GAS  C:\Users\jthem\AppData\Local\Temp\ccnLl47M.s 			page 1


   1              		.syntax unified
   2              		.cpu cortex-m3
   3              		.fpu softvfp
   4              		.eabi_attribute 20, 1
   5              		.eabi_attribute 21, 1
   6              		.eabi_attribute 23, 3
   7              		.eabi_attribute 24, 1
   8              		.eabi_attribute 25, 1
   9              		.eabi_attribute 26, 1
  10              		.eabi_attribute 30, 6
  11              		.eabi_attribute 34, 1
  12              		.eabi_attribute 18, 4
  13              		.thumb
  14              		.file	"cyfitter_cfg.c"
  15              		.text
  16              	.Ltext0:
  17              		.cfi_sections	.debug_frame
  18              		.section	.text.CYMEMZERO,"ax",%progbits
  19              		.align	2
  20              		.thumb
  21              		.thumb_func
  22              		.type	CYMEMZERO, %function
  23              	CYMEMZERO:
  24              	.LFB0:
  25              		.file 1 ".\\Generated_Source\\PSoC5\\cyfitter_cfg.c"
   1:.\Generated_Source\PSoC5/cyfitter_cfg.c **** /*******************************************************************************
   2:.\Generated_Source\PSoC5/cyfitter_cfg.c **** * File Name: cyfitter_cfg.c
   3:.\Generated_Source\PSoC5/cyfitter_cfg.c **** * 
   4:.\Generated_Source\PSoC5/cyfitter_cfg.c **** * PSoC Creator  3.3 CP2
   5:.\Generated_Source\PSoC5/cyfitter_cfg.c **** *
   6:.\Generated_Source\PSoC5/cyfitter_cfg.c **** * Description:
   7:.\Generated_Source\PSoC5/cyfitter_cfg.c **** * This file contains device initialization code.
   8:.\Generated_Source\PSoC5/cyfitter_cfg.c **** * Except for the user defined sections in CyClockStartupError(), this file should not be modified.
   9:.\Generated_Source\PSoC5/cyfitter_cfg.c **** * This file is automatically generated by PSoC Creator.
  10:.\Generated_Source\PSoC5/cyfitter_cfg.c **** *
  11:.\Generated_Source\PSoC5/cyfitter_cfg.c **** ********************************************************************************
  12:.\Generated_Source\PSoC5/cyfitter_cfg.c **** * Copyright (c) 2007-2015 Cypress Semiconductor.  All rights reserved.
  13:.\Generated_Source\PSoC5/cyfitter_cfg.c **** * You may use this file only in accordance with the license, terms, conditions, 
  14:.\Generated_Source\PSoC5/cyfitter_cfg.c **** * disclaimers, and limitations in the end user license agreement accompanying 
  15:.\Generated_Source\PSoC5/cyfitter_cfg.c **** * the software package with which this file was provided.
  16:.\Generated_Source\PSoC5/cyfitter_cfg.c **** ********************************************************************************/
  17:.\Generated_Source\PSoC5/cyfitter_cfg.c **** 
  18:.\Generated_Source\PSoC5/cyfitter_cfg.c **** #include <string.h>
  19:.\Generated_Source\PSoC5/cyfitter_cfg.c **** #include "cytypes.h"
  20:.\Generated_Source\PSoC5/cyfitter_cfg.c **** #include "cydevice_trm.h"
  21:.\Generated_Source\PSoC5/cyfitter_cfg.c **** #include "cyfitter.h"
  22:.\Generated_Source\PSoC5/cyfitter_cfg.c **** #include "CyLib.h"
  23:.\Generated_Source\PSoC5/cyfitter_cfg.c **** #include "cyfitter_cfg.h"
  24:.\Generated_Source\PSoC5/cyfitter_cfg.c **** 
  25:.\Generated_Source\PSoC5/cyfitter_cfg.c **** #define CY_NEED_CYCLOCKSTARTUPERROR 1
  26:.\Generated_Source\PSoC5/cyfitter_cfg.c **** 
  27:.\Generated_Source\PSoC5/cyfitter_cfg.c **** 
  28:.\Generated_Source\PSoC5/cyfitter_cfg.c **** #if defined(__GNUC__) || defined(__ARMCC_VERSION)
  29:.\Generated_Source\PSoC5/cyfitter_cfg.c ****     #define CYPACKED 
  30:.\Generated_Source\PSoC5/cyfitter_cfg.c ****     #define CYPACKED_ATTR __attribute__ ((packed))
  31:.\Generated_Source\PSoC5/cyfitter_cfg.c ****     #define CYALIGNED __attribute__ ((aligned))
  32:.\Generated_Source\PSoC5/cyfitter_cfg.c ****     #define CY_CFG_UNUSED __attribute__ ((unused))
ARM GAS  C:\Users\jthem\AppData\Local\Temp\ccnLl47M.s 			page 2


  33:.\Generated_Source\PSoC5/cyfitter_cfg.c ****     #ifndef CY_CFG_SECTION
  34:.\Generated_Source\PSoC5/cyfitter_cfg.c ****         #define CY_CFG_SECTION __attribute__ ((section(".psocinit")))
  35:.\Generated_Source\PSoC5/cyfitter_cfg.c ****     #endif
  36:.\Generated_Source\PSoC5/cyfitter_cfg.c ****     
  37:.\Generated_Source\PSoC5/cyfitter_cfg.c ****     #if CYDEV_CONFIGURATION_DMA
  38:.\Generated_Source\PSoC5/cyfitter_cfg.c ****         #if (defined(__ARMCC_VERSION) || defined(__GNUC__))
  39:.\Generated_Source\PSoC5/cyfitter_cfg.c ****             #ifndef DMAINITSEC
  40:.\Generated_Source\PSoC5/cyfitter_cfg.c ****                 #define DMAINITSEC __attribute__ ((section(".dma_init")))
  41:.\Generated_Source\PSoC5/cyfitter_cfg.c ****             #endif
  42:.\Generated_Source\PSoC5/cyfitter_cfg.c ****         #elif defined(__ICCARM__)
  43:.\Generated_Source\PSoC5/cyfitter_cfg.c ****             #define DMAINITSEC _Pragma("location=\".dma_init\"")
  44:.\Generated_Source\PSoC5/cyfitter_cfg.c ****         #endif
  45:.\Generated_Source\PSoC5/cyfitter_cfg.c ****     #else
  46:.\Generated_Source\PSoC5/cyfitter_cfg.c ****         #define DMAINITSEC
  47:.\Generated_Source\PSoC5/cyfitter_cfg.c ****     #endif
  48:.\Generated_Source\PSoC5/cyfitter_cfg.c **** 
  49:.\Generated_Source\PSoC5/cyfitter_cfg.c ****     #if defined(__ARMCC_VERSION)
  50:.\Generated_Source\PSoC5/cyfitter_cfg.c ****         #define CY_CFG_MEMORY_BARRIER() __memory_changed()
  51:.\Generated_Source\PSoC5/cyfitter_cfg.c ****     #else
  52:.\Generated_Source\PSoC5/cyfitter_cfg.c ****         #define CY_CFG_MEMORY_BARRIER() __sync_synchronize()
  53:.\Generated_Source\PSoC5/cyfitter_cfg.c ****     #endif
  54:.\Generated_Source\PSoC5/cyfitter_cfg.c ****     
  55:.\Generated_Source\PSoC5/cyfitter_cfg.c **** #elif defined(__ICCARM__)
  56:.\Generated_Source\PSoC5/cyfitter_cfg.c ****     #include <intrinsics.h>
  57:.\Generated_Source\PSoC5/cyfitter_cfg.c **** 
  58:.\Generated_Source\PSoC5/cyfitter_cfg.c ****     #define CYPACKED __packed
  59:.\Generated_Source\PSoC5/cyfitter_cfg.c ****     #define CYPACKED_ATTR 
  60:.\Generated_Source\PSoC5/cyfitter_cfg.c ****     #define CYALIGNED _Pragma("data_alignment=4")
  61:.\Generated_Source\PSoC5/cyfitter_cfg.c ****     #define CY_CFG_UNUSED _Pragma("diag_suppress=Pe177")
  62:.\Generated_Source\PSoC5/cyfitter_cfg.c ****     #define CY_CFG_SECTION _Pragma("location=\".psocinit\"")
  63:.\Generated_Source\PSoC5/cyfitter_cfg.c ****     
  64:.\Generated_Source\PSoC5/cyfitter_cfg.c ****     #if CYDEV_CONFIGURATION_DMA
  65:.\Generated_Source\PSoC5/cyfitter_cfg.c ****         #if (defined(__ARMCC_VERSION) || defined(__GNUC__))
  66:.\Generated_Source\PSoC5/cyfitter_cfg.c ****             #ifndef DMAINITSEC
  67:.\Generated_Source\PSoC5/cyfitter_cfg.c ****                 #define DMAINITSEC __attribute__ ((section(".dma_init")))
  68:.\Generated_Source\PSoC5/cyfitter_cfg.c ****             #endif
  69:.\Generated_Source\PSoC5/cyfitter_cfg.c ****         #elif defined(__ICCARM__)
  70:.\Generated_Source\PSoC5/cyfitter_cfg.c ****             #define DMAINITSEC _Pragma("location=\".dma_init\"")
  71:.\Generated_Source\PSoC5/cyfitter_cfg.c ****         #endif
  72:.\Generated_Source\PSoC5/cyfitter_cfg.c ****     #else
  73:.\Generated_Source\PSoC5/cyfitter_cfg.c ****         #define DMAINITSEC
  74:.\Generated_Source\PSoC5/cyfitter_cfg.c ****     #endif
  75:.\Generated_Source\PSoC5/cyfitter_cfg.c **** 
  76:.\Generated_Source\PSoC5/cyfitter_cfg.c ****     #define CY_CFG_MEMORY_BARRIER() __DMB()
  77:.\Generated_Source\PSoC5/cyfitter_cfg.c ****     
  78:.\Generated_Source\PSoC5/cyfitter_cfg.c **** #else
  79:.\Generated_Source\PSoC5/cyfitter_cfg.c ****     #error Unsupported toolchain
  80:.\Generated_Source\PSoC5/cyfitter_cfg.c **** #endif
  81:.\Generated_Source\PSoC5/cyfitter_cfg.c **** 
  82:.\Generated_Source\PSoC5/cyfitter_cfg.c **** 
  83:.\Generated_Source\PSoC5/cyfitter_cfg.c **** CY_CFG_UNUSED
  84:.\Generated_Source\PSoC5/cyfitter_cfg.c **** static void CYMEMZERO(void *s, size_t n);
  85:.\Generated_Source\PSoC5/cyfitter_cfg.c **** CY_CFG_UNUSED
  86:.\Generated_Source\PSoC5/cyfitter_cfg.c **** static void CYMEMZERO(void *s, size_t n)
  87:.\Generated_Source\PSoC5/cyfitter_cfg.c **** {
  26              		.loc 1 87 0
  27              		.cfi_startproc
ARM GAS  C:\Users\jthem\AppData\Local\Temp\ccnLl47M.s 			page 3


  28              		@ args = 0, pretend = 0, frame = 8
  29              		@ frame_needed = 1, uses_anonymous_args = 0
  30 0000 80B5     		push	{r7, lr}
  31              		.cfi_def_cfa_offset 8
  32              		.cfi_offset 7, -8
  33              		.cfi_offset 14, -4
  34 0002 82B0     		sub	sp, sp, #8
  35              		.cfi_def_cfa_offset 16
  36 0004 00AF     		add	r7, sp, #0
  37              		.cfi_def_cfa_register 7
  38 0006 7860     		str	r0, [r7, #4]
  39 0008 3960     		str	r1, [r7]
  88:.\Generated_Source\PSoC5/cyfitter_cfg.c **** 	(void)memset(s, 0, n);
  40              		.loc 1 88 0
  41 000a 7868     		ldr	r0, [r7, #4]
  42 000c 0021     		movs	r1, #0
  43 000e 3A68     		ldr	r2, [r7]
  44 0010 FFF7FEFF 		bl	memset
  89:.\Generated_Source\PSoC5/cyfitter_cfg.c **** }
  45              		.loc 1 89 0
  46 0014 0837     		adds	r7, r7, #8
  47              		.cfi_def_cfa_offset 8
  48 0016 BD46     		mov	sp, r7
  49              		.cfi_def_cfa_register 13
  50              		@ sp needed
  51 0018 80BD     		pop	{r7, pc}
  52              		.cfi_endproc
  53              	.LFE0:
  54              		.size	CYMEMZERO, .-CYMEMZERO
  55 001a 00BF     		.section	.text.CYCONFIGCPY,"ax",%progbits
  56              		.align	2
  57              		.thumb
  58              		.thumb_func
  59              		.type	CYCONFIGCPY, %function
  60              	CYCONFIGCPY:
  61              	.LFB1:
  90:.\Generated_Source\PSoC5/cyfitter_cfg.c **** CY_CFG_UNUSED
  91:.\Generated_Source\PSoC5/cyfitter_cfg.c **** static void CYCONFIGCPY(void *dest, const void *src, size_t n);
  92:.\Generated_Source\PSoC5/cyfitter_cfg.c **** CY_CFG_UNUSED
  93:.\Generated_Source\PSoC5/cyfitter_cfg.c **** static void CYCONFIGCPY(void *dest, const void *src, size_t n)
  94:.\Generated_Source\PSoC5/cyfitter_cfg.c **** {
  62              		.loc 1 94 0
  63              		.cfi_startproc
  64              		@ args = 0, pretend = 0, frame = 16
  65              		@ frame_needed = 1, uses_anonymous_args = 0
  66 0000 80B5     		push	{r7, lr}
  67              		.cfi_def_cfa_offset 8
  68              		.cfi_offset 7, -8
  69              		.cfi_offset 14, -4
  70 0002 84B0     		sub	sp, sp, #16
  71              		.cfi_def_cfa_offset 24
  72 0004 00AF     		add	r7, sp, #0
  73              		.cfi_def_cfa_register 7
  74 0006 F860     		str	r0, [r7, #12]
  75 0008 B960     		str	r1, [r7, #8]
  76 000a 7A60     		str	r2, [r7, #4]
  95:.\Generated_Source\PSoC5/cyfitter_cfg.c **** 	(void)memcpy(dest, src, n);
ARM GAS  C:\Users\jthem\AppData\Local\Temp\ccnLl47M.s 			page 4


  77              		.loc 1 95 0
  78 000c F868     		ldr	r0, [r7, #12]
  79 000e B968     		ldr	r1, [r7, #8]
  80 0010 7A68     		ldr	r2, [r7, #4]
  81 0012 FFF7FEFF 		bl	memcpy
  96:.\Generated_Source\PSoC5/cyfitter_cfg.c **** }
  82              		.loc 1 96 0
  83 0016 1037     		adds	r7, r7, #16
  84              		.cfi_def_cfa_offset 8
  85 0018 BD46     		mov	sp, r7
  86              		.cfi_def_cfa_register 13
  87              		@ sp needed
  88 001a 80BD     		pop	{r7, pc}
  89              		.cfi_endproc
  90              	.LFE1:
  91              		.size	CYCONFIGCPY, .-CYCONFIGCPY
  92              		.section	.text.CYCONFIGCPYCODE,"ax",%progbits
  93              		.align	2
  94              		.thumb
  95              		.thumb_func
  96              		.type	CYCONFIGCPYCODE, %function
  97              	CYCONFIGCPYCODE:
  98              	.LFB2:
  97:.\Generated_Source\PSoC5/cyfitter_cfg.c **** CY_CFG_UNUSED
  98:.\Generated_Source\PSoC5/cyfitter_cfg.c **** static void CYCONFIGCPYCODE(void *dest, const void *src, size_t n);
  99:.\Generated_Source\PSoC5/cyfitter_cfg.c **** CY_CFG_UNUSED
 100:.\Generated_Source\PSoC5/cyfitter_cfg.c **** static void CYCONFIGCPYCODE(void *dest, const void *src, size_t n)
 101:.\Generated_Source\PSoC5/cyfitter_cfg.c **** {
  99              		.loc 1 101 0
 100              		.cfi_startproc
 101              		@ args = 0, pretend = 0, frame = 16
 102              		@ frame_needed = 1, uses_anonymous_args = 0
 103 0000 80B5     		push	{r7, lr}
 104              		.cfi_def_cfa_offset 8
 105              		.cfi_offset 7, -8
 106              		.cfi_offset 14, -4
 107 0002 84B0     		sub	sp, sp, #16
 108              		.cfi_def_cfa_offset 24
 109 0004 00AF     		add	r7, sp, #0
 110              		.cfi_def_cfa_register 7
 111 0006 F860     		str	r0, [r7, #12]
 112 0008 B960     		str	r1, [r7, #8]
 113 000a 7A60     		str	r2, [r7, #4]
 102:.\Generated_Source\PSoC5/cyfitter_cfg.c **** 	(void)memcpy(dest, src, n);
 114              		.loc 1 102 0
 115 000c F868     		ldr	r0, [r7, #12]
 116 000e B968     		ldr	r1, [r7, #8]
 117 0010 7A68     		ldr	r2, [r7, #4]
 118 0012 FFF7FEFF 		bl	memcpy
 103:.\Generated_Source\PSoC5/cyfitter_cfg.c **** }
 119              		.loc 1 103 0
 120 0016 1037     		adds	r7, r7, #16
 121              		.cfi_def_cfa_offset 8
 122 0018 BD46     		mov	sp, r7
 123              		.cfi_def_cfa_register 13
 124              		@ sp needed
 125 001a 80BD     		pop	{r7, pc}
ARM GAS  C:\Users\jthem\AppData\Local\Temp\ccnLl47M.s 			page 5


 126              		.cfi_endproc
 127              	.LFE2:
 128              		.size	CYCONFIGCPYCODE, .-CYCONFIGCPYCODE
 129              		.section	.text.CyClockStartupError,"ax",%progbits
 130              		.align	2
 131              		.thumb
 132              		.thumb_func
 133              		.type	CyClockStartupError, %function
 134              	CyClockStartupError:
 135              	.LFB3:
 104:.\Generated_Source\PSoC5/cyfitter_cfg.c **** 
 105:.\Generated_Source\PSoC5/cyfitter_cfg.c **** 
 106:.\Generated_Source\PSoC5/cyfitter_cfg.c **** 
 107:.\Generated_Source\PSoC5/cyfitter_cfg.c **** /* Clock startup error codes                                                   */
 108:.\Generated_Source\PSoC5/cyfitter_cfg.c **** #define CYCLOCKSTART_NO_ERROR    0u
 109:.\Generated_Source\PSoC5/cyfitter_cfg.c **** #define CYCLOCKSTART_XTAL_ERROR  1u
 110:.\Generated_Source\PSoC5/cyfitter_cfg.c **** #define CYCLOCKSTART_32KHZ_ERROR 2u
 111:.\Generated_Source\PSoC5/cyfitter_cfg.c **** #define CYCLOCKSTART_PLL_ERROR   3u
 112:.\Generated_Source\PSoC5/cyfitter_cfg.c **** 
 113:.\Generated_Source\PSoC5/cyfitter_cfg.c **** #ifdef CY_NEED_CYCLOCKSTARTUPERROR
 114:.\Generated_Source\PSoC5/cyfitter_cfg.c **** /*******************************************************************************
 115:.\Generated_Source\PSoC5/cyfitter_cfg.c **** * Function Name: CyClockStartupError
 116:.\Generated_Source\PSoC5/cyfitter_cfg.c **** ********************************************************************************
 117:.\Generated_Source\PSoC5/cyfitter_cfg.c **** * Summary:
 118:.\Generated_Source\PSoC5/cyfitter_cfg.c **** *  If an error is encountered during clock configuration (crystal startup error,
 119:.\Generated_Source\PSoC5/cyfitter_cfg.c **** *  PLL lock error, etc.), the system will end up here.  Unless reimplemented by
 120:.\Generated_Source\PSoC5/cyfitter_cfg.c **** *  the customer, this function will stop in an infinite loop.
 121:.\Generated_Source\PSoC5/cyfitter_cfg.c **** *
 122:.\Generated_Source\PSoC5/cyfitter_cfg.c **** * Parameters:
 123:.\Generated_Source\PSoC5/cyfitter_cfg.c **** *   void
 124:.\Generated_Source\PSoC5/cyfitter_cfg.c **** *
 125:.\Generated_Source\PSoC5/cyfitter_cfg.c **** * Return:
 126:.\Generated_Source\PSoC5/cyfitter_cfg.c **** *   void
 127:.\Generated_Source\PSoC5/cyfitter_cfg.c **** *
 128:.\Generated_Source\PSoC5/cyfitter_cfg.c **** *******************************************************************************/
 129:.\Generated_Source\PSoC5/cyfitter_cfg.c **** CY_CFG_UNUSED
 130:.\Generated_Source\PSoC5/cyfitter_cfg.c **** static void CyClockStartupError(uint8 errorCode);
 131:.\Generated_Source\PSoC5/cyfitter_cfg.c **** CY_CFG_UNUSED
 132:.\Generated_Source\PSoC5/cyfitter_cfg.c **** static void CyClockStartupError(uint8 errorCode)
 133:.\Generated_Source\PSoC5/cyfitter_cfg.c **** {
 136              		.loc 1 133 0
 137              		.cfi_startproc
 138              		@ args = 0, pretend = 0, frame = 8
 139              		@ frame_needed = 1, uses_anonymous_args = 0
 140              		@ link register save eliminated.
 141 0000 80B4     		push	{r7}
 142              		.cfi_def_cfa_offset 4
 143              		.cfi_offset 7, -4
 144 0002 83B0     		sub	sp, sp, #12
 145              		.cfi_def_cfa_offset 16
 146 0004 00AF     		add	r7, sp, #0
 147              		.cfi_def_cfa_register 7
 148 0006 0346     		mov	r3, r0
 149 0008 FB71     		strb	r3, [r7, #7]
 150              	.L5:
 134:.\Generated_Source\PSoC5/cyfitter_cfg.c ****     /* To remove the compiler warning if errorCode not used.                */
 135:.\Generated_Source\PSoC5/cyfitter_cfg.c ****     errorCode = errorCode;
ARM GAS  C:\Users\jthem\AppData\Local\Temp\ccnLl47M.s 			page 6


 136:.\Generated_Source\PSoC5/cyfitter_cfg.c **** 
 137:.\Generated_Source\PSoC5/cyfitter_cfg.c ****     /* `#START CyClockStartupError` */
 138:.\Generated_Source\PSoC5/cyfitter_cfg.c **** 
 139:.\Generated_Source\PSoC5/cyfitter_cfg.c ****     /* If we have a clock startup error (bad MHz crystal, PLL lock, etc.),  */
 140:.\Generated_Source\PSoC5/cyfitter_cfg.c ****     /* we will end up here to allow the customer to implement something to  */
 141:.\Generated_Source\PSoC5/cyfitter_cfg.c ****     /* deal with the clock condition.                                       */
 142:.\Generated_Source\PSoC5/cyfitter_cfg.c **** 
 143:.\Generated_Source\PSoC5/cyfitter_cfg.c ****     /* `#END` */
 144:.\Generated_Source\PSoC5/cyfitter_cfg.c **** 
 145:.\Generated_Source\PSoC5/cyfitter_cfg.c ****     /* If nothing else, stop here since the clocks have not started         */
 146:.\Generated_Source\PSoC5/cyfitter_cfg.c ****     /* correctly.                                                           */
 147:.\Generated_Source\PSoC5/cyfitter_cfg.c ****     while(1) {}
 151              		.loc 1 147 0 discriminator 1
 152 000a FEE7     		b	.L5
 153              		.cfi_endproc
 154              	.LFE3:
 155              		.size	CyClockStartupError, .-CyClockStartupError
 156              		.section	.text.cfg_dma_init,"ax",%progbits
 157              		.align	2
 158              		.thumb
 159              		.thumb_func
 160              		.type	cfg_dma_init, %function
 161              	cfg_dma_init:
 162              	.LFB4:
 148:.\Generated_Source\PSoC5/cyfitter_cfg.c **** }
 149:.\Generated_Source\PSoC5/cyfitter_cfg.c **** #endif
 150:.\Generated_Source\PSoC5/cyfitter_cfg.c **** 
 151:.\Generated_Source\PSoC5/cyfitter_cfg.c **** /* IDMUX Address: CYREG_IDMUX_DRQ_CTL0 Size (bytes): 6 */
 152:.\Generated_Source\PSoC5/cyfitter_cfg.c **** #define BS_IDMUX_VAL ((const uint8 CYFAR *)0x48000000u)
 153:.\Generated_Source\PSoC5/cyfitter_cfg.c **** 
 154:.\Generated_Source\PSoC5/cyfitter_cfg.c **** /* IOPORT_7 Address: CYDEV_PRTDSI_PRT12_BASE Size (bytes): 6 */
 155:.\Generated_Source\PSoC5/cyfitter_cfg.c **** #define BS_IOPORT_7_VAL ((const uint8 CYFAR *)0x48000008u)
 156:.\Generated_Source\PSoC5/cyfitter_cfg.c **** 
 157:.\Generated_Source\PSoC5/cyfitter_cfg.c **** /* IOPORT_8 Address: CYDEV_PRTDSI_PRT15_BASE Size (bytes): 7 */
 158:.\Generated_Source\PSoC5/cyfitter_cfg.c **** #define BS_IOPORT_8_VAL ((const uint8 CYFAR *)0x48000010u)
 159:.\Generated_Source\PSoC5/cyfitter_cfg.c **** 
 160:.\Generated_Source\PSoC5/cyfitter_cfg.c **** /* PICU_8 Address: CYDEV_PICU_INTTYPE_PICU15_BASE Size (bytes): 8 */
 161:.\Generated_Source\PSoC5/cyfitter_cfg.c **** #define BS_PICU_8_VAL ((const uint8 CYFAR *)0x48000018u)
 162:.\Generated_Source\PSoC5/cyfitter_cfg.c **** 
 163:.\Generated_Source\PSoC5/cyfitter_cfg.c **** /* IDMUX_IRQ Address: CYREG_IDMUX_IRQ_CTL0 Size (bytes): 8 */
 164:.\Generated_Source\PSoC5/cyfitter_cfg.c **** #define BS_IDMUX_IRQ_VAL ((const uint8 CYFAR *)0x48000020u)
 165:.\Generated_Source\PSoC5/cyfitter_cfg.c **** 
 166:.\Generated_Source\PSoC5/cyfitter_cfg.c **** /* DAC2 Address: CYREG_DAC2_SW0 Size (bytes): 8 */
 167:.\Generated_Source\PSoC5/cyfitter_cfg.c **** #define BS_DAC2_VAL ((const uint8 CYFAR *)0x48000028u)
 168:.\Generated_Source\PSoC5/cyfitter_cfg.c **** 
 169:.\Generated_Source\PSoC5/cyfitter_cfg.c **** /* DAC3 Address: CYREG_DAC3_SW0 Size (bytes): 8 */
 170:.\Generated_Source\PSoC5/cyfitter_cfg.c **** #define BS_DAC3_VAL ((const uint8 CYFAR *)0x48000030u)
 171:.\Generated_Source\PSoC5/cyfitter_cfg.c **** 
 172:.\Generated_Source\PSoC5/cyfitter_cfg.c **** /* UDB_0_3_0_CONFIG Address: CYDEV_UCFG_B0_P5_U0_BASE Size (bytes): 128 */
 173:.\Generated_Source\PSoC5/cyfitter_cfg.c **** #define BS_UDB_0_3_0_CONFIG_VAL ((const uint8 CYFAR *)0x48000038u)
 174:.\Generated_Source\PSoC5/cyfitter_cfg.c **** 
 175:.\Generated_Source\PSoC5/cyfitter_cfg.c **** /* UDB_0_3_1_CONFIG Address: CYDEV_UCFG_B0_P5_U1_BASE Size (bytes): 128 */
 176:.\Generated_Source\PSoC5/cyfitter_cfg.c **** #define BS_UDB_0_3_1_CONFIG_VAL ((const uint8 CYFAR *)0x480000B8u)
 177:.\Generated_Source\PSoC5/cyfitter_cfg.c **** 
 178:.\Generated_Source\PSoC5/cyfitter_cfg.c **** /* UDB_0_4_1_CONFIG Address: CYDEV_UCFG_B0_P6_U0_BASE Size (bytes): 128 */
 179:.\Generated_Source\PSoC5/cyfitter_cfg.c **** #define BS_UDB_0_4_1_CONFIG_VAL ((const uint8 CYFAR *)0x48000138u)
 180:.\Generated_Source\PSoC5/cyfitter_cfg.c **** 
ARM GAS  C:\Users\jthem\AppData\Local\Temp\ccnLl47M.s 			page 7


 181:.\Generated_Source\PSoC5/cyfitter_cfg.c **** /* UDB_0_4_0_CONFIG Address: CYDEV_UCFG_B0_P6_U1_BASE Size (bytes): 128 */
 182:.\Generated_Source\PSoC5/cyfitter_cfg.c **** #define BS_UDB_0_4_0_CONFIG_VAL ((const uint8 CYFAR *)0x480001B8u)
 183:.\Generated_Source\PSoC5/cyfitter_cfg.c **** 
 184:.\Generated_Source\PSoC5/cyfitter_cfg.c **** /* UWRK_B0_WRK_STATCTL_BITS Address: CYDEV_UWRK_UWRK8_B0_BASE + 0x00000070u Size (bytes): 32 */
 185:.\Generated_Source\PSoC5/cyfitter_cfg.c **** #define BS_UWRK_B0_WRK_STATCTL_BITS_VAL ((const uint8 CYFAR *)0x48000238u)
 186:.\Generated_Source\PSoC5/cyfitter_cfg.c **** 
 187:.\Generated_Source\PSoC5/cyfitter_cfg.c **** /* UCFG_BCTL0 Address: CYREG_BCTL0_MDCLK_EN Size (bytes): 16 */
 188:.\Generated_Source\PSoC5/cyfitter_cfg.c **** #define BS_UCFG_BCTL0_VAL ((const uint8 CYFAR *)0x48000258u)
 189:.\Generated_Source\PSoC5/cyfitter_cfg.c **** 
 190:.\Generated_Source\PSoC5/cyfitter_cfg.c **** /* DSI0_1_HV_ROUTING Address: CYDEV_UCFG_DSI12_BASE + 0x00000080u Size (bytes): 128 */
 191:.\Generated_Source\PSoC5/cyfitter_cfg.c **** #define BS_DSI0_1_HV_ROUTING_VAL ((const uint8 CYFAR *)0x48000268u)
 192:.\Generated_Source\PSoC5/cyfitter_cfg.c **** 
 193:.\Generated_Source\PSoC5/cyfitter_cfg.c **** /* DSISWITCH_0_2 Address: CYDEV_UCFG_DSI7_BASE Size (bytes): 128 */
 194:.\Generated_Source\PSoC5/cyfitter_cfg.c **** #define BS_DSISWITCH_0_2_VAL ((const uint8 CYFAR *)0x480002E8u)
 195:.\Generated_Source\PSoC5/cyfitter_cfg.c **** 
 196:.\Generated_Source\PSoC5/cyfitter_cfg.c **** /* DSI0_2_HV_ROUTING Address: CYDEV_UCFG_DSI7_BASE + 0x00000080u Size (bytes): 128 */
 197:.\Generated_Source\PSoC5/cyfitter_cfg.c **** #define BS_DSI0_2_HV_ROUTING_VAL ((const uint8 CYFAR *)0x48000368u)
 198:.\Generated_Source\PSoC5/cyfitter_cfg.c **** 
 199:.\Generated_Source\PSoC5/cyfitter_cfg.c **** /* DSISWITCH_0_3 Address: CYDEV_UCFG_DSI6_BASE Size (bytes): 128 */
 200:.\Generated_Source\PSoC5/cyfitter_cfg.c **** #define BS_DSISWITCH_0_3_VAL ((const uint8 CYFAR *)0x480003E8u)
 201:.\Generated_Source\PSoC5/cyfitter_cfg.c **** 
 202:.\Generated_Source\PSoC5/cyfitter_cfg.c **** /* DSI0_3_HV_ROUTING Address: CYDEV_UCFG_DSI6_BASE + 0x00000080u Size (bytes): 128 */
 203:.\Generated_Source\PSoC5/cyfitter_cfg.c **** #define BS_DSI0_3_HV_ROUTING_VAL ((const uint8 CYFAR *)0x48000468u)
 204:.\Generated_Source\PSoC5/cyfitter_cfg.c **** 
 205:.\Generated_Source\PSoC5/cyfitter_cfg.c **** /* DSI0_4_HV_ROUTING Address: CYDEV_UCFG_DSI5_BASE + 0x00000080u Size (bytes): 128 */
 206:.\Generated_Source\PSoC5/cyfitter_cfg.c **** #define BS_DSI0_4_HV_ROUTING_VAL ((const uint8 CYFAR *)0x480004E8u)
 207:.\Generated_Source\PSoC5/cyfitter_cfg.c **** 
 208:.\Generated_Source\PSoC5/cyfitter_cfg.c **** /* UDB_1_0_HV_ROUTING Address: CYDEV_UCFG_B1_P5_ROUTE_BASE + 0x00000080u Size (bytes): 128 */
 209:.\Generated_Source\PSoC5/cyfitter_cfg.c **** #define BS_UDB_1_0_HV_ROUTING_VAL ((const uint8 CYFAR *)0x48000568u)
 210:.\Generated_Source\PSoC5/cyfitter_cfg.c **** 
 211:.\Generated_Source\PSoC5/cyfitter_cfg.c **** /* UDB_2_0_HV_ROUTING Address: CYDEV_UCFG_B1_P2_ROUTE_BASE + 0x00000080u Size (bytes): 128 */
 212:.\Generated_Source\PSoC5/cyfitter_cfg.c **** #define BS_UDB_2_0_HV_ROUTING_VAL ((const uint8 CYFAR *)0x480005E8u)
 213:.\Generated_Source\PSoC5/cyfitter_cfg.c **** 
 214:.\Generated_Source\PSoC5/cyfitter_cfg.c **** /* UDB_1_1_HV_ROUTING Address: CYDEV_UCFG_B1_P4_ROUTE_BASE + 0x00000080u Size (bytes): 128 */
 215:.\Generated_Source\PSoC5/cyfitter_cfg.c **** #define BS_UDB_1_1_HV_ROUTING_VAL ((const uint8 CYFAR *)0x48000668u)
 216:.\Generated_Source\PSoC5/cyfitter_cfg.c **** 
 217:.\Generated_Source\PSoC5/cyfitter_cfg.c **** /* UDB_2_1_HV_ROUTING Address: CYDEV_UCFG_B1_P3_ROUTE_BASE + 0x00000080u Size (bytes): 128 */
 218:.\Generated_Source\PSoC5/cyfitter_cfg.c **** #define BS_UDB_2_1_HV_ROUTING_VAL ((const uint8 CYFAR *)0x480006E8u)
 219:.\Generated_Source\PSoC5/cyfitter_cfg.c **** 
 220:.\Generated_Source\PSoC5/cyfitter_cfg.c **** /* UDB_1_2_HV_ROUTING Address: CYDEV_UCFG_B0_P4_ROUTE_BASE + 0x00000080u Size (bytes): 128 */
 221:.\Generated_Source\PSoC5/cyfitter_cfg.c **** #define BS_UDB_1_2_HV_ROUTING_VAL ((const uint8 CYFAR *)0x48000768u)
 222:.\Generated_Source\PSoC5/cyfitter_cfg.c **** 
 223:.\Generated_Source\PSoC5/cyfitter_cfg.c **** /* UDB_2_2_HV_ROUTING Address: CYDEV_UCFG_B0_P3_ROUTE_BASE + 0x00000080u Size (bytes): 128 */
 224:.\Generated_Source\PSoC5/cyfitter_cfg.c **** #define BS_UDB_2_2_HV_ROUTING_VAL ((const uint8 CYFAR *)0x480007E8u)
 225:.\Generated_Source\PSoC5/cyfitter_cfg.c **** 
 226:.\Generated_Source\PSoC5/cyfitter_cfg.c **** /* UDBSWITCH_0_3 Address: CYDEV_UCFG_B0_P5_ROUTE_BASE Size (bytes): 128 */
 227:.\Generated_Source\PSoC5/cyfitter_cfg.c **** #define BS_UDBSWITCH_0_3_VAL ((const uint8 CYFAR *)0x48000868u)
 228:.\Generated_Source\PSoC5/cyfitter_cfg.c **** 
 229:.\Generated_Source\PSoC5/cyfitter_cfg.c **** /* UDB_1_3_HV_ROUTING Address: CYDEV_UCFG_B0_P5_ROUTE_BASE + 0x00000080u Size (bytes): 128 */
 230:.\Generated_Source\PSoC5/cyfitter_cfg.c **** #define BS_UDB_1_3_HV_ROUTING_VAL ((const uint8 CYFAR *)0x480008E8u)
 231:.\Generated_Source\PSoC5/cyfitter_cfg.c **** 
 232:.\Generated_Source\PSoC5/cyfitter_cfg.c **** /* UDB_2_3_HV_ROUTING Address: CYDEV_UCFG_B0_P2_ROUTE_BASE + 0x00000080u Size (bytes): 128 */
 233:.\Generated_Source\PSoC5/cyfitter_cfg.c **** #define BS_UDB_2_3_HV_ROUTING_VAL ((const uint8 CYFAR *)0x48000968u)
 234:.\Generated_Source\PSoC5/cyfitter_cfg.c **** 
 235:.\Generated_Source\PSoC5/cyfitter_cfg.c **** /* UDBSWITCH_0_4 Address: CYDEV_UCFG_B0_P6_ROUTE_BASE Size (bytes): 128 */
 236:.\Generated_Source\PSoC5/cyfitter_cfg.c **** #define BS_UDBSWITCH_0_4_VAL ((const uint8 CYFAR *)0x480009E8u)
 237:.\Generated_Source\PSoC5/cyfitter_cfg.c **** 
ARM GAS  C:\Users\jthem\AppData\Local\Temp\ccnLl47M.s 			page 8


 238:.\Generated_Source\PSoC5/cyfitter_cfg.c **** /* UDB_1_4_HV_ROUTING Address: CYDEV_UCFG_B0_P6_ROUTE_BASE + 0x00000080u Size (bytes): 128 */
 239:.\Generated_Source\PSoC5/cyfitter_cfg.c **** #define BS_UDB_1_4_HV_ROUTING_VAL ((const uint8 CYFAR *)0x48000A68u)
 240:.\Generated_Source\PSoC5/cyfitter_cfg.c **** 
 241:.\Generated_Source\PSoC5/cyfitter_cfg.c **** /* UDB_2_4_HV_ROUTING Address: CYDEV_UCFG_B0_P1_ROUTE_BASE + 0x00000080u Size (bytes): 128 */
 242:.\Generated_Source\PSoC5/cyfitter_cfg.c **** #define BS_UDB_2_4_HV_ROUTING_VAL ((const uint8 CYFAR *)0x48000AE8u)
 243:.\Generated_Source\PSoC5/cyfitter_cfg.c **** 
 244:.\Generated_Source\PSoC5/cyfitter_cfg.c **** /* DSISWITCH_1_0 Address: CYDEV_UCFG_DSI9_BASE Size (bytes): 128 */
 245:.\Generated_Source\PSoC5/cyfitter_cfg.c **** #define BS_DSISWITCH_1_0_VAL ((const uint8 CYFAR *)0x48000B68u)
 246:.\Generated_Source\PSoC5/cyfitter_cfg.c **** 
 247:.\Generated_Source\PSoC5/cyfitter_cfg.c **** /* DSI3_0_HV_ROUTING Address: CYDEV_UCFG_DSI9_BASE + 0x00000080u Size (bytes): 128 */
 248:.\Generated_Source\PSoC5/cyfitter_cfg.c **** #define BS_DSI3_0_HV_ROUTING_VAL ((const uint8 CYFAR *)0x48000BE8u)
 249:.\Generated_Source\PSoC5/cyfitter_cfg.c **** 
 250:.\Generated_Source\PSoC5/cyfitter_cfg.c **** /* DSISWITCH_1_1 Address: CYDEV_UCFG_DSI8_BASE Size (bytes): 128 */
 251:.\Generated_Source\PSoC5/cyfitter_cfg.c **** #define BS_DSISWITCH_1_1_VAL ((const uint8 CYFAR *)0x48000C68u)
 252:.\Generated_Source\PSoC5/cyfitter_cfg.c **** 
 253:.\Generated_Source\PSoC5/cyfitter_cfg.c **** /* DSI3_1_HV_ROUTING Address: CYDEV_UCFG_DSI8_BASE + 0x00000080u Size (bytes): 128 */
 254:.\Generated_Source\PSoC5/cyfitter_cfg.c **** #define BS_DSI3_1_HV_ROUTING_VAL ((const uint8 CYFAR *)0x48000CE8u)
 255:.\Generated_Source\PSoC5/cyfitter_cfg.c **** 
 256:.\Generated_Source\PSoC5/cyfitter_cfg.c **** /* DSI3_2_HV_ROUTING Address: CYDEV_UCFG_DSI3_BASE + 0x00000080u Size (bytes): 128 */
 257:.\Generated_Source\PSoC5/cyfitter_cfg.c **** #define BS_DSI3_2_HV_ROUTING_VAL ((const uint8 CYFAR *)0x48000D68u)
 258:.\Generated_Source\PSoC5/cyfitter_cfg.c **** 
 259:.\Generated_Source\PSoC5/cyfitter_cfg.c **** /* DSISWITCH_1_3 Address: CYDEV_UCFG_DSI2_BASE Size (bytes): 128 */
 260:.\Generated_Source\PSoC5/cyfitter_cfg.c **** #define BS_DSISWITCH_1_3_VAL ((const uint8 CYFAR *)0x48000DE8u)
 261:.\Generated_Source\PSoC5/cyfitter_cfg.c **** 
 262:.\Generated_Source\PSoC5/cyfitter_cfg.c **** /* DSI3_3_HV_ROUTING Address: CYDEV_UCFG_DSI2_BASE + 0x00000080u Size (bytes): 128 */
 263:.\Generated_Source\PSoC5/cyfitter_cfg.c **** #define BS_DSI3_3_HV_ROUTING_VAL ((const uint8 CYFAR *)0x48000E68u)
 264:.\Generated_Source\PSoC5/cyfitter_cfg.c **** 
 265:.\Generated_Source\PSoC5/cyfitter_cfg.c **** /* DSI3_4_HV_ROUTING Address: CYDEV_UCFG_DSI1_BASE + 0x00000080u Size (bytes): 128 */
 266:.\Generated_Source\PSoC5/cyfitter_cfg.c **** #define BS_DSI3_4_HV_ROUTING_VAL ((const uint8 CYFAR *)0x48000EE8u)
 267:.\Generated_Source\PSoC5/cyfitter_cfg.c **** 
 268:.\Generated_Source\PSoC5/cyfitter_cfg.c **** /* DSISWITCH_1_5 Address: CYDEV_UCFG_DSI0_BASE Size (bytes): 128 */
 269:.\Generated_Source\PSoC5/cyfitter_cfg.c **** #define BS_DSISWITCH_1_5_VAL ((const uint8 CYFAR *)0x48000F68u)
 270:.\Generated_Source\PSoC5/cyfitter_cfg.c **** 
 271:.\Generated_Source\PSoC5/cyfitter_cfg.c **** /* DSI3_5_HV_ROUTING Address: CYDEV_UCFG_DSI0_BASE + 0x00000080u Size (bytes): 128 */
 272:.\Generated_Source\PSoC5/cyfitter_cfg.c **** #define BS_DSI3_5_HV_ROUTING_VAL ((const uint8 CYFAR *)0x48000FE8u)
 273:.\Generated_Source\PSoC5/cyfitter_cfg.c **** 
 274:.\Generated_Source\PSoC5/cyfitter_cfg.c **** /* IOPINS0_0 Address: CYREG_PRT0_DM0 Size (bytes): 8 */
 275:.\Generated_Source\PSoC5/cyfitter_cfg.c **** #define BS_IOPINS0_0_VAL ((const uint8 CYFAR *)0x48001068u)
 276:.\Generated_Source\PSoC5/cyfitter_cfg.c **** 
 277:.\Generated_Source\PSoC5/cyfitter_cfg.c **** /* IOPINS0_7 Address: CYREG_PRT12_DM0 Size (bytes): 8 */
 278:.\Generated_Source\PSoC5/cyfitter_cfg.c **** #define BS_IOPINS0_7_VAL ((const uint8 CYFAR *)0x48001070u)
 279:.\Generated_Source\PSoC5/cyfitter_cfg.c **** 
 280:.\Generated_Source\PSoC5/cyfitter_cfg.c **** /* IOPINS0_8 Address: CYREG_PRT15_DR Size (bytes): 10 */
 281:.\Generated_Source\PSoC5/cyfitter_cfg.c **** #define BS_IOPINS0_8_VAL ((const uint8 CYFAR *)0x48001078u)
 282:.\Generated_Source\PSoC5/cyfitter_cfg.c **** 
 283:.\Generated_Source\PSoC5/cyfitter_cfg.c **** /* IOPINS0_2 Address: CYREG_PRT2_DM0 Size (bytes): 8 */
 284:.\Generated_Source\PSoC5/cyfitter_cfg.c **** #define BS_IOPINS0_2_VAL ((const uint8 CYFAR *)0x48001084u)
 285:.\Generated_Source\PSoC5/cyfitter_cfg.c **** 
 286:.\Generated_Source\PSoC5/cyfitter_cfg.c **** /* IOPINS0_3 Address: CYREG_PRT3_DM0 Size (bytes): 8 */
 287:.\Generated_Source\PSoC5/cyfitter_cfg.c **** #define BS_IOPINS0_3_VAL ((const uint8 CYFAR *)0x4800108Cu)
 288:.\Generated_Source\PSoC5/cyfitter_cfg.c **** 
 289:.\Generated_Source\PSoC5/cyfitter_cfg.c **** /* IOPINS0_4 Address: CYREG_PRT4_DM0 Size (bytes): 8 */
 290:.\Generated_Source\PSoC5/cyfitter_cfg.c **** #define BS_IOPINS0_4_VAL ((const uint8 CYFAR *)0x48001094u)
 291:.\Generated_Source\PSoC5/cyfitter_cfg.c **** 
 292:.\Generated_Source\PSoC5/cyfitter_cfg.c **** /* IOPINS0_5 Address: CYREG_PRT5_DM0 Size (bytes): 8 */
 293:.\Generated_Source\PSoC5/cyfitter_cfg.c **** #define BS_IOPINS0_5_VAL ((const uint8 CYFAR *)0x4800109Cu)
 294:.\Generated_Source\PSoC5/cyfitter_cfg.c **** 
ARM GAS  C:\Users\jthem\AppData\Local\Temp\ccnLl47M.s 			page 9


 295:.\Generated_Source\PSoC5/cyfitter_cfg.c **** /* IOPINS0_6 Address: CYREG_PRT6_DM0 Size (bytes): 8 */
 296:.\Generated_Source\PSoC5/cyfitter_cfg.c **** #define BS_IOPINS0_6_VAL ((const uint8 CYFAR *)0x480010A4u)
 297:.\Generated_Source\PSoC5/cyfitter_cfg.c **** 
 298:.\Generated_Source\PSoC5/cyfitter_cfg.c **** 
 299:.\Generated_Source\PSoC5/cyfitter_cfg.c **** /*******************************************************************************
 300:.\Generated_Source\PSoC5/cyfitter_cfg.c **** * Function Name: cfg_dma_init
 301:.\Generated_Source\PSoC5/cyfitter_cfg.c **** ********************************************************************************
 302:.\Generated_Source\PSoC5/cyfitter_cfg.c **** * Summary:
 303:.\Generated_Source\PSoC5/cyfitter_cfg.c **** *  This function is used to copy device configuration data from constant values
 304:.\Generated_Source\PSoC5/cyfitter_cfg.c **** *  stored in memory into the proper chip configuration registers using DMA.  It
 305:.\Generated_Source\PSoC5/cyfitter_cfg.c **** *  pulls data out of the CFG_TD_LISTs to know exactly how/what to configure.
 306:.\Generated_Source\PSoC5/cyfitter_cfg.c **** *
 307:.\Generated_Source\PSoC5/cyfitter_cfg.c **** * Parameters:  
 308:.\Generated_Source\PSoC5/cyfitter_cfg.c **** *   void
 309:.\Generated_Source\PSoC5/cyfitter_cfg.c **** *
 310:.\Generated_Source\PSoC5/cyfitter_cfg.c **** * Return:
 311:.\Generated_Source\PSoC5/cyfitter_cfg.c **** *   void
 312:.\Generated_Source\PSoC5/cyfitter_cfg.c **** *
 313:.\Generated_Source\PSoC5/cyfitter_cfg.c **** *******************************************************************************/
 314:.\Generated_Source\PSoC5/cyfitter_cfg.c **** static void cfg_dma_init(void);
 315:.\Generated_Source\PSoC5/cyfitter_cfg.c **** static void cfg_dma_init(void)
 316:.\Generated_Source\PSoC5/cyfitter_cfg.c **** {
 163              		.loc 1 316 0
 164              		.cfi_startproc
 165              		@ args = 0, pretend = 0, frame = 8
 166              		@ frame_needed = 1, uses_anonymous_args = 0
 167 0000 80B5     		push	{r7, lr}
 168              		.cfi_def_cfa_offset 8
 169              		.cfi_offset 7, -8
 170              		.cfi_offset 14, -4
 171 0002 82B0     		sub	sp, sp, #8
 172              		.cfi_def_cfa_offset 16
 173 0004 00AF     		add	r7, sp, #0
 174              		.cfi_def_cfa_register 7
 317:.\Generated_Source\PSoC5/cyfitter_cfg.c **** 	/* TD structure for little-endian systems. Does not require endian swap */
 318:.\Generated_Source\PSoC5/cyfitter_cfg.c **** 	CYPACKED struct td_t {
 319:.\Generated_Source\PSoC5/cyfitter_cfg.c **** 		uint16 size;
 320:.\Generated_Source\PSoC5/cyfitter_cfg.c **** 		uint8 next_td_ptr;
 321:.\Generated_Source\PSoC5/cyfitter_cfg.c **** 		uint8 flags;
 322:.\Generated_Source\PSoC5/cyfitter_cfg.c **** 		uint16 src;
 323:.\Generated_Source\PSoC5/cyfitter_cfg.c **** 		uint16 dest;
 324:.\Generated_Source\PSoC5/cyfitter_cfg.c **** 	} CYPACKED_ATTR;
 325:.\Generated_Source\PSoC5/cyfitter_cfg.c **** 
 326:.\Generated_Source\PSoC5/cyfitter_cfg.c **** 	/* PHUB_CH1_CFGMEM_CFG0/1 initialization data */
 327:.\Generated_Source\PSoC5/cyfitter_cfg.c **** 	DMAINITSEC static const uint8 CYCODE CH1_ADDR_DATA0[] = { 0x01u, 0x00u, 0x00u, 0x00u, 0x00u, 0x20u
 328:.\Generated_Source\PSoC5/cyfitter_cfg.c **** 
 329:.\Generated_Source\PSoC5/cyfitter_cfg.c **** 	/* PHUB_CH2_CFGMEM_CFG0/1 initialization data */
 330:.\Generated_Source\PSoC5/cyfitter_cfg.c **** 	DMAINITSEC static const uint8 CYCODE CH2_ADDR_DATA0[] = { 0x01u, 0x00u, 0x00u, 0x00u, 0x00u, 0x20u
 331:.\Generated_Source\PSoC5/cyfitter_cfg.c **** 
 332:.\Generated_Source\PSoC5/cyfitter_cfg.c **** 	/* PHUB_CH5_CFGMEM_CFG0/1 initialization data */
 333:.\Generated_Source\PSoC5/cyfitter_cfg.c **** 	DMAINITSEC static const uint8 CYCODE CH5_ADDR_DATA0[] = { 0x01u, 0x00u, 0x00u, 0x00u, 0x00u, 0x48u
 334:.\Generated_Source\PSoC5/cyfitter_cfg.c **** 
 335:.\Generated_Source\PSoC5/cyfitter_cfg.c **** 	/* PHUB_CH6_CFGMEM_CFG0/1 initialization data */
 336:.\Generated_Source\PSoC5/cyfitter_cfg.c **** 	DMAINITSEC static const uint8 CYCODE CH6_ADDR_DATA0[] = { 0x01u, 0x00u, 0x00u, 0x00u, 0x00u, 0x48u
 337:.\Generated_Source\PSoC5/cyfitter_cfg.c **** 
 338:.\Generated_Source\PSoC5/cyfitter_cfg.c **** 	/* Initialization data for each DMA channel's TD registers */
 339:.\Generated_Source\PSoC5/cyfitter_cfg.c **** 	DMAINITSEC static const uint8 CYCODE DMA_TD_START_CMD[] = { 0x01u, 0x00u, 0x00u, 0x00u, 0x01u };
ARM GAS  C:\Users\jthem\AppData\Local\Temp\ccnLl47M.s 			page 10


 340:.\Generated_Source\PSoC5/cyfitter_cfg.c **** 
 341:.\Generated_Source\PSoC5/cyfitter_cfg.c **** 	CYALIGNED static uint32 CYXDATA DMA_ZERO_VAL;
 342:.\Generated_Source\PSoC5/cyfitter_cfg.c **** 
 343:.\Generated_Source\PSoC5/cyfitter_cfg.c **** 	/* This table holds all of the initialization data necessary for the DMA
 344:.\Generated_Source\PSoC5/cyfitter_cfg.c **** 	   process to transfer data from the source location to the destination. */
 345:.\Generated_Source\PSoC5/cyfitter_cfg.c **** 	/* Source addresses can be relocated, but only when in 32bit addresses.
 346:.\Generated_Source\PSoC5/cyfitter_cfg.c **** 	   Because the standard TD table only has 16bit addresses, we generate a
 347:.\Generated_Source\PSoC5/cyfitter_cfg.c **** 	   separate CFG_TD_ADDR table for the source addresses that supports 32bit
 348:.\Generated_Source\PSoC5/cyfitter_cfg.c **** 	   addresses. */
 349:.\Generated_Source\PSoC5/cyfitter_cfg.c **** 	DMAINITSEC static const struct td_t CYCODE CFG_TD_LIST0[] = {
 350:.\Generated_Source\PSoC5/cyfitter_cfg.c **** 		/* Size, Next, Flags, Source, Destination */
 351:.\Generated_Source\PSoC5/cyfitter_cfg.c **** 		{ 8u, 0x02u, 0x23u, (uint16)(uint32)(0u), (uint16)(CYREG_PHUB_CFGMEM1_CFG0) },	/* TD 1 */
 352:.\Generated_Source\PSoC5/cyfitter_cfg.c **** 		{ 8u, 0x03u, 0x23u, (uint16)(uint32)(0u), (uint16)(CYREG_PHUB_CFGMEM2_CFG0) },	/* TD 2 */
 353:.\Generated_Source\PSoC5/cyfitter_cfg.c **** 		{ 8u, 0x04u, 0x23u, (uint16)(uint32)(0u), (uint16)(CYREG_PHUB_CFGMEM5_CFG0) },	/* TD 3 */
 354:.\Generated_Source\PSoC5/cyfitter_cfg.c **** 		{ 8u, 0x05u, 0x23u, (uint16)(uint32)(0u), (uint16)(CYREG_PHUB_CFGMEM6_CFG0) },	/* TD 4 */
 355:.\Generated_Source\PSoC5/cyfitter_cfg.c **** 		{ 5u, 0x06u, 0x23u, (uint16)(uint32)(0u), (uint16)(CYREG_PHUB_CH1_BASIC_CFG) },	/* TD 5 */
 356:.\Generated_Source\PSoC5/cyfitter_cfg.c **** 		{ 5u, 0x07u, 0x23u, (uint16)(uint32)(0u), (uint16)(CYREG_PHUB_CH2_BASIC_CFG) },	/* TD 6 */
 357:.\Generated_Source\PSoC5/cyfitter_cfg.c **** 		{ 5u, 0x08u, 0x23u, (uint16)(uint32)(0u), (uint16)(CYREG_PHUB_CH5_BASIC_CFG) },	/* TD 7 */
 358:.\Generated_Source\PSoC5/cyfitter_cfg.c **** 		{ 5u, 0xFEu, 0x23u, (uint16)(uint32)(0u), (uint16)(CYREG_PHUB_CH6_BASIC_CFG) },	/* TD 8 */
 359:.\Generated_Source\PSoC5/cyfitter_cfg.c **** 		{ 16u, 0xFEu, 0x22u, (uint16)(uint32)(0u), (uint16)(CYREG_PRT1_DR) },	/* TD 9 */
 360:.\Generated_Source\PSoC5/cyfitter_cfg.c **** 		{ 896u, 0x0Bu, 0x22u, (uint16)(uint32)(0u), (uint16)(CYDEV_UCFG_B0_P0_U0_BASE) },	/* TD 10 */
 361:.\Generated_Source\PSoC5/cyfitter_cfg.c **** 		{ 384u, 0x0Cu, 0x22u, (uint16)(uint32)(0u), (uint16)(CYDEV_UCFG_B0_P2_U0_BASE) },	/* TD 11 */
 362:.\Generated_Source\PSoC5/cyfitter_cfg.c **** 		{ 384u, 0x0Du, 0x22u, (uint16)(uint32)(0u), (uint16)(CYDEV_UCFG_B0_P3_U0_BASE) },	/* TD 12 */
 363:.\Generated_Source\PSoC5/cyfitter_cfg.c **** 		{ 384u, 0x0Eu, 0x22u, (uint16)(uint32)(0u), (uint16)(CYDEV_UCFG_B0_P4_U0_BASE) },	/* TD 13 */
 364:.\Generated_Source\PSoC5/cyfitter_cfg.c **** 		{ 512u, 0x0Fu, 0x22u, (uint16)(uint32)(0u), (uint16)(CYDEV_UCFG_B0_P7_U0_BASE) },	/* TD 14 */
 365:.\Generated_Source\PSoC5/cyfitter_cfg.c **** 		{ 384u, 0x10u, 0x22u, (uint16)(uint32)(0u), (uint16)(CYDEV_UCFG_B1_P2_U0_BASE) },	/* TD 15 */
 366:.\Generated_Source\PSoC5/cyfitter_cfg.c **** 		{ 384u, 0x11u, 0x22u, (uint16)(uint32)(0u), (uint16)(CYDEV_UCFG_B1_P3_U0_BASE) },	/* TD 16 */
 367:.\Generated_Source\PSoC5/cyfitter_cfg.c **** 		{ 384u, 0x12u, 0x22u, (uint16)(uint32)(0u), (uint16)(CYDEV_UCFG_B1_P4_U0_BASE) },	/* TD 17 */
 368:.\Generated_Source\PSoC5/cyfitter_cfg.c **** 		{ 384u, 0x13u, 0x22u, (uint16)(uint32)(0u), (uint16)(CYDEV_UCFG_B1_P5_U0_BASE) },	/* TD 18 */
 369:.\Generated_Source\PSoC5/cyfitter_cfg.c **** 		{ 128u, 0x14u, 0x22u, (uint16)(uint32)(0u), (uint16)(CYDEV_UCFG_DSI1_BASE) },	/* TD 19 */
 370:.\Generated_Source\PSoC5/cyfitter_cfg.c **** 		{ 128u, 0x15u, 0x22u, (uint16)(uint32)(0u), (uint16)(CYDEV_UCFG_DSI3_BASE) },	/* TD 20 */
 371:.\Generated_Source\PSoC5/cyfitter_cfg.c **** 		{ 384u, 0x16u, 0x22u, (uint16)(uint32)(0u), (uint16)(CYDEV_UCFG_DSI4_BASE) },	/* TD 21 */
 372:.\Generated_Source\PSoC5/cyfitter_cfg.c **** 		{ 128u, 0x17u, 0x22u, (uint16)(uint32)(0u), (uint16)(CYDEV_UCFG_DSI12_BASE) },	/* TD 22 */
 373:.\Generated_Source\PSoC5/cyfitter_cfg.c **** 		{ 256u, 0x18u, 0x22u, (uint16)(uint32)(0u), (uint16)(CYDEV_UCFG_DSI13_BASE) },	/* TD 23 */
 374:.\Generated_Source\PSoC5/cyfitter_cfg.c **** 		{ 16u, 0xFEu, 0x22u, (uint16)(uint32)(0u), (uint16)(CYREG_BCTL1_MDCLK_EN) },	/* TD 24 */
 375:.\Generated_Source\PSoC5/cyfitter_cfg.c **** 		{ 6u, 0x1Au, 0x23u, (uint16)(uint32)(0u), (uint16)(CYDEV_PRTDSI_PRT12_BASE) },	/* TD 25 */
 376:.\Generated_Source\PSoC5/cyfitter_cfg.c **** 		{ 7u, 0x1Bu, 0x23u, (uint16)(uint32)(0u), (uint16)(CYDEV_PRTDSI_PRT15_BASE) },	/* TD 26 */
 377:.\Generated_Source\PSoC5/cyfitter_cfg.c **** 		{ 8u, 0x1Cu, 0x23u, (uint16)(uint32)(0u), (uint16)(CYDEV_PICU_INTTYPE_PICU15_BASE) },	/* TD 27 */
 378:.\Generated_Source\PSoC5/cyfitter_cfg.c **** 		{ 8u, 0x1Du, 0x23u, (uint16)(uint32)(0u), (uint16)(CYREG_DAC2_SW0) },	/* TD 28 */
 379:.\Generated_Source\PSoC5/cyfitter_cfg.c **** 		{ 8u, 0x1Eu, 0x23u, (uint16)(uint32)(0u), (uint16)(CYREG_DAC3_SW0) },	/* TD 29 */
 380:.\Generated_Source\PSoC5/cyfitter_cfg.c **** 		{ 32u, 0xFEu, 0x23u, (uint16)(uint32)(0u), (uint16)(CYDEV_UWRK_UWRK8_B0_BASE + 0x00000070u) },	/*
 381:.\Generated_Source\PSoC5/cyfitter_cfg.c **** 		{ 8u, 0x20u, 0x23u, (uint16)(uint32)(0u), (uint16)(CYREG_IDMUX_IRQ_CTL0) },	/* TD 31 */
 382:.\Generated_Source\PSoC5/cyfitter_cfg.c **** 		{ 128u, 0x21u, 0x23u, (uint16)(uint32)(0u), (uint16)(CYDEV_UCFG_B0_P5_U0_BASE) },	/* TD 32 */
 383:.\Generated_Source\PSoC5/cyfitter_cfg.c **** 		{ 128u, 0x22u, 0x23u, (uint16)(uint32)(0u), (uint16)(CYDEV_UCFG_B0_P5_U1_BASE) },	/* TD 33 */
 384:.\Generated_Source\PSoC5/cyfitter_cfg.c **** 		{ 128u, 0x23u, 0x23u, (uint16)(uint32)(0u), (uint16)(CYDEV_UCFG_B0_P6_U0_BASE) },	/* TD 34 */
 385:.\Generated_Source\PSoC5/cyfitter_cfg.c **** 		{ 128u, 0x24u, 0x23u, (uint16)(uint32)(0u), (uint16)(CYDEV_UCFG_B0_P6_U1_BASE) },	/* TD 35 */
 386:.\Generated_Source\PSoC5/cyfitter_cfg.c **** 		{ 16u, 0x25u, 0x23u, (uint16)(uint32)(0u), (uint16)(CYREG_BCTL0_MDCLK_EN) },	/* TD 36 */
 387:.\Generated_Source\PSoC5/cyfitter_cfg.c **** 		{ 128u, 0x26u, 0x23u, (uint16)(uint32)(0u), (uint16)(CYDEV_UCFG_DSI12_BASE + 0x00000080u) },	/* T
 388:.\Generated_Source\PSoC5/cyfitter_cfg.c **** 		{ 128u, 0x27u, 0x23u, (uint16)(uint32)(0u), (uint16)(CYDEV_UCFG_DSI7_BASE) },	/* TD 38 */
 389:.\Generated_Source\PSoC5/cyfitter_cfg.c **** 		{ 128u, 0x28u, 0x23u, (uint16)(uint32)(0u), (uint16)(CYDEV_UCFG_DSI7_BASE + 0x00000080u) },	/* TD
 390:.\Generated_Source\PSoC5/cyfitter_cfg.c **** 		{ 128u, 0x29u, 0x23u, (uint16)(uint32)(0u), (uint16)(CYDEV_UCFG_DSI6_BASE) },	/* TD 40 */
 391:.\Generated_Source\PSoC5/cyfitter_cfg.c **** 		{ 128u, 0x2Au, 0x23u, (uint16)(uint32)(0u), (uint16)(CYDEV_UCFG_DSI6_BASE + 0x00000080u) },	/* TD
 392:.\Generated_Source\PSoC5/cyfitter_cfg.c **** 		{ 128u, 0x2Bu, 0x23u, (uint16)(uint32)(0u), (uint16)(CYDEV_UCFG_DSI5_BASE + 0x00000080u) },	/* TD
 393:.\Generated_Source\PSoC5/cyfitter_cfg.c **** 		{ 128u, 0x2Cu, 0x23u, (uint16)(uint32)(0u), (uint16)(CYDEV_UCFG_B1_P5_ROUTE_BASE + 0x00000080u) }
 394:.\Generated_Source\PSoC5/cyfitter_cfg.c **** 		{ 128u, 0x2Du, 0x23u, (uint16)(uint32)(0u), (uint16)(CYDEV_UCFG_B1_P2_ROUTE_BASE + 0x00000080u) }
 395:.\Generated_Source\PSoC5/cyfitter_cfg.c **** 		{ 128u, 0x2Eu, 0x23u, (uint16)(uint32)(0u), (uint16)(CYDEV_UCFG_B1_P4_ROUTE_BASE + 0x00000080u) }
 396:.\Generated_Source\PSoC5/cyfitter_cfg.c **** 		{ 128u, 0x2Fu, 0x23u, (uint16)(uint32)(0u), (uint16)(CYDEV_UCFG_B1_P3_ROUTE_BASE + 0x00000080u) }
ARM GAS  C:\Users\jthem\AppData\Local\Temp\ccnLl47M.s 			page 11


 397:.\Generated_Source\PSoC5/cyfitter_cfg.c **** 		{ 128u, 0x30u, 0x23u, (uint16)(uint32)(0u), (uint16)(CYDEV_UCFG_B0_P4_ROUTE_BASE + 0x00000080u) }
 398:.\Generated_Source\PSoC5/cyfitter_cfg.c **** 		{ 128u, 0x31u, 0x23u, (uint16)(uint32)(0u), (uint16)(CYDEV_UCFG_B0_P3_ROUTE_BASE + 0x00000080u) }
 399:.\Generated_Source\PSoC5/cyfitter_cfg.c **** 		{ 128u, 0x32u, 0x23u, (uint16)(uint32)(0u), (uint16)(CYDEV_UCFG_B0_P5_ROUTE_BASE) },	/* TD 49 */
 400:.\Generated_Source\PSoC5/cyfitter_cfg.c **** 		{ 128u, 0x33u, 0x23u, (uint16)(uint32)(0u), (uint16)(CYDEV_UCFG_B0_P5_ROUTE_BASE + 0x00000080u) }
 401:.\Generated_Source\PSoC5/cyfitter_cfg.c **** 		{ 128u, 0x34u, 0x23u, (uint16)(uint32)(0u), (uint16)(CYDEV_UCFG_B0_P2_ROUTE_BASE + 0x00000080u) }
 402:.\Generated_Source\PSoC5/cyfitter_cfg.c **** 		{ 128u, 0x35u, 0x23u, (uint16)(uint32)(0u), (uint16)(CYDEV_UCFG_B0_P6_ROUTE_BASE) },	/* TD 52 */
 403:.\Generated_Source\PSoC5/cyfitter_cfg.c **** 		{ 128u, 0x36u, 0x23u, (uint16)(uint32)(0u), (uint16)(CYDEV_UCFG_B0_P6_ROUTE_BASE + 0x00000080u) }
 404:.\Generated_Source\PSoC5/cyfitter_cfg.c **** 		{ 128u, 0x37u, 0x23u, (uint16)(uint32)(0u), (uint16)(CYDEV_UCFG_B0_P1_ROUTE_BASE + 0x00000080u) }
 405:.\Generated_Source\PSoC5/cyfitter_cfg.c **** 		{ 128u, 0x38u, 0x23u, (uint16)(uint32)(0u), (uint16)(CYDEV_UCFG_DSI9_BASE) },	/* TD 55 */
 406:.\Generated_Source\PSoC5/cyfitter_cfg.c **** 		{ 128u, 0x39u, 0x23u, (uint16)(uint32)(0u), (uint16)(CYDEV_UCFG_DSI9_BASE + 0x00000080u) },	/* TD
 407:.\Generated_Source\PSoC5/cyfitter_cfg.c **** 		{ 128u, 0x3Au, 0x23u, (uint16)(uint32)(0u), (uint16)(CYDEV_UCFG_DSI8_BASE) },	/* TD 57 */
 408:.\Generated_Source\PSoC5/cyfitter_cfg.c **** 		{ 128u, 0x3Bu, 0x23u, (uint16)(uint32)(0u), (uint16)(CYDEV_UCFG_DSI8_BASE + 0x00000080u) },	/* TD
 409:.\Generated_Source\PSoC5/cyfitter_cfg.c **** 		{ 128u, 0x3Cu, 0x23u, (uint16)(uint32)(0u), (uint16)(CYDEV_UCFG_DSI3_BASE + 0x00000080u) },	/* TD
 410:.\Generated_Source\PSoC5/cyfitter_cfg.c **** 		{ 128u, 0x3Du, 0x23u, (uint16)(uint32)(0u), (uint16)(CYDEV_UCFG_DSI2_BASE) },	/* TD 60 */
 411:.\Generated_Source\PSoC5/cyfitter_cfg.c **** 		{ 128u, 0x3Eu, 0x23u, (uint16)(uint32)(0u), (uint16)(CYDEV_UCFG_DSI2_BASE + 0x00000080u) },	/* TD
 412:.\Generated_Source\PSoC5/cyfitter_cfg.c **** 		{ 128u, 0x3Fu, 0x23u, (uint16)(uint32)(0u), (uint16)(CYDEV_UCFG_DSI1_BASE + 0x00000080u) },	/* TD
 413:.\Generated_Source\PSoC5/cyfitter_cfg.c **** 		{ 128u, 0x40u, 0x23u, (uint16)(uint32)(0u), (uint16)(CYDEV_UCFG_DSI0_BASE) },	/* TD 63 */
 414:.\Generated_Source\PSoC5/cyfitter_cfg.c **** 		{ 128u, 0xFEu, 0x23u, (uint16)(uint32)(0u), (uint16)(CYDEV_UCFG_DSI0_BASE + 0x00000080u) },	/* TD
 415:.\Generated_Source\PSoC5/cyfitter_cfg.c **** 	};
 416:.\Generated_Source\PSoC5/cyfitter_cfg.c **** 
 417:.\Generated_Source\PSoC5/cyfitter_cfg.c **** 	/* Source addresses can be relocated, but only when in 32bit addresses.
 418:.\Generated_Source\PSoC5/cyfitter_cfg.c **** 	   Because the standard TD table only has 16bit addresses, we generate a
 419:.\Generated_Source\PSoC5/cyfitter_cfg.c **** 	   separate table for the source addresses that does use 32bit addresses. This
 420:.\Generated_Source\PSoC5/cyfitter_cfg.c **** 	   table will be re-merged with the corresponding CFG_TD_LIST table during
 421:.\Generated_Source\PSoC5/cyfitter_cfg.c **** 	   initialization. */
 422:.\Generated_Source\PSoC5/cyfitter_cfg.c **** 	static const void * const CFG_TD_ADDR0[] = {
 423:.\Generated_Source\PSoC5/cyfitter_cfg.c **** 		(const void *)(CH1_ADDR_DATA0),	/* TD 1 */
 424:.\Generated_Source\PSoC5/cyfitter_cfg.c **** 		(const void *)(CH2_ADDR_DATA0),	/* TD 2 */
 425:.\Generated_Source\PSoC5/cyfitter_cfg.c **** 		(const void *)(CH5_ADDR_DATA0),	/* TD 3 */
 426:.\Generated_Source\PSoC5/cyfitter_cfg.c **** 		(const void *)(CH6_ADDR_DATA0),	/* TD 4 */
 427:.\Generated_Source\PSoC5/cyfitter_cfg.c **** 		(const void *)(DMA_TD_START_CMD),	/* TD 5 */
 428:.\Generated_Source\PSoC5/cyfitter_cfg.c **** 		(const void *)(DMA_TD_START_CMD),	/* TD 6 */
 429:.\Generated_Source\PSoC5/cyfitter_cfg.c **** 		(const void *)(DMA_TD_START_CMD),	/* TD 7 */
 430:.\Generated_Source\PSoC5/cyfitter_cfg.c **** 		(const void *)(DMA_TD_START_CMD),	/* TD 8 */
 431:.\Generated_Source\PSoC5/cyfitter_cfg.c **** 		(const void *)(&DMA_ZERO_VAL),	/* TD 9 */
 432:.\Generated_Source\PSoC5/cyfitter_cfg.c **** 		(const void *)(&DMA_ZERO_VAL),	/* TD 10 */
 433:.\Generated_Source\PSoC5/cyfitter_cfg.c **** 		(const void *)(&DMA_ZERO_VAL),	/* TD 11 */
 434:.\Generated_Source\PSoC5/cyfitter_cfg.c **** 		(const void *)(&DMA_ZERO_VAL),	/* TD 12 */
 435:.\Generated_Source\PSoC5/cyfitter_cfg.c **** 		(const void *)(&DMA_ZERO_VAL),	/* TD 13 */
 436:.\Generated_Source\PSoC5/cyfitter_cfg.c **** 		(const void *)(&DMA_ZERO_VAL),	/* TD 14 */
 437:.\Generated_Source\PSoC5/cyfitter_cfg.c **** 		(const void *)(&DMA_ZERO_VAL),	/* TD 15 */
 438:.\Generated_Source\PSoC5/cyfitter_cfg.c **** 		(const void *)(&DMA_ZERO_VAL),	/* TD 16 */
 439:.\Generated_Source\PSoC5/cyfitter_cfg.c **** 		(const void *)(&DMA_ZERO_VAL),	/* TD 17 */
 440:.\Generated_Source\PSoC5/cyfitter_cfg.c **** 		(const void *)(&DMA_ZERO_VAL),	/* TD 18 */
 441:.\Generated_Source\PSoC5/cyfitter_cfg.c **** 		(const void *)(&DMA_ZERO_VAL),	/* TD 19 */
 442:.\Generated_Source\PSoC5/cyfitter_cfg.c **** 		(const void *)(&DMA_ZERO_VAL),	/* TD 20 */
 443:.\Generated_Source\PSoC5/cyfitter_cfg.c **** 		(const void *)(&DMA_ZERO_VAL),	/* TD 21 */
 444:.\Generated_Source\PSoC5/cyfitter_cfg.c **** 		(const void *)(&DMA_ZERO_VAL),	/* TD 22 */
 445:.\Generated_Source\PSoC5/cyfitter_cfg.c **** 		(const void *)(&DMA_ZERO_VAL),	/* TD 23 */
 446:.\Generated_Source\PSoC5/cyfitter_cfg.c **** 		(const void *)(&DMA_ZERO_VAL),	/* TD 24 */
 447:.\Generated_Source\PSoC5/cyfitter_cfg.c **** 		(const void *)(BS_IOPORT_7_VAL),	/* TD 25 */
 448:.\Generated_Source\PSoC5/cyfitter_cfg.c **** 		(const void *)(BS_IOPORT_8_VAL),	/* TD 26 */
 449:.\Generated_Source\PSoC5/cyfitter_cfg.c **** 		(const void *)(BS_PICU_8_VAL),	/* TD 27 */
 450:.\Generated_Source\PSoC5/cyfitter_cfg.c **** 		(const void *)(BS_DAC2_VAL),	/* TD 28 */
 451:.\Generated_Source\PSoC5/cyfitter_cfg.c **** 		(const void *)(BS_DAC3_VAL),	/* TD 29 */
 452:.\Generated_Source\PSoC5/cyfitter_cfg.c **** 		(const void *)(BS_UWRK_B0_WRK_STATCTL_BITS_VAL),	/* TD 30 */
 453:.\Generated_Source\PSoC5/cyfitter_cfg.c **** 		(const void *)(BS_IDMUX_IRQ_VAL),	/* TD 31 */
ARM GAS  C:\Users\jthem\AppData\Local\Temp\ccnLl47M.s 			page 12


 454:.\Generated_Source\PSoC5/cyfitter_cfg.c **** 		(const void *)(BS_UDB_0_3_0_CONFIG_VAL),	/* TD 32 */
 455:.\Generated_Source\PSoC5/cyfitter_cfg.c **** 		(const void *)(BS_UDB_0_3_1_CONFIG_VAL),	/* TD 33 */
 456:.\Generated_Source\PSoC5/cyfitter_cfg.c **** 		(const void *)(BS_UDB_0_4_1_CONFIG_VAL),	/* TD 34 */
 457:.\Generated_Source\PSoC5/cyfitter_cfg.c **** 		(const void *)(BS_UDB_0_4_0_CONFIG_VAL),	/* TD 35 */
 458:.\Generated_Source\PSoC5/cyfitter_cfg.c **** 		(const void *)(BS_UCFG_BCTL0_VAL),	/* TD 36 */
 459:.\Generated_Source\PSoC5/cyfitter_cfg.c **** 		(const void *)(BS_DSI0_1_HV_ROUTING_VAL),	/* TD 37 */
 460:.\Generated_Source\PSoC5/cyfitter_cfg.c **** 		(const void *)(BS_DSISWITCH_0_2_VAL),	/* TD 38 */
 461:.\Generated_Source\PSoC5/cyfitter_cfg.c **** 		(const void *)(BS_DSI0_2_HV_ROUTING_VAL),	/* TD 39 */
 462:.\Generated_Source\PSoC5/cyfitter_cfg.c **** 		(const void *)(BS_DSISWITCH_0_3_VAL),	/* TD 40 */
 463:.\Generated_Source\PSoC5/cyfitter_cfg.c **** 		(const void *)(BS_DSI0_3_HV_ROUTING_VAL),	/* TD 41 */
 464:.\Generated_Source\PSoC5/cyfitter_cfg.c **** 		(const void *)(BS_DSI0_4_HV_ROUTING_VAL),	/* TD 42 */
 465:.\Generated_Source\PSoC5/cyfitter_cfg.c **** 		(const void *)(BS_UDB_1_0_HV_ROUTING_VAL),	/* TD 43 */
 466:.\Generated_Source\PSoC5/cyfitter_cfg.c **** 		(const void *)(BS_UDB_2_0_HV_ROUTING_VAL),	/* TD 44 */
 467:.\Generated_Source\PSoC5/cyfitter_cfg.c **** 		(const void *)(BS_UDB_1_1_HV_ROUTING_VAL),	/* TD 45 */
 468:.\Generated_Source\PSoC5/cyfitter_cfg.c **** 		(const void *)(BS_UDB_2_1_HV_ROUTING_VAL),	/* TD 46 */
 469:.\Generated_Source\PSoC5/cyfitter_cfg.c **** 		(const void *)(BS_UDB_1_2_HV_ROUTING_VAL),	/* TD 47 */
 470:.\Generated_Source\PSoC5/cyfitter_cfg.c **** 		(const void *)(BS_UDB_2_2_HV_ROUTING_VAL),	/* TD 48 */
 471:.\Generated_Source\PSoC5/cyfitter_cfg.c **** 		(const void *)(BS_UDBSWITCH_0_3_VAL),	/* TD 49 */
 472:.\Generated_Source\PSoC5/cyfitter_cfg.c **** 		(const void *)(BS_UDB_1_3_HV_ROUTING_VAL),	/* TD 50 */
 473:.\Generated_Source\PSoC5/cyfitter_cfg.c **** 		(const void *)(BS_UDB_2_3_HV_ROUTING_VAL),	/* TD 51 */
 474:.\Generated_Source\PSoC5/cyfitter_cfg.c **** 		(const void *)(BS_UDBSWITCH_0_4_VAL),	/* TD 52 */
 475:.\Generated_Source\PSoC5/cyfitter_cfg.c **** 		(const void *)(BS_UDB_1_4_HV_ROUTING_VAL),	/* TD 53 */
 476:.\Generated_Source\PSoC5/cyfitter_cfg.c **** 		(const void *)(BS_UDB_2_4_HV_ROUTING_VAL),	/* TD 54 */
 477:.\Generated_Source\PSoC5/cyfitter_cfg.c **** 		(const void *)(BS_DSISWITCH_1_0_VAL),	/* TD 55 */
 478:.\Generated_Source\PSoC5/cyfitter_cfg.c **** 		(const void *)(BS_DSI3_0_HV_ROUTING_VAL),	/* TD 56 */
 479:.\Generated_Source\PSoC5/cyfitter_cfg.c **** 		(const void *)(BS_DSISWITCH_1_1_VAL),	/* TD 57 */
 480:.\Generated_Source\PSoC5/cyfitter_cfg.c **** 		(const void *)(BS_DSI3_1_HV_ROUTING_VAL),	/* TD 58 */
 481:.\Generated_Source\PSoC5/cyfitter_cfg.c **** 		(const void *)(BS_DSI3_2_HV_ROUTING_VAL),	/* TD 59 */
 482:.\Generated_Source\PSoC5/cyfitter_cfg.c **** 		(const void *)(BS_DSISWITCH_1_3_VAL),	/* TD 60 */
 483:.\Generated_Source\PSoC5/cyfitter_cfg.c **** 		(const void *)(BS_DSI3_3_HV_ROUTING_VAL),	/* TD 61 */
 484:.\Generated_Source\PSoC5/cyfitter_cfg.c **** 		(const void *)(BS_DSI3_4_HV_ROUTING_VAL),	/* TD 62 */
 485:.\Generated_Source\PSoC5/cyfitter_cfg.c **** 		(const void *)(BS_DSISWITCH_1_5_VAL),	/* TD 63 */
 486:.\Generated_Source\PSoC5/cyfitter_cfg.c **** 		(const void *)(BS_DSI3_5_HV_ROUTING_VAL),	/* TD 64 */
 487:.\Generated_Source\PSoC5/cyfitter_cfg.c **** 	};
 488:.\Generated_Source\PSoC5/cyfitter_cfg.c **** 
 489:.\Generated_Source\PSoC5/cyfitter_cfg.c **** 
 490:.\Generated_Source\PSoC5/cyfitter_cfg.c **** 	uint32 i;
 491:.\Generated_Source\PSoC5/cyfitter_cfg.c **** 
 492:.\Generated_Source\PSoC5/cyfitter_cfg.c **** 	DMA_ZERO_VAL = 0u;
 175              		.loc 1 492 0
 176 0006 454B     		ldr	r3, .L15
 177 0008 0022     		movs	r2, #0
 178 000a 1A60     		str	r2, [r3]
 493:.\Generated_Source\PSoC5/cyfitter_cfg.c **** 	CY_SET_REG8((void CYXDATA *)CYREG_PHUB_CFGMEM0_CFG0, 0x10u);	/* set burstcnt */
 179              		.loc 1 493 0
 180 000c 444B     		ldr	r3, .L15+4
 181 000e 1022     		movs	r2, #16
 182 0010 1A70     		strb	r2, [r3]
 494:.\Generated_Source\PSoC5/cyfitter_cfg.c **** 	CY_SET_REG8((void CYXDATA *)CYREG_PHUB_CH0_BASIC_CFG, 0x01u);	/* enable ch0 */
 183              		.loc 1 494 0
 184 0012 444B     		ldr	r3, .L15+8
 185 0014 0122     		movs	r2, #1
 186 0016 1A70     		strb	r2, [r3]
 495:.\Generated_Source\PSoC5/cyfitter_cfg.c **** 	CY_SET_REG8((void CYXDATA *)(CYREG_PHUB_CH0_BASIC_STATUS+1u), 0x00u);	/* set first TD to 0 */
 187              		.loc 1 495 0
 188 0018 434B     		ldr	r3, .L15+12
 189 001a 0022     		movs	r2, #0
ARM GAS  C:\Users\jthem\AppData\Local\Temp\ccnLl47M.s 			page 13


 190 001c 1A70     		strb	r2, [r3]
 496:.\Generated_Source\PSoC5/cyfitter_cfg.c **** 	CY_SET_REG16((void CYXDATA *)CYREG_PHUB_TDMEM0_ORIG_TD0, 64u*8u);	/* transfer size */
 191              		.loc 1 496 0
 192 001e 434B     		ldr	r3, .L15+16
 193 0020 4FF40072 		mov	r2, #512
 194 0024 1A80     		strh	r2, [r3]	@ movhi
 497:.\Generated_Source\PSoC5/cyfitter_cfg.c **** 	CY_SET_REG8((void CYXDATA *)(CYREG_PHUB_TDMEM0_ORIG_TD0+2u), 0x01u);	/* set next TD to 1 */
 195              		.loc 1 497 0
 196 0026 424B     		ldr	r3, .L15+20
 197 0028 0122     		movs	r2, #1
 198 002a 1A70     		strb	r2, [r3]
 498:.\Generated_Source\PSoC5/cyfitter_cfg.c **** 	CY_SET_REG8((void CYXDATA *)(CYREG_PHUB_TDMEM0_ORIG_TD0+3u), 0x03u);	/* set TD flags */
 199              		.loc 1 498 0
 200 002c 414B     		ldr	r3, .L15+24
 201 002e 0322     		movs	r2, #3
 202 0030 1A70     		strb	r2, [r3]
 499:.\Generated_Source\PSoC5/cyfitter_cfg.c **** 	CY_SET_REG16((void CYXDATA *)CYREG_PHUB_TDMEM0_ORIG_TD1, (uint16)((uint32)CFG_TD_LIST0 & 0x0000FFF
 203              		.loc 1 499 0
 204 0032 414B     		ldr	r3, .L15+28
 205 0034 414A     		ldr	r2, .L15+32
 206 0036 92B2     		uxth	r2, r2
 207 0038 1A80     		strh	r2, [r3]	@ movhi
 500:.\Generated_Source\PSoC5/cyfitter_cfg.c **** 	CY_SET_REG16((void CYXDATA *)(CYREG_PHUB_TDMEM0_ORIG_TD1+2u), CYDEV_PHUB_TDMEM1_BASE);	/* set td0'
 208              		.loc 1 500 0
 209 003a 414B     		ldr	r3, .L15+36
 210 003c 47F60802 		movw	r2, #30728
 211 0040 1A80     		strh	r2, [r3]	@ movhi
 501:.\Generated_Source\PSoC5/cyfitter_cfg.c **** 	CY_SET_REG16((void CYXDATA *)CYREG_PHUB_CFGMEM0_CFG1, (uint16)(CYDEV_FLASH_BASE >> 16));	/* set ch
 212              		.loc 1 501 0
 213 0042 404B     		ldr	r3, .L15+40
 214 0044 0022     		movs	r2, #0
 215 0046 1A80     		strh	r2, [r3]	@ movhi
 502:.\Generated_Source\PSoC5/cyfitter_cfg.c **** 	CY_SET_REG16((void CYXDATA *)(CYREG_PHUB_CFGMEM0_CFG1+2u), (uint16)(CYDEV_PHUB_TDMEM1_BASE >> 16))
 216              		.loc 1 502 0
 217 0048 3F4B     		ldr	r3, .L15+44
 218 004a 4FF48042 		mov	r2, #16384
 219 004e 1A80     		strh	r2, [r3]	@ movhi
 503:.\Generated_Source\PSoC5/cyfitter_cfg.c **** 	CY_SET_REG8((void CYXDATA *)(CYREG_PHUB_CH1_BASIC_STATUS+1u), 0x09u);	/* ch1 first TD: 9 */
 220              		.loc 1 503 0
 221 0050 3E4B     		ldr	r3, .L15+48
 222 0052 0922     		movs	r2, #9
 223 0054 1A70     		strb	r2, [r3]
 504:.\Generated_Source\PSoC5/cyfitter_cfg.c **** 	CY_SET_REG8((void CYXDATA *)(CYREG_PHUB_CH2_BASIC_STATUS+1u), 0x0Au);	/* ch2 first TD: 10 */
 224              		.loc 1 504 0
 225 0056 3E4B     		ldr	r3, .L15+52
 226 0058 0A22     		movs	r2, #10
 227 005a 1A70     		strb	r2, [r3]
 505:.\Generated_Source\PSoC5/cyfitter_cfg.c **** 	CY_SET_REG8((void CYXDATA *)(CYREG_PHUB_CH5_BASIC_STATUS+1u), 0x19u);	/* ch5 first TD: 25 */
 228              		.loc 1 505 0
 229 005c 3D4B     		ldr	r3, .L15+56
 230 005e 1922     		movs	r2, #25
 231 0060 1A70     		strb	r2, [r3]
 506:.\Generated_Source\PSoC5/cyfitter_cfg.c **** 	CY_SET_REG8((void CYXDATA *)(CYREG_PHUB_CH6_BASIC_STATUS+1u), 0x1Fu);	/* ch6 first TD: 31 */
 232              		.loc 1 506 0
 233 0062 3D4B     		ldr	r3, .L15+60
 234 0064 1F22     		movs	r2, #31
 235 0066 1A70     		strb	r2, [r3]
ARM GAS  C:\Users\jthem\AppData\Local\Temp\ccnLl47M.s 			page 14


 507:.\Generated_Source\PSoC5/cyfitter_cfg.c **** 
 508:.\Generated_Source\PSoC5/cyfitter_cfg.c **** 	CY_CFG_MEMORY_BARRIER();
 236              		.loc 1 508 0
 237 0068 BFF35F8F 		dmb	sy
 509:.\Generated_Source\PSoC5/cyfitter_cfg.c **** 	CY_SET_REG8((void CYXDATA *)CYREG_PHUB_CH0_ACTION, 0x01u); /* cpu_req */
 238              		.loc 1 509 0
 239 006c 3B4B     		ldr	r3, .L15+64
 240 006e 0122     		movs	r2, #1
 241 0070 1A70     		strb	r2, [r3]
 510:.\Generated_Source\PSoC5/cyfitter_cfg.c **** 	CY_CFG_MEMORY_BARRIER();
 242              		.loc 1 510 0
 243 0072 BFF35F8F 		dmb	sy
 511:.\Generated_Source\PSoC5/cyfitter_cfg.c **** 
 512:.\Generated_Source\PSoC5/cyfitter_cfg.c **** 	/* Wait for TDs to be copied into TDMEM */
 513:.\Generated_Source\PSoC5/cyfitter_cfg.c **** 	while (CY_GET_REG16((void CYXDATA *)CYREG_PHUB_TDMEM0_ORIG_TD0) != 0u) { }
 244              		.loc 1 513 0
 245 0076 00BF     		nop
 246              	.L7:
 247              		.loc 1 513 0 is_stmt 0 discriminator 1
 248 0078 2C4B     		ldr	r3, .L15+16
 249 007a 1B88     		ldrh	r3, [r3]	@ movhi
 250 007c 9BB2     		uxth	r3, r3
 251 007e 002B     		cmp	r3, #0
 252 0080 FAD1     		bne	.L7
 514:.\Generated_Source\PSoC5/cyfitter_cfg.c **** 
 515:.\Generated_Source\PSoC5/cyfitter_cfg.c **** 	/* Recombine TD source table (CFG_TD_ADDR0) with full TD table (CFG_TD_LIST0) */
 516:.\Generated_Source\PSoC5/cyfitter_cfg.c **** 	for (i = 0u; i < 64u; i++)
 253              		.loc 1 516 0 is_stmt 1
 254 0082 0023     		movs	r3, #0
 255 0084 7B60     		str	r3, [r7, #4]
 256 0086 0DE0     		b	.L8
 257              	.L9:
 517:.\Generated_Source\PSoC5/cyfitter_cfg.c **** 	{
 518:.\Generated_Source\PSoC5/cyfitter_cfg.c **** 		CY_SET_REG16((void CYXDATA *)(CYREG_PHUB_TDMEM1_ORIG_TD1 + (sizeof(struct td_t)*i)), (uint16)(uin
 258              		.loc 1 518 0 discriminator 3
 259 0088 7B68     		ldr	r3, [r7, #4]
 260 008a DA00     		lsls	r2, r3, #3
 261 008c 344B     		ldr	r3, .L15+68
 262 008e 1344     		add	r3, r3, r2
 263 0090 1946     		mov	r1, r3
 264 0092 344A     		ldr	r2, .L15+72
 265 0094 7B68     		ldr	r3, [r7, #4]
 266 0096 52F82330 		ldr	r3, [r2, r3, lsl #2]
 267 009a 9BB2     		uxth	r3, r3
 268 009c 0B80     		strh	r3, [r1]	@ movhi
 516:.\Generated_Source\PSoC5/cyfitter_cfg.c **** 	{
 269              		.loc 1 516 0 discriminator 3
 270 009e 7B68     		ldr	r3, [r7, #4]
 271 00a0 0133     		adds	r3, r3, #1
 272 00a2 7B60     		str	r3, [r7, #4]
 273              	.L8:
 516:.\Generated_Source\PSoC5/cyfitter_cfg.c **** 	{
 274              		.loc 1 516 0 is_stmt 0 discriminator 1
 275 00a4 7B68     		ldr	r3, [r7, #4]
 276 00a6 3F2B     		cmp	r3, #63
 277 00a8 EED9     		bls	.L9
 519:.\Generated_Source\PSoC5/cyfitter_cfg.c **** 	}
ARM GAS  C:\Users\jthem\AppData\Local\Temp\ccnLl47M.s 			page 15


 520:.\Generated_Source\PSoC5/cyfitter_cfg.c **** 
 521:.\Generated_Source\PSoC5/cyfitter_cfg.c **** 	CY_CFG_MEMORY_BARRIER();
 278              		.loc 1 521 0 is_stmt 1
 279 00aa BFF35F8F 		dmb	sy
 522:.\Generated_Source\PSoC5/cyfitter_cfg.c **** 	CY_SET_REG8((void CYXDATA *)CYREG_PHUB_CH0_ACTION, 0x01u); /* cpu_req */
 280              		.loc 1 522 0
 281 00ae 2B4B     		ldr	r3, .L15+64
 282 00b0 0122     		movs	r2, #1
 283 00b2 1A70     		strb	r2, [r3]
 523:.\Generated_Source\PSoC5/cyfitter_cfg.c **** 	CY_CFG_MEMORY_BARRIER();
 284              		.loc 1 523 0
 285 00b4 BFF35F8F 		dmb	sy
 524:.\Generated_Source\PSoC5/cyfitter_cfg.c **** 
 525:.\Generated_Source\PSoC5/cyfitter_cfg.c **** 	/* Wait for all DMA transfers to complete */
 526:.\Generated_Source\PSoC5/cyfitter_cfg.c **** 	while(0u != (CY_GET_REG8((void CYXDATA *)CYREG_PHUB_CH0_BASIC_STATUS) & 0x01u)){}
 286              		.loc 1 526 0
 287 00b8 00BF     		nop
 288              	.L10:
 289              		.loc 1 526 0 is_stmt 0 discriminator 1
 290 00ba 2B4B     		ldr	r3, .L15+76
 291 00bc 1B78     		ldrb	r3, [r3]
 292 00be DBB2     		uxtb	r3, r3
 293 00c0 03F00103 		and	r3, r3, #1
 294 00c4 002B     		cmp	r3, #0
 295 00c6 F8D1     		bne	.L10
 527:.\Generated_Source\PSoC5/cyfitter_cfg.c **** 	while(0u != (CY_GET_REG8((void CYXDATA *)CYREG_PHUB_CH1_BASIC_STATUS) & 0x01u)){}
 296              		.loc 1 527 0 is_stmt 1
 297 00c8 00BF     		nop
 298              	.L11:
 299              		.loc 1 527 0 is_stmt 0 discriminator 1
 300 00ca 284B     		ldr	r3, .L15+80
 301 00cc 1B78     		ldrb	r3, [r3]
 302 00ce DBB2     		uxtb	r3, r3
 303 00d0 03F00103 		and	r3, r3, #1
 304 00d4 002B     		cmp	r3, #0
 305 00d6 F8D1     		bne	.L11
 528:.\Generated_Source\PSoC5/cyfitter_cfg.c **** 	while(0u != (CY_GET_REG8((void CYXDATA *)CYREG_PHUB_CH2_BASIC_STATUS) & 0x01u)){}
 306              		.loc 1 528 0 is_stmt 1
 307 00d8 00BF     		nop
 308              	.L12:
 309              		.loc 1 528 0 is_stmt 0 discriminator 1
 310 00da 254B     		ldr	r3, .L15+84
 311 00dc 1B78     		ldrb	r3, [r3]
 312 00de DBB2     		uxtb	r3, r3
 313 00e0 03F00103 		and	r3, r3, #1
 314 00e4 002B     		cmp	r3, #0
 315 00e6 F8D1     		bne	.L12
 529:.\Generated_Source\PSoC5/cyfitter_cfg.c **** 	while(0u != (CY_GET_REG8((void CYXDATA *)CYREG_PHUB_CH5_BASIC_STATUS) & 0x01u)){}
 316              		.loc 1 529 0 is_stmt 1
 317 00e8 00BF     		nop
 318              	.L13:
 319              		.loc 1 529 0 is_stmt 0 discriminator 1
 320 00ea 224B     		ldr	r3, .L15+88
 321 00ec 1B78     		ldrb	r3, [r3]
 322 00ee DBB2     		uxtb	r3, r3
 323 00f0 03F00103 		and	r3, r3, #1
 324 00f4 002B     		cmp	r3, #0
ARM GAS  C:\Users\jthem\AppData\Local\Temp\ccnLl47M.s 			page 16


 325 00f6 F8D1     		bne	.L13
 530:.\Generated_Source\PSoC5/cyfitter_cfg.c **** 	while(0u != (CY_GET_REG8((void CYXDATA *)CYREG_PHUB_CH6_BASIC_STATUS) & 0x01u)){}
 326              		.loc 1 530 0 is_stmt 1
 327 00f8 00BF     		nop
 328              	.L14:
 329              		.loc 1 530 0 is_stmt 0 discriminator 1
 330 00fa 1F4B     		ldr	r3, .L15+92
 331 00fc 1B78     		ldrb	r3, [r3]
 332 00fe DBB2     		uxtb	r3, r3
 333 0100 03F00103 		and	r3, r3, #1
 334 0104 002B     		cmp	r3, #0
 335 0106 F8D1     		bne	.L14
 531:.\Generated_Source\PSoC5/cyfitter_cfg.c **** 
 532:.\Generated_Source\PSoC5/cyfitter_cfg.c **** 
 533:.\Generated_Source\PSoC5/cyfitter_cfg.c **** 	CYCONFIGCPY((void CYFAR *)(CYREG_IDMUX_DRQ_CTL0), (const void CYFAR *)(BS_IDMUX_VAL), 6u);
 336              		.loc 1 533 0 is_stmt 1
 337 0108 1C48     		ldr	r0, .L15+96
 338 010a 4FF09041 		mov	r1, #1207959552
 339 010e 0622     		movs	r2, #6
 340 0110 FFF7FEFF 		bl	CYCONFIGCPY
 534:.\Generated_Source\PSoC5/cyfitter_cfg.c **** 
 535:.\Generated_Source\PSoC5/cyfitter_cfg.c **** }
 341              		.loc 1 535 0
 342 0114 0837     		adds	r7, r7, #8
 343              		.cfi_def_cfa_offset 8
 344 0116 BD46     		mov	sp, r7
 345              		.cfi_def_cfa_register 13
 346              		@ sp needed
 347 0118 80BD     		pop	{r7, pc}
 348              	.L16:
 349 011a 00BF     		.align	2
 350              	.L15:
 351 011c 00000000 		.word	DMA_ZERO_VAL.4860
 352 0120 00760040 		.word	1073772032
 353 0124 10700040 		.word	1073770512
 354 0128 19700040 		.word	1073770521
 355 012c 00780040 		.word	1073772544
 356 0130 02780040 		.word	1073772546
 357 0134 03780040 		.word	1073772547
 358 0138 04780040 		.word	1073772548
 359 013c 00000000 		.word	CFG_TD_LIST0.4861
 360 0140 06780040 		.word	1073772550
 361 0144 04760040 		.word	1073772036
 362 0148 06760040 		.word	1073772038
 363 014c 29700040 		.word	1073770537
 364 0150 39700040 		.word	1073770553
 365 0154 69700040 		.word	1073770601
 366 0158 79700040 		.word	1073770617
 367 015c 14700040 		.word	1073770516
 368 0160 0C780040 		.word	1073772556
 369 0164 80020000 		.word	CFG_TD_ADDR0.4862
 370 0168 18700040 		.word	1073770520
 371 016c 28700040 		.word	1073770536
 372 0170 38700040 		.word	1073770552
 373 0174 68700040 		.word	1073770600
 374 0178 78700040 		.word	1073770616
 375 017c 10510140 		.word	1073828112
ARM GAS  C:\Users\jthem\AppData\Local\Temp\ccnLl47M.s 			page 17


 376              		.cfi_endproc
 377              	.LFE4:
 378              		.size	cfg_dma_init, .-cfg_dma_init
 379              		.section	.text.ClockSetup,"ax",%progbits
 380              		.align	2
 381              		.thumb
 382              		.thumb_func
 383              		.type	ClockSetup, %function
 384              	ClockSetup:
 385              	.LFB5:
 536:.\Generated_Source\PSoC5/cyfitter_cfg.c **** /*******************************************************************************
 537:.\Generated_Source\PSoC5/cyfitter_cfg.c **** * Function Name: ClockSetup
 538:.\Generated_Source\PSoC5/cyfitter_cfg.c **** ********************************************************************************
 539:.\Generated_Source\PSoC5/cyfitter_cfg.c **** *
 540:.\Generated_Source\PSoC5/cyfitter_cfg.c **** * Summary:
 541:.\Generated_Source\PSoC5/cyfitter_cfg.c **** *  Performs the initialization of all of the clocks in the device based on the
 542:.\Generated_Source\PSoC5/cyfitter_cfg.c **** *  settings in the Clock tab of the DWR.  This includes enabling the requested
 543:.\Generated_Source\PSoC5/cyfitter_cfg.c **** *  clocks and setting the necessary dividers to produce the desired frequency. 
 544:.\Generated_Source\PSoC5/cyfitter_cfg.c **** *
 545:.\Generated_Source\PSoC5/cyfitter_cfg.c **** * Parameters:
 546:.\Generated_Source\PSoC5/cyfitter_cfg.c **** *  void
 547:.\Generated_Source\PSoC5/cyfitter_cfg.c **** *
 548:.\Generated_Source\PSoC5/cyfitter_cfg.c **** * Return:
 549:.\Generated_Source\PSoC5/cyfitter_cfg.c **** *  void
 550:.\Generated_Source\PSoC5/cyfitter_cfg.c **** *
 551:.\Generated_Source\PSoC5/cyfitter_cfg.c **** *******************************************************************************/
 552:.\Generated_Source\PSoC5/cyfitter_cfg.c **** static void ClockSetup(void);
 553:.\Generated_Source\PSoC5/cyfitter_cfg.c **** static void ClockSetup(void)
 554:.\Generated_Source\PSoC5/cyfitter_cfg.c **** {
 386              		.loc 1 554 0
 387              		.cfi_startproc
 388              		@ args = 0, pretend = 0, frame = 8
 389              		@ frame_needed = 1, uses_anonymous_args = 0
 390 0000 80B5     		push	{r7, lr}
 391              		.cfi_def_cfa_offset 8
 392              		.cfi_offset 7, -8
 393              		.cfi_offset 14, -4
 394 0002 82B0     		sub	sp, sp, #8
 395              		.cfi_def_cfa_offset 16
 396 0004 00AF     		add	r7, sp, #0
 397              		.cfi_def_cfa_register 7
 555:.\Generated_Source\PSoC5/cyfitter_cfg.c **** 	uint32 timeout;
 556:.\Generated_Source\PSoC5/cyfitter_cfg.c **** 	uint8 pllLock;
 557:.\Generated_Source\PSoC5/cyfitter_cfg.c **** 
 558:.\Generated_Source\PSoC5/cyfitter_cfg.c **** 
 559:.\Generated_Source\PSoC5/cyfitter_cfg.c **** 	/* Configure Digital Clocks based on settings from Clock DWR */
 560:.\Generated_Source\PSoC5/cyfitter_cfg.c **** 	CY_SET_XTND_REG16((void CYFAR *)(CYREG_CLKDIST_DCFG0_CFG0), 0x0077u);
 398              		.loc 1 560 0
 399 0006 364B     		ldr	r3, .L22
 400 0008 7722     		movs	r2, #119
 401 000a 1A80     		strh	r2, [r3]	@ movhi
 561:.\Generated_Source\PSoC5/cyfitter_cfg.c **** 	CY_SET_XTND_REG8((void CYFAR *)(CYREG_CLKDIST_DCFG0_CFG0 + 0x2u), 0x19u);
 402              		.loc 1 561 0
 403 000c 354B     		ldr	r3, .L22+4
 404 000e 1922     		movs	r2, #25
 405 0010 1A70     		strb	r2, [r3]
 562:.\Generated_Source\PSoC5/cyfitter_cfg.c **** 	CY_SET_XTND_REG16((void CYFAR *)(CYREG_CLKDIST_DCFG1_CFG0), 0x0077u);
ARM GAS  C:\Users\jthem\AppData\Local\Temp\ccnLl47M.s 			page 18


 406              		.loc 1 562 0
 407 0012 354B     		ldr	r3, .L22+8
 408 0014 7722     		movs	r2, #119
 409 0016 1A80     		strh	r2, [r3]	@ movhi
 563:.\Generated_Source\PSoC5/cyfitter_cfg.c **** 	CY_SET_XTND_REG8((void CYFAR *)(CYREG_CLKDIST_DCFG1_CFG0 + 0x2u), 0x19u);
 410              		.loc 1 563 0
 411 0018 344B     		ldr	r3, .L22+12
 412 001a 1922     		movs	r2, #25
 413 001c 1A70     		strb	r2, [r3]
 564:.\Generated_Source\PSoC5/cyfitter_cfg.c **** 	CY_SET_XTND_REG16((void CYFAR *)(CYREG_CLKDIST_DCFG2_CFG0), 0x000Bu);
 414              		.loc 1 564 0
 415 001e 344B     		ldr	r3, .L22+16
 416 0020 0B22     		movs	r2, #11
 417 0022 1A80     		strh	r2, [r3]	@ movhi
 565:.\Generated_Source\PSoC5/cyfitter_cfg.c **** 	CY_SET_XTND_REG8((void CYFAR *)(CYREG_CLKDIST_DCFG2_CFG0 + 0x2u), 0x19u);
 418              		.loc 1 565 0
 419 0024 334B     		ldr	r3, .L22+20
 420 0026 1922     		movs	r2, #25
 421 0028 1A70     		strb	r2, [r3]
 566:.\Generated_Source\PSoC5/cyfitter_cfg.c **** 
 567:.\Generated_Source\PSoC5/cyfitter_cfg.c **** 	/* Configure ILO based on settings from Clock DWR */
 568:.\Generated_Source\PSoC5/cyfitter_cfg.c **** 	CY_SET_XTND_REG8((void CYFAR *)(CYREG_SLOWCLK_ILO_CR0), 0x06u);
 422              		.loc 1 568 0
 423 002a 334B     		ldr	r3, .L22+24
 424 002c 0622     		movs	r2, #6
 425 002e 1A70     		strb	r2, [r3]
 569:.\Generated_Source\PSoC5/cyfitter_cfg.c **** 
 570:.\Generated_Source\PSoC5/cyfitter_cfg.c **** 	/* Configure IMO based on settings from Clock DWR */
 571:.\Generated_Source\PSoC5/cyfitter_cfg.c **** 	CY_SET_XTND_REG8((void CYFAR *)(CYREG_FASTCLK_IMO_CR), 0x52u);
 426              		.loc 1 571 0
 427 0030 324B     		ldr	r3, .L22+28
 428 0032 5222     		movs	r2, #82
 429 0034 1A70     		strb	r2, [r3]
 572:.\Generated_Source\PSoC5/cyfitter_cfg.c **** 	CY_SET_XTND_REG8((void CYFAR *)(CYREG_IMO_TR1), (CY_GET_XTND_REG8((void CYFAR *)CYREG_FLSHID_CUST_
 430              		.loc 1 572 0
 431 0036 324B     		ldr	r3, .L22+32
 432 0038 324A     		ldr	r2, .L22+36
 433 003a 1278     		ldrb	r2, [r2]
 434 003c D2B2     		uxtb	r2, r2
 435 003e 1A70     		strb	r2, [r3]
 573:.\Generated_Source\PSoC5/cyfitter_cfg.c **** 
 574:.\Generated_Source\PSoC5/cyfitter_cfg.c **** 	/* Configure PLL based on settings from Clock DWR */
 575:.\Generated_Source\PSoC5/cyfitter_cfg.c **** 	CY_SET_XTND_REG16((void CYFAR *)(CYREG_FASTCLK_PLL_P), 0x0D1Fu);
 436              		.loc 1 575 0
 437 0040 314B     		ldr	r3, .L22+40
 438 0042 40F61F52 		movw	r2, #3359
 439 0046 1A80     		strh	r2, [r3]	@ movhi
 576:.\Generated_Source\PSoC5/cyfitter_cfg.c **** 	CY_SET_XTND_REG16((void CYFAR *)(CYREG_FASTCLK_PLL_CFG0), 0x1251u);
 440              		.loc 1 576 0
 441 0048 304B     		ldr	r3, .L22+44
 442 004a 41F25122 		movw	r2, #4689
 443 004e 1A80     		strh	r2, [r3]	@ movhi
 577:.\Generated_Source\PSoC5/cyfitter_cfg.c **** 	/* Wait up to 250us for the PLL to lock */
 578:.\Generated_Source\PSoC5/cyfitter_cfg.c **** 	pllLock = 0u;
 444              		.loc 1 578 0
 445 0050 0023     		movs	r3, #0
 446 0052 FB70     		strb	r3, [r7, #3]
ARM GAS  C:\Users\jthem\AppData\Local\Temp\ccnLl47M.s 			page 19


 579:.\Generated_Source\PSoC5/cyfitter_cfg.c **** 	for (timeout = 250u / 10u; (timeout > 0u) && (pllLock != 0x03u); timeout--)
 447              		.loc 1 579 0
 448 0054 1923     		movs	r3, #25
 449 0056 7B60     		str	r3, [r7, #4]
 450 0058 14E0     		b	.L18
 451              	.L20:
 580:.\Generated_Source\PSoC5/cyfitter_cfg.c **** 	{ 
 581:.\Generated_Source\PSoC5/cyfitter_cfg.c **** 		pllLock = 0x03u & ((uint8)((uint8)pllLock << 1) | ((CY_GET_XTND_REG8((void CYFAR *)CYREG_FASTCLK_
 452              		.loc 1 581 0 discriminator 4
 453 005a FB78     		ldrb	r3, [r7, #3]
 454 005c 5B00     		lsls	r3, r3, #1
 455 005e DAB2     		uxtb	r2, r3
 456 0060 2B4B     		ldr	r3, .L22+48
 457 0062 1B78     		ldrb	r3, [r3]
 458 0064 DBB2     		uxtb	r3, r3
 459 0066 03F00103 		and	r3, r3, #1
 460 006a DBB2     		uxtb	r3, r3
 461 006c 1343     		orrs	r3, r3, r2
 462 006e DBB2     		uxtb	r3, r3
 463 0070 03F00303 		and	r3, r3, #3
 464 0074 FB70     		strb	r3, [r7, #3]
 582:.\Generated_Source\PSoC5/cyfitter_cfg.c **** 		CyDelayCycles(10u * 48u); /* Delay 10us based on 48MHz clock */
 465              		.loc 1 582 0 discriminator 4
 466 0076 4FF4F070 		mov	r0, #480
 467 007a FFF7FEFF 		bl	CyDelayCycles
 579:.\Generated_Source\PSoC5/cyfitter_cfg.c **** 	for (timeout = 250u / 10u; (timeout > 0u) && (pllLock != 0x03u); timeout--)
 468              		.loc 1 579 0 discriminator 4
 469 007e 7B68     		ldr	r3, [r7, #4]
 470 0080 013B     		subs	r3, r3, #1
 471 0082 7B60     		str	r3, [r7, #4]
 472              	.L18:
 579:.\Generated_Source\PSoC5/cyfitter_cfg.c **** 	for (timeout = 250u / 10u; (timeout > 0u) && (pllLock != 0x03u); timeout--)
 473              		.loc 1 579 0 is_stmt 0 discriminator 1
 474 0084 7B68     		ldr	r3, [r7, #4]
 475 0086 002B     		cmp	r3, #0
 476 0088 02D0     		beq	.L19
 579:.\Generated_Source\PSoC5/cyfitter_cfg.c **** 	for (timeout = 250u / 10u; (timeout > 0u) && (pllLock != 0x03u); timeout--)
 477              		.loc 1 579 0 discriminator 3
 478 008a FB78     		ldrb	r3, [r7, #3]	@ zero_extendqisi2
 479 008c 032B     		cmp	r3, #3
 480 008e E4D1     		bne	.L20
 481              	.L19:
 583:.\Generated_Source\PSoC5/cyfitter_cfg.c **** 	}
 584:.\Generated_Source\PSoC5/cyfitter_cfg.c **** 	/* If we ran out of time the PLL didn't lock so go to the error function */
 585:.\Generated_Source\PSoC5/cyfitter_cfg.c **** 	if (timeout == 0u)
 482              		.loc 1 585 0 is_stmt 1
 483 0090 7B68     		ldr	r3, [r7, #4]
 484 0092 002B     		cmp	r3, #0
 485 0094 02D1     		bne	.L21
 586:.\Generated_Source\PSoC5/cyfitter_cfg.c **** 	{
 587:.\Generated_Source\PSoC5/cyfitter_cfg.c **** 		CyClockStartupError(CYCLOCKSTART_PLL_ERROR);
 486              		.loc 1 587 0
 487 0096 0320     		movs	r0, #3
 488 0098 FFF7FEFF 		bl	CyClockStartupError
 489              	.L21:
 588:.\Generated_Source\PSoC5/cyfitter_cfg.c **** 	}
 589:.\Generated_Source\PSoC5/cyfitter_cfg.c **** 
ARM GAS  C:\Users\jthem\AppData\Local\Temp\ccnLl47M.s 			page 20


 590:.\Generated_Source\PSoC5/cyfitter_cfg.c **** 	/* Configure Bus/Master Clock based on settings from Clock DWR */
 591:.\Generated_Source\PSoC5/cyfitter_cfg.c **** 	CY_SET_XTND_REG16((void CYFAR *)(CYREG_CLKDIST_MSTR0), 0x0100u);
 490              		.loc 1 591 0
 491 009c 1D4B     		ldr	r3, .L22+52
 492 009e 4FF48072 		mov	r2, #256
 493 00a2 1A80     		strh	r2, [r3]	@ movhi
 592:.\Generated_Source\PSoC5/cyfitter_cfg.c **** 	CY_SET_XTND_REG8((void CYFAR *)(CYREG_CLKDIST_MSTR0), 0x07u);
 494              		.loc 1 592 0
 495 00a4 1B4B     		ldr	r3, .L22+52
 496 00a6 0722     		movs	r2, #7
 497 00a8 1A70     		strb	r2, [r3]
 593:.\Generated_Source\PSoC5/cyfitter_cfg.c **** 	CY_SET_XTND_REG8((void CYFAR *)(CYREG_CLKDIST_BCFG0), 0x00u);
 498              		.loc 1 593 0
 499 00aa 1B4B     		ldr	r3, .L22+56
 500 00ac 0022     		movs	r2, #0
 501 00ae 1A70     		strb	r2, [r3]
 594:.\Generated_Source\PSoC5/cyfitter_cfg.c **** 	CY_SET_XTND_REG8((void CYFAR *)(CYREG_CLKDIST_BCFG2), 0x48u);
 502              		.loc 1 594 0
 503 00b0 1A4B     		ldr	r3, .L22+60
 504 00b2 4822     		movs	r2, #72
 505 00b4 1A70     		strb	r2, [r3]
 595:.\Generated_Source\PSoC5/cyfitter_cfg.c **** 	CY_SET_XTND_REG8((void CYFAR *)(CYREG_CLKDIST_MSTR0), 0x00u);
 506              		.loc 1 595 0
 507 00b6 174B     		ldr	r3, .L22+52
 508 00b8 0022     		movs	r2, #0
 509 00ba 1A70     		strb	r2, [r3]
 596:.\Generated_Source\PSoC5/cyfitter_cfg.c **** 
 597:.\Generated_Source\PSoC5/cyfitter_cfg.c **** 	/* Configure USB Clock based on settings from Clock DWR */
 598:.\Generated_Source\PSoC5/cyfitter_cfg.c **** 	CY_SET_XTND_REG8((void CYFAR *)(CYREG_CLKDIST_UCFG), 0x00u);
 510              		.loc 1 598 0
 511 00bc 184B     		ldr	r3, .L22+64
 512 00be 0022     		movs	r2, #0
 513 00c0 1A70     		strb	r2, [r3]
 599:.\Generated_Source\PSoC5/cyfitter_cfg.c **** 	CY_SET_XTND_REG8((void CYFAR *)(CYREG_CLKDIST_LD), 0x02u);
 514              		.loc 1 599 0
 515 00c2 184B     		ldr	r3, .L22+68
 516 00c4 0222     		movs	r2, #2
 517 00c6 1A70     		strb	r2, [r3]
 600:.\Generated_Source\PSoC5/cyfitter_cfg.c **** 
 601:.\Generated_Source\PSoC5/cyfitter_cfg.c **** 	CY_SET_XTND_REG8((void CYFAR *)(CYREG_PM_ACT_CFG2), ((CY_GET_XTND_REG8((void CYFAR *)CYREG_PM_ACT_
 518              		.loc 1 601 0
 519 00c8 174A     		ldr	r2, .L22+72
 520 00ca 174B     		ldr	r3, .L22+72
 521 00cc 1B78     		ldrb	r3, [r3]
 522 00ce DBB2     		uxtb	r3, r3
 523 00d0 43F00703 		orr	r3, r3, #7
 524 00d4 DBB2     		uxtb	r3, r3
 525 00d6 1370     		strb	r3, [r2]
 602:.\Generated_Source\PSoC5/cyfitter_cfg.c **** }
 526              		.loc 1 602 0
 527 00d8 0837     		adds	r7, r7, #8
 528              		.cfi_def_cfa_offset 8
 529 00da BD46     		mov	sp, r7
 530              		.cfi_def_cfa_register 13
 531              		@ sp needed
 532 00dc 80BD     		pop	{r7, pc}
 533              	.L23:
ARM GAS  C:\Users\jthem\AppData\Local\Temp\ccnLl47M.s 			page 21


 534 00de 00BF     		.align	2
 535              	.L22:
 536 00e0 80400040 		.word	1073758336
 537 00e4 82400040 		.word	1073758338
 538 00e8 84400040 		.word	1073758340
 539 00ec 86400040 		.word	1073758342
 540 00f0 88400040 		.word	1073758344
 541 00f4 8A400040 		.word	1073758346
 542 00f8 00430040 		.word	1073758976
 543 00fc 00420040 		.word	1073758720
 544 0100 A1460040 		.word	1073759905
 545 0104 0F010049 		.word	1224737039
 546 0108 22420040 		.word	1073758754
 547 010c 20420040 		.word	1073758752
 548 0110 25420040 		.word	1073758757
 549 0114 04400040 		.word	1073758212
 550 0118 06400040 		.word	1073758214
 551 011c 08400040 		.word	1073758216
 552 0120 09400040 		.word	1073758217
 553 0124 01400040 		.word	1073758209
 554 0128 A2430040 		.word	1073759138
 555              		.cfi_endproc
 556              	.LFE5:
 557              		.size	ClockSetup, .-ClockSetup
 558              		.section	.text.AnalogSetDefault,"ax",%progbits
 559              		.align	2
 560              		.thumb
 561              		.thumb_func
 562              		.type	AnalogSetDefault, %function
 563              	AnalogSetDefault:
 564              	.LFB6:
 603:.\Generated_Source\PSoC5/cyfitter_cfg.c **** 
 604:.\Generated_Source\PSoC5/cyfitter_cfg.c **** 
 605:.\Generated_Source\PSoC5/cyfitter_cfg.c **** /* Analog API Functions */
 606:.\Generated_Source\PSoC5/cyfitter_cfg.c **** 
 607:.\Generated_Source\PSoC5/cyfitter_cfg.c **** 
 608:.\Generated_Source\PSoC5/cyfitter_cfg.c **** /*******************************************************************************
 609:.\Generated_Source\PSoC5/cyfitter_cfg.c **** * Function Name: AnalogSetDefault
 610:.\Generated_Source\PSoC5/cyfitter_cfg.c **** ********************************************************************************
 611:.\Generated_Source\PSoC5/cyfitter_cfg.c **** *
 612:.\Generated_Source\PSoC5/cyfitter_cfg.c **** * Summary:
 613:.\Generated_Source\PSoC5/cyfitter_cfg.c **** *  Sets up the analog portions of the chip to default values based on chip
 614:.\Generated_Source\PSoC5/cyfitter_cfg.c **** *  configuration options from the project.
 615:.\Generated_Source\PSoC5/cyfitter_cfg.c **** *
 616:.\Generated_Source\PSoC5/cyfitter_cfg.c **** * Parameters:
 617:.\Generated_Source\PSoC5/cyfitter_cfg.c **** *  void
 618:.\Generated_Source\PSoC5/cyfitter_cfg.c **** *
 619:.\Generated_Source\PSoC5/cyfitter_cfg.c **** * Return:
 620:.\Generated_Source\PSoC5/cyfitter_cfg.c **** *  void
 621:.\Generated_Source\PSoC5/cyfitter_cfg.c **** *
 622:.\Generated_Source\PSoC5/cyfitter_cfg.c **** *******************************************************************************/
 623:.\Generated_Source\PSoC5/cyfitter_cfg.c **** static void AnalogSetDefault(void);
 624:.\Generated_Source\PSoC5/cyfitter_cfg.c **** static void AnalogSetDefault(void)
 625:.\Generated_Source\PSoC5/cyfitter_cfg.c **** {
 565              		.loc 1 625 0
 566              		.cfi_startproc
 567              		@ args = 0, pretend = 0, frame = 8
ARM GAS  C:\Users\jthem\AppData\Local\Temp\ccnLl47M.s 			page 22


 568              		@ frame_needed = 1, uses_anonymous_args = 0
 569              		@ link register save eliminated.
 570 0000 80B4     		push	{r7}
 571              		.cfi_def_cfa_offset 4
 572              		.cfi_offset 7, -4
 573 0002 83B0     		sub	sp, sp, #12
 574              		.cfi_def_cfa_offset 16
 575 0004 00AF     		add	r7, sp, #0
 576              		.cfi_def_cfa_register 7
 626:.\Generated_Source\PSoC5/cyfitter_cfg.c **** 	uint8 bg_xover_inl_trim = CY_GET_XTND_REG8((void CYFAR *)(CYREG_FLSHID_MFG_CFG_BG_XOVER_INL_TRIM +
 577              		.loc 1 626 0
 578 0006 204B     		ldr	r3, .L25
 579 0008 1B78     		ldrb	r3, [r3]
 580 000a FB71     		strb	r3, [r7, #7]
 627:.\Generated_Source\PSoC5/cyfitter_cfg.c **** 	CY_SET_XTND_REG8((void CYFAR *)(CYREG_BG_DFT0), (bg_xover_inl_trim & 0x07u));
 581              		.loc 1 627 0
 582 000c 1F4A     		ldr	r2, .L25+4
 583 000e FB79     		ldrb	r3, [r7, #7]
 584 0010 03F00703 		and	r3, r3, #7
 585 0014 DBB2     		uxtb	r3, r3
 586 0016 1370     		strb	r3, [r2]
 628:.\Generated_Source\PSoC5/cyfitter_cfg.c **** 	CY_SET_XTND_REG8((void CYFAR *)(CYREG_BG_DFT1), ((bg_xover_inl_trim >> 4) & 0x0Fu));
 587              		.loc 1 628 0
 588 0018 1D4A     		ldr	r2, .L25+8
 589 001a FB79     		ldrb	r3, [r7, #7]	@ zero_extendqisi2
 590 001c 1B09     		lsrs	r3, r3, #4
 591 001e DBB2     		uxtb	r3, r3
 592 0020 1370     		strb	r3, [r2]
 629:.\Generated_Source\PSoC5/cyfitter_cfg.c **** 	CY_SET_XTND_REG8((void CYFAR *)CYREG_PRT3_AG, 0x12u);
 593              		.loc 1 629 0
 594 0022 1C4B     		ldr	r3, .L25+12
 595 0024 1222     		movs	r2, #18
 596 0026 1A70     		strb	r2, [r3]
 630:.\Generated_Source\PSoC5/cyfitter_cfg.c **** 	CY_SET_XTND_REG8((void CYFAR *)CYREG_SC1_SW4, 0x45u);
 597              		.loc 1 630 0
 598 0028 1B4B     		ldr	r3, .L25+16
 599 002a 4522     		movs	r2, #69
 600 002c 1A70     		strb	r2, [r3]
 631:.\Generated_Source\PSoC5/cyfitter_cfg.c **** 	CY_SET_XTND_REG8((void CYFAR *)CYREG_SC1_SW6, 0x01u);
 601              		.loc 1 631 0
 602 002e 1B4B     		ldr	r3, .L25+20
 603 0030 0122     		movs	r2, #1
 604 0032 1A70     		strb	r2, [r3]
 632:.\Generated_Source\PSoC5/cyfitter_cfg.c **** 	CY_SET_XTND_REG8((void CYFAR *)CYREG_SC2_SW0, 0x02u);
 605              		.loc 1 632 0
 606 0034 1A4B     		ldr	r3, .L25+24
 607 0036 0222     		movs	r2, #2
 608 0038 1A70     		strb	r2, [r3]
 633:.\Generated_Source\PSoC5/cyfitter_cfg.c **** 	CY_SET_XTND_REG8((void CYFAR *)CYREG_SC2_SW2, 0x04u);
 609              		.loc 1 633 0
 610 003a 1A4B     		ldr	r3, .L25+28
 611 003c 0422     		movs	r2, #4
 612 003e 1A70     		strb	r2, [r3]
 634:.\Generated_Source\PSoC5/cyfitter_cfg.c **** 	CY_SET_XTND_REG8((void CYFAR *)CYREG_DAC0_SW3, 0x80u);
 613              		.loc 1 634 0
 614 0040 194B     		ldr	r3, .L25+32
 615 0042 8022     		movs	r2, #128
ARM GAS  C:\Users\jthem\AppData\Local\Temp\ccnLl47M.s 			page 23


 616 0044 1A70     		strb	r2, [r3]
 635:.\Generated_Source\PSoC5/cyfitter_cfg.c **** 	CY_SET_XTND_REG8((void CYFAR *)CYREG_DAC0_SW4, 0x02u);
 617              		.loc 1 635 0
 618 0046 194B     		ldr	r3, .L25+36
 619 0048 0222     		movs	r2, #2
 620 004a 1A70     		strb	r2, [r3]
 636:.\Generated_Source\PSoC5/cyfitter_cfg.c **** 	CY_SET_XTND_REG8((void CYFAR *)CYREG_DAC1_SW4, 0x03u);
 621              		.loc 1 636 0
 622 004c 184B     		ldr	r3, .L25+40
 623 004e 0322     		movs	r2, #3
 624 0050 1A70     		strb	r2, [r3]
 637:.\Generated_Source\PSoC5/cyfitter_cfg.c **** 	CY_SET_XTND_REG8((void CYFAR *)CYREG_DAC2_SW3, 0x01u);
 625              		.loc 1 637 0
 626 0052 184B     		ldr	r3, .L25+44
 627 0054 0122     		movs	r2, #1
 628 0056 1A70     		strb	r2, [r3]
 638:.\Generated_Source\PSoC5/cyfitter_cfg.c **** 	CY_SET_XTND_REG8((void CYFAR *)CYREG_DAC3_SW2, 0x01u);
 629              		.loc 1 638 0
 630 0058 174B     		ldr	r3, .L25+48
 631 005a 0122     		movs	r2, #1
 632 005c 1A70     		strb	r2, [r3]
 639:.\Generated_Source\PSoC5/cyfitter_cfg.c **** 	CY_SET_XTND_REG8((void CYFAR *)CYREG_DSM0_SW0, 0xF8u);
 633              		.loc 1 639 0
 634 005e 174B     		ldr	r3, .L25+52
 635 0060 F822     		movs	r2, #248
 636 0062 1A70     		strb	r2, [r3]
 640:.\Generated_Source\PSoC5/cyfitter_cfg.c **** 	CY_SET_XTND_REG8((void CYFAR *)CYREG_DSM0_SW2, 0x01u);
 637              		.loc 1 640 0
 638 0064 164B     		ldr	r3, .L25+56
 639 0066 0122     		movs	r2, #1
 640 0068 1A70     		strb	r2, [r3]
 641:.\Generated_Source\PSoC5/cyfitter_cfg.c **** 	CY_SET_XTND_REG8((void CYFAR *)CYREG_BUS_SW0, 0x88u);
 641              		.loc 1 641 0
 642 006a 164B     		ldr	r3, .L25+60
 643 006c 8822     		movs	r2, #136
 644 006e 1A70     		strb	r2, [r3]
 642:.\Generated_Source\PSoC5/cyfitter_cfg.c **** 	CY_SET_XTND_REG16((void CYFAR *)CYREG_BUS_SW2, 0x0101u);
 645              		.loc 1 642 0
 646 0070 154B     		ldr	r3, .L25+64
 647 0072 40F20112 		movw	r2, #257
 648 0076 1A80     		strh	r2, [r3]	@ movhi
 643:.\Generated_Source\PSoC5/cyfitter_cfg.c **** 	CY_SET_XTND_REG8((void CYFAR *)CYREG_PUMP_CR0, 0x44u);
 649              		.loc 1 643 0
 650 0078 144B     		ldr	r3, .L25+68
 651 007a 4422     		movs	r2, #68
 652 007c 1A70     		strb	r2, [r3]
 644:.\Generated_Source\PSoC5/cyfitter_cfg.c **** }
 653              		.loc 1 644 0
 654 007e 0C37     		adds	r7, r7, #12
 655              		.cfi_def_cfa_offset 4
 656 0080 BD46     		mov	sp, r7
 657              		.cfi_def_cfa_register 13
 658              		@ sp needed
 659 0082 5DF8047B 		ldr	r7, [sp], #4
 660              		.cfi_restore 7
 661              		.cfi_def_cfa_offset 0
 662 0086 7047     		bx	lr
ARM GAS  C:\Users\jthem\AppData\Local\Temp\ccnLl47M.s 			page 24


 663              	.L26:
 664              		.align	2
 665              	.L25:
 666 0088 CF010049 		.word	1224737231
 667 008c 6E580040 		.word	1073764462
 668 0090 6F580040 		.word	1073764463
 669 0094 3D510040 		.word	1073762621
 670 0098 145A0040 		.word	1073764884
 671 009c 165A0040 		.word	1073764886
 672 00a0 205A0040 		.word	1073764896
 673 00a4 225A0040 		.word	1073764898
 674 00a8 835A0040 		.word	1073764995
 675 00ac 845A0040 		.word	1073764996
 676 00b0 8C5A0040 		.word	1073765004
 677 00b4 935A0040 		.word	1073765011
 678 00b8 9A5A0040 		.word	1073765018
 679 00bc 005B0040 		.word	1073765120
 680 00c0 025B0040 		.word	1073765122
 681 00c4 585B0040 		.word	1073765208
 682 00c8 5A5B0040 		.word	1073765210
 683 00cc 76580040 		.word	1073764470
 684              		.cfi_endproc
 685              	.LFE6:
 686              		.size	AnalogSetDefault, .-AnalogSetDefault
 687              		.section	.text.SetAnalogRoutingPumps,"ax",%progbits
 688              		.align	2
 689              		.global	SetAnalogRoutingPumps
 690              		.thumb
 691              		.thumb_func
 692              		.type	SetAnalogRoutingPumps, %function
 693              	SetAnalogRoutingPumps:
 694              	.LFB7:
 645:.\Generated_Source\PSoC5/cyfitter_cfg.c **** 
 646:.\Generated_Source\PSoC5/cyfitter_cfg.c **** 
 647:.\Generated_Source\PSoC5/cyfitter_cfg.c **** /*******************************************************************************
 648:.\Generated_Source\PSoC5/cyfitter_cfg.c **** * Function Name: SetAnalogRoutingPumps
 649:.\Generated_Source\PSoC5/cyfitter_cfg.c **** ********************************************************************************
 650:.\Generated_Source\PSoC5/cyfitter_cfg.c **** *
 651:.\Generated_Source\PSoC5/cyfitter_cfg.c **** * Summary:
 652:.\Generated_Source\PSoC5/cyfitter_cfg.c **** * Enables or disables the analog pumps feeding analog routing switches.
 653:.\Generated_Source\PSoC5/cyfitter_cfg.c **** * Intended to be called at startup, based on the Vdda system configuration;
 654:.\Generated_Source\PSoC5/cyfitter_cfg.c **** * may be called during operation when the user informs us that the Vdda voltage
 655:.\Generated_Source\PSoC5/cyfitter_cfg.c **** * crossed the pump threshold.
 656:.\Generated_Source\PSoC5/cyfitter_cfg.c **** *
 657:.\Generated_Source\PSoC5/cyfitter_cfg.c **** * Parameters:
 658:.\Generated_Source\PSoC5/cyfitter_cfg.c **** *  enabled - 1 to enable the pumps, 0 to disable the pumps
 659:.\Generated_Source\PSoC5/cyfitter_cfg.c **** *
 660:.\Generated_Source\PSoC5/cyfitter_cfg.c **** * Return:
 661:.\Generated_Source\PSoC5/cyfitter_cfg.c **** *  void
 662:.\Generated_Source\PSoC5/cyfitter_cfg.c **** *
 663:.\Generated_Source\PSoC5/cyfitter_cfg.c **** *******************************************************************************/
 664:.\Generated_Source\PSoC5/cyfitter_cfg.c **** void SetAnalogRoutingPumps(uint8 enabled)
 665:.\Generated_Source\PSoC5/cyfitter_cfg.c **** {
 695              		.loc 1 665 0
 696              		.cfi_startproc
 697              		@ args = 0, pretend = 0, frame = 16
 698              		@ frame_needed = 1, uses_anonymous_args = 0
ARM GAS  C:\Users\jthem\AppData\Local\Temp\ccnLl47M.s 			page 25


 699              		@ link register save eliminated.
 700 0000 80B4     		push	{r7}
 701              		.cfi_def_cfa_offset 4
 702              		.cfi_offset 7, -4
 703 0002 85B0     		sub	sp, sp, #20
 704              		.cfi_def_cfa_offset 24
 705 0004 00AF     		add	r7, sp, #0
 706              		.cfi_def_cfa_register 7
 707 0006 0346     		mov	r3, r0
 708 0008 FB71     		strb	r3, [r7, #7]
 666:.\Generated_Source\PSoC5/cyfitter_cfg.c **** 	uint8 regValue = CY_GET_XTND_REG8((void CYFAR *)CYREG_PUMP_CR0);
 709              		.loc 1 666 0
 710 000a 0B4B     		ldr	r3, .L30
 711 000c 1B78     		ldrb	r3, [r3]
 712 000e FB73     		strb	r3, [r7, #15]
 667:.\Generated_Source\PSoC5/cyfitter_cfg.c **** 	if (enabled != 0u)
 713              		.loc 1 667 0
 714 0010 FB79     		ldrb	r3, [r7, #7]	@ zero_extendqisi2
 715 0012 002B     		cmp	r3, #0
 716 0014 04D0     		beq	.L28
 668:.\Generated_Source\PSoC5/cyfitter_cfg.c **** 	{
 669:.\Generated_Source\PSoC5/cyfitter_cfg.c **** 		regValue |= 0x22u;
 717              		.loc 1 669 0
 718 0016 FB7B     		ldrb	r3, [r7, #15]
 719 0018 43F02203 		orr	r3, r3, #34
 720 001c FB73     		strb	r3, [r7, #15]
 721 001e 03E0     		b	.L29
 722              	.L28:
 670:.\Generated_Source\PSoC5/cyfitter_cfg.c **** 	}
 671:.\Generated_Source\PSoC5/cyfitter_cfg.c **** 	else
 672:.\Generated_Source\PSoC5/cyfitter_cfg.c **** 	{
 673:.\Generated_Source\PSoC5/cyfitter_cfg.c **** 		regValue &= (uint8)~0x22u;
 723              		.loc 1 673 0
 724 0020 FB7B     		ldrb	r3, [r7, #15]
 725 0022 23F02203 		bic	r3, r3, #34
 726 0026 FB73     		strb	r3, [r7, #15]
 727              	.L29:
 674:.\Generated_Source\PSoC5/cyfitter_cfg.c **** 	}
 675:.\Generated_Source\PSoC5/cyfitter_cfg.c **** 	CY_SET_XTND_REG8((void CYFAR *)CYREG_PUMP_CR0, regValue);
 728              		.loc 1 675 0
 729 0028 034A     		ldr	r2, .L30
 730 002a FB7B     		ldrb	r3, [r7, #15]
 731 002c 1370     		strb	r3, [r2]
 676:.\Generated_Source\PSoC5/cyfitter_cfg.c **** }
 732              		.loc 1 676 0
 733 002e 1437     		adds	r7, r7, #20
 734              		.cfi_def_cfa_offset 4
 735 0030 BD46     		mov	sp, r7
 736              		.cfi_def_cfa_register 13
 737              		@ sp needed
 738 0032 5DF8047B 		ldr	r7, [sp], #4
 739              		.cfi_restore 7
 740              		.cfi_def_cfa_offset 0
 741 0036 7047     		bx	lr
 742              	.L31:
 743              		.align	2
 744              	.L30:
ARM GAS  C:\Users\jthem\AppData\Local\Temp\ccnLl47M.s 			page 26


 745 0038 76580040 		.word	1073764470
 746              		.cfi_endproc
 747              	.LFE7:
 748              		.size	SetAnalogRoutingPumps, .-SetAnalogRoutingPumps
 749              		.global	WaveDAC_0_Mux__addrTable
 750              		.section	.rodata
 751              		.align	2
 752              		.type	WaveDAC_0_Mux__addrTable, %object
 753              		.size	WaveDAC_0_Mux__addrTable, 256
 754              	WaveDAC_0_Mux__addrTable:
 755 0000 4D510040 		.word	1073762637
 756 0004 24430040 		.word	1073759012
 757 0008 4D510040 		.word	1073762637
 758 000c 24430040 		.word	1073759012
 759 0010 4D510040 		.word	1073762637
 760 0014 24430040 		.word	1073759012
 761 0018 4D510040 		.word	1073762637
 762 001c 24430040 		.word	1073759012
 763 0020 4D510040 		.word	1073762637
 764 0024 24430040 		.word	1073759012
 765 0028 4D510040 		.word	1073762637
 766 002c 24430040 		.word	1073759012
 767 0030 4D510040 		.word	1073762637
 768 0034 24430040 		.word	1073759012
 769 0038 4D510040 		.word	1073762637
 770 003c 24430040 		.word	1073759012
 771 0040 0D510040 		.word	1073762573
 772 0044 24430040 		.word	1073759012
 773 0048 0D510040 		.word	1073762573
 774 004c 24430040 		.word	1073759012
 775 0050 0D510040 		.word	1073762573
 776 0054 24430040 		.word	1073759012
 777 0058 0D510040 		.word	1073762573
 778 005c 24430040 		.word	1073759012
 779 0060 0D510040 		.word	1073762573
 780 0064 24430040 		.word	1073759012
 781 0068 0D510040 		.word	1073762573
 782 006c 24430040 		.word	1073759012
 783 0070 005B0040 		.word	1073765120
 784 0074 24430040 		.word	1073759012
 785 0078 0D510040 		.word	1073762573
 786 007c 24430040 		.word	1073759012
 787 0080 8B5A0040 		.word	1073765003
 788 0084 24430040 		.word	1073759012
 789 0088 985A0040 		.word	1073765016
 790 008c 24430040 		.word	1073759012
 791 0090 3D510040 		.word	1073762621
 792 0094 24430040 		.word	1073759012
 793 0098 3D510040 		.word	1073762621
 794 009c 24430040 		.word	1073759012
 795 00a0 145A0040 		.word	1073764884
 796 00a4 24430040 		.word	1073759012
 797 00a8 435B0040 		.word	1073765187
 798 00ac 425B0040 		.word	1073765186
 799 00b0 3D510040 		.word	1073762621
 800 00b4 24430040 		.word	1073759012
 801 00b8 3D510040 		.word	1073762621
ARM GAS  C:\Users\jthem\AppData\Local\Temp\ccnLl47M.s 			page 27


 802 00bc 24430040 		.word	1073759012
 803 00c0 5D510040 		.word	1073762653
 804 00c4 24430040 		.word	1073759012
 805 00c8 5D510040 		.word	1073762653
 806 00cc 24430040 		.word	1073759012
 807 00d0 5D510040 		.word	1073762653
 808 00d4 24430040 		.word	1073759012
 809 00d8 5D510040 		.word	1073762653
 810 00dc 24430040 		.word	1073759012
 811 00e0 5D510040 		.word	1073762653
 812 00e4 24430040 		.word	1073759012
 813 00e8 5D510040 		.word	1073762653
 814 00ec 24430040 		.word	1073759012
 815 00f0 5D510040 		.word	1073762653
 816 00f4 24430040 		.word	1073759012
 817 00f8 5D510040 		.word	1073762653
 818 00fc 24430040 		.word	1073759012
 819              		.global	WaveDAC_0_Mux__maskTable
 820              		.align	2
 821              		.type	WaveDAC_0_Mux__maskTable, %object
 822              		.size	WaveDAC_0_Mux__maskTable, 64
 823              	WaveDAC_0_Mux__maskTable:
 824 0100 01       		.byte	1
 825 0101 00       		.byte	0
 826 0102 02       		.byte	2
 827 0103 00       		.byte	0
 828 0104 04       		.byte	4
 829 0105 00       		.byte	0
 830 0106 08       		.byte	8
 831 0107 00       		.byte	0
 832 0108 10       		.byte	16
 833 0109 00       		.byte	0
 834 010a 20       		.byte	32
 835 010b 00       		.byte	0
 836 010c 40       		.byte	64
 837 010d 00       		.byte	0
 838 010e 80       		.byte	-128
 839 010f 00       		.byte	0
 840 0110 01       		.byte	1
 841 0111 00       		.byte	0
 842 0112 02       		.byte	2
 843 0113 00       		.byte	0
 844 0114 04       		.byte	4
 845 0115 00       		.byte	0
 846 0116 08       		.byte	8
 847 0117 00       		.byte	0
 848 0118 10       		.byte	16
 849 0119 00       		.byte	0
 850 011a 20       		.byte	32
 851 011b 00       		.byte	0
 852 011c 02       		.byte	2
 853 011d 00       		.byte	0
 854 011e 80       		.byte	-128
 855 011f 00       		.byte	0
 856 0120 80       		.byte	-128
 857 0121 00       		.byte	0
 858 0122 20       		.byte	32
ARM GAS  C:\Users\jthem\AppData\Local\Temp\ccnLl47M.s 			page 28


 859 0123 00       		.byte	0
 860 0124 04       		.byte	4
 861 0125 00       		.byte	0
 862 0126 08       		.byte	8
 863 0127 00       		.byte	0
 864 0128 10       		.byte	16
 865 0129 00       		.byte	0
 866 012a 04       		.byte	4
 867 012b 04       		.byte	4
 868 012c 40       		.byte	64
 869 012d 00       		.byte	0
 870 012e 80       		.byte	-128
 871 012f 00       		.byte	0
 872 0130 01       		.byte	1
 873 0131 00       		.byte	0
 874 0132 02       		.byte	2
 875 0133 00       		.byte	0
 876 0134 04       		.byte	4
 877 0135 00       		.byte	0
 878 0136 08       		.byte	8
 879 0137 00       		.byte	0
 880 0138 10       		.byte	16
 881 0139 00       		.byte	0
 882 013a 20       		.byte	32
 883 013b 00       		.byte	0
 884 013c 40       		.byte	64
 885 013d 00       		.byte	0
 886 013e 80       		.byte	-128
 887 013f 00       		.byte	0
 888              		.section	.text.WaveDAC_0_Mux_Set,"ax",%progbits
 889              		.align	2
 890              		.global	WaveDAC_0_Mux_Set
 891              		.thumb
 892              		.thumb_func
 893              		.type	WaveDAC_0_Mux_Set, %function
 894              	WaveDAC_0_Mux_Set:
 895              	.LFB8:
 677:.\Generated_Source\PSoC5/cyfitter_cfg.c **** 
 678:.\Generated_Source\PSoC5/cyfitter_cfg.c **** #define CY_AMUX_UNUSED CYREG_BOOST_SR
 679:.\Generated_Source\PSoC5/cyfitter_cfg.c **** /* This is an implementation detail of the AMux. Code that depends on it may be
 680:.\Generated_Source\PSoC5/cyfitter_cfg.c ****    incompatible with other versions of PSoC Creator. */
 681:.\Generated_Source\PSoC5/cyfitter_cfg.c **** uint8 CYXDATA * const CYCODE WaveDAC_0_Mux__addrTable[64] = {
 682:.\Generated_Source\PSoC5/cyfitter_cfg.c **** 	(uint8 CYXDATA *)CYREG_PRT4_AG, (uint8 CYXDATA *)CY_AMUX_UNUSED, 
 683:.\Generated_Source\PSoC5/cyfitter_cfg.c **** 	(uint8 CYXDATA *)CYREG_PRT4_AG, (uint8 CYXDATA *)CY_AMUX_UNUSED, 
 684:.\Generated_Source\PSoC5/cyfitter_cfg.c **** 	(uint8 CYXDATA *)CYREG_PRT4_AG, (uint8 CYXDATA *)CY_AMUX_UNUSED, 
 685:.\Generated_Source\PSoC5/cyfitter_cfg.c **** 	(uint8 CYXDATA *)CYREG_PRT4_AG, (uint8 CYXDATA *)CY_AMUX_UNUSED, 
 686:.\Generated_Source\PSoC5/cyfitter_cfg.c **** 	(uint8 CYXDATA *)CYREG_PRT4_AG, (uint8 CYXDATA *)CY_AMUX_UNUSED, 
 687:.\Generated_Source\PSoC5/cyfitter_cfg.c **** 	(uint8 CYXDATA *)CYREG_PRT4_AG, (uint8 CYXDATA *)CY_AMUX_UNUSED, 
 688:.\Generated_Source\PSoC5/cyfitter_cfg.c **** 	(uint8 CYXDATA *)CYREG_PRT4_AG, (uint8 CYXDATA *)CY_AMUX_UNUSED, 
 689:.\Generated_Source\PSoC5/cyfitter_cfg.c **** 	(uint8 CYXDATA *)CYREG_PRT4_AG, (uint8 CYXDATA *)CY_AMUX_UNUSED, 
 690:.\Generated_Source\PSoC5/cyfitter_cfg.c **** 	(uint8 CYXDATA *)CYREG_PRT0_AG, (uint8 CYXDATA *)CY_AMUX_UNUSED, 
 691:.\Generated_Source\PSoC5/cyfitter_cfg.c **** 	(uint8 CYXDATA *)CYREG_PRT0_AG, (uint8 CYXDATA *)CY_AMUX_UNUSED, 
 692:.\Generated_Source\PSoC5/cyfitter_cfg.c **** 	(uint8 CYXDATA *)CYREG_PRT0_AG, (uint8 CYXDATA *)CY_AMUX_UNUSED, 
 693:.\Generated_Source\PSoC5/cyfitter_cfg.c **** 	(uint8 CYXDATA *)CYREG_PRT0_AG, (uint8 CYXDATA *)CY_AMUX_UNUSED, 
 694:.\Generated_Source\PSoC5/cyfitter_cfg.c **** 	(uint8 CYXDATA *)CYREG_PRT0_AG, (uint8 CYXDATA *)CY_AMUX_UNUSED, 
 695:.\Generated_Source\PSoC5/cyfitter_cfg.c **** 	(uint8 CYXDATA *)CYREG_PRT0_AG, (uint8 CYXDATA *)CY_AMUX_UNUSED, 
 696:.\Generated_Source\PSoC5/cyfitter_cfg.c **** 	(uint8 CYXDATA *)CYREG_DSM0_SW0, (uint8 CYXDATA *)CY_AMUX_UNUSED, 
ARM GAS  C:\Users\jthem\AppData\Local\Temp\ccnLl47M.s 			page 29


 697:.\Generated_Source\PSoC5/cyfitter_cfg.c **** 	(uint8 CYXDATA *)CYREG_PRT0_AG, (uint8 CYXDATA *)CY_AMUX_UNUSED, 
 698:.\Generated_Source\PSoC5/cyfitter_cfg.c **** 	(uint8 CYXDATA *)CYREG_DAC1_SW3, (uint8 CYXDATA *)CY_AMUX_UNUSED, 
 699:.\Generated_Source\PSoC5/cyfitter_cfg.c **** 	(uint8 CYXDATA *)CYREG_DAC3_SW0, (uint8 CYXDATA *)CY_AMUX_UNUSED, 
 700:.\Generated_Source\PSoC5/cyfitter_cfg.c **** 	(uint8 CYXDATA *)CYREG_PRT3_AG, (uint8 CYXDATA *)CY_AMUX_UNUSED, 
 701:.\Generated_Source\PSoC5/cyfitter_cfg.c **** 	(uint8 CYXDATA *)CYREG_PRT3_AG, (uint8 CYXDATA *)CY_AMUX_UNUSED, 
 702:.\Generated_Source\PSoC5/cyfitter_cfg.c **** 	(uint8 CYXDATA *)CYREG_SC1_SW4, (uint8 CYXDATA *)CY_AMUX_UNUSED, 
 703:.\Generated_Source\PSoC5/cyfitter_cfg.c **** 	(uint8 CYXDATA *)CYREG_OPAMP1_SW, (uint8 CYXDATA *)CYREG_OPAMP1_MX, 
 704:.\Generated_Source\PSoC5/cyfitter_cfg.c **** 	(uint8 CYXDATA *)CYREG_PRT3_AG, (uint8 CYXDATA *)CY_AMUX_UNUSED, 
 705:.\Generated_Source\PSoC5/cyfitter_cfg.c **** 	(uint8 CYXDATA *)CYREG_PRT3_AG, (uint8 CYXDATA *)CY_AMUX_UNUSED, 
 706:.\Generated_Source\PSoC5/cyfitter_cfg.c **** 	(uint8 CYXDATA *)CYREG_PRT5_AG, (uint8 CYXDATA *)CY_AMUX_UNUSED, 
 707:.\Generated_Source\PSoC5/cyfitter_cfg.c **** 	(uint8 CYXDATA *)CYREG_PRT5_AG, (uint8 CYXDATA *)CY_AMUX_UNUSED, 
 708:.\Generated_Source\PSoC5/cyfitter_cfg.c **** 	(uint8 CYXDATA *)CYREG_PRT5_AG, (uint8 CYXDATA *)CY_AMUX_UNUSED, 
 709:.\Generated_Source\PSoC5/cyfitter_cfg.c **** 	(uint8 CYXDATA *)CYREG_PRT5_AG, (uint8 CYXDATA *)CY_AMUX_UNUSED, 
 710:.\Generated_Source\PSoC5/cyfitter_cfg.c **** 	(uint8 CYXDATA *)CYREG_PRT5_AG, (uint8 CYXDATA *)CY_AMUX_UNUSED, 
 711:.\Generated_Source\PSoC5/cyfitter_cfg.c **** 	(uint8 CYXDATA *)CYREG_PRT5_AG, (uint8 CYXDATA *)CY_AMUX_UNUSED, 
 712:.\Generated_Source\PSoC5/cyfitter_cfg.c **** 	(uint8 CYXDATA *)CYREG_PRT5_AG, (uint8 CYXDATA *)CY_AMUX_UNUSED, 
 713:.\Generated_Source\PSoC5/cyfitter_cfg.c **** 	(uint8 CYXDATA *)CYREG_PRT5_AG, (uint8 CYXDATA *)CY_AMUX_UNUSED, 
 714:.\Generated_Source\PSoC5/cyfitter_cfg.c **** };
 715:.\Generated_Source\PSoC5/cyfitter_cfg.c **** 
 716:.\Generated_Source\PSoC5/cyfitter_cfg.c **** /* This is an implementation detail of the AMux. Code that depends on it may be
 717:.\Generated_Source\PSoC5/cyfitter_cfg.c ****    incompatible with other versions of PSoC Creator. */
 718:.\Generated_Source\PSoC5/cyfitter_cfg.c **** const uint8 CYCODE WaveDAC_0_Mux__maskTable[64] = {
 719:.\Generated_Source\PSoC5/cyfitter_cfg.c **** 	0x01u, 0x00u, 
 720:.\Generated_Source\PSoC5/cyfitter_cfg.c **** 	0x02u, 0x00u, 
 721:.\Generated_Source\PSoC5/cyfitter_cfg.c **** 	0x04u, 0x00u, 
 722:.\Generated_Source\PSoC5/cyfitter_cfg.c **** 	0x08u, 0x00u, 
 723:.\Generated_Source\PSoC5/cyfitter_cfg.c **** 	0x10u, 0x00u, 
 724:.\Generated_Source\PSoC5/cyfitter_cfg.c **** 	0x20u, 0x00u, 
 725:.\Generated_Source\PSoC5/cyfitter_cfg.c **** 	0x40u, 0x00u, 
 726:.\Generated_Source\PSoC5/cyfitter_cfg.c **** 	0x80u, 0x00u, 
 727:.\Generated_Source\PSoC5/cyfitter_cfg.c **** 	0x01u, 0x00u, 
 728:.\Generated_Source\PSoC5/cyfitter_cfg.c **** 	0x02u, 0x00u, 
 729:.\Generated_Source\PSoC5/cyfitter_cfg.c **** 	0x04u, 0x00u, 
 730:.\Generated_Source\PSoC5/cyfitter_cfg.c **** 	0x08u, 0x00u, 
 731:.\Generated_Source\PSoC5/cyfitter_cfg.c **** 	0x10u, 0x00u, 
 732:.\Generated_Source\PSoC5/cyfitter_cfg.c **** 	0x20u, 0x00u, 
 733:.\Generated_Source\PSoC5/cyfitter_cfg.c **** 	0x02u, 0x00u, 
 734:.\Generated_Source\PSoC5/cyfitter_cfg.c **** 	0x80u, 0x00u, 
 735:.\Generated_Source\PSoC5/cyfitter_cfg.c **** 	0x80u, 0x00u, 
 736:.\Generated_Source\PSoC5/cyfitter_cfg.c **** 	0x20u, 0x00u, 
 737:.\Generated_Source\PSoC5/cyfitter_cfg.c **** 	0x04u, 0x00u, 
 738:.\Generated_Source\PSoC5/cyfitter_cfg.c **** 	0x08u, 0x00u, 
 739:.\Generated_Source\PSoC5/cyfitter_cfg.c **** 	0x10u, 0x00u, 
 740:.\Generated_Source\PSoC5/cyfitter_cfg.c **** 	0x04u, 0x04u, 
 741:.\Generated_Source\PSoC5/cyfitter_cfg.c **** 	0x40u, 0x00u, 
 742:.\Generated_Source\PSoC5/cyfitter_cfg.c **** 	0x80u, 0x00u, 
 743:.\Generated_Source\PSoC5/cyfitter_cfg.c **** 	0x01u, 0x00u, 
 744:.\Generated_Source\PSoC5/cyfitter_cfg.c **** 	0x02u, 0x00u, 
 745:.\Generated_Source\PSoC5/cyfitter_cfg.c **** 	0x04u, 0x00u, 
 746:.\Generated_Source\PSoC5/cyfitter_cfg.c **** 	0x08u, 0x00u, 
 747:.\Generated_Source\PSoC5/cyfitter_cfg.c **** 	0x10u, 0x00u, 
 748:.\Generated_Source\PSoC5/cyfitter_cfg.c **** 	0x20u, 0x00u, 
 749:.\Generated_Source\PSoC5/cyfitter_cfg.c **** 	0x40u, 0x00u, 
 750:.\Generated_Source\PSoC5/cyfitter_cfg.c **** 	0x80u, 0x00u, 
 751:.\Generated_Source\PSoC5/cyfitter_cfg.c **** };
 752:.\Generated_Source\PSoC5/cyfitter_cfg.c **** 
 753:.\Generated_Source\PSoC5/cyfitter_cfg.c **** /*******************************************************************************
ARM GAS  C:\Users\jthem\AppData\Local\Temp\ccnLl47M.s 			page 30


 754:.\Generated_Source\PSoC5/cyfitter_cfg.c **** * Function Name: WaveDAC_0_Mux_Set
 755:.\Generated_Source\PSoC5/cyfitter_cfg.c **** ********************************************************************************
 756:.\Generated_Source\PSoC5/cyfitter_cfg.c **** * Summary:
 757:.\Generated_Source\PSoC5/cyfitter_cfg.c **** *  This function is used to set a particular channel as active on the AMux.
 758:.\Generated_Source\PSoC5/cyfitter_cfg.c **** *
 759:.\Generated_Source\PSoC5/cyfitter_cfg.c **** * Parameters:  
 760:.\Generated_Source\PSoC5/cyfitter_cfg.c **** *   channel - The mux channel input to set as active
 761:.\Generated_Source\PSoC5/cyfitter_cfg.c **** *
 762:.\Generated_Source\PSoC5/cyfitter_cfg.c **** * Return:
 763:.\Generated_Source\PSoC5/cyfitter_cfg.c **** *   void
 764:.\Generated_Source\PSoC5/cyfitter_cfg.c **** *
 765:.\Generated_Source\PSoC5/cyfitter_cfg.c **** *******************************************************************************/
 766:.\Generated_Source\PSoC5/cyfitter_cfg.c **** void WaveDAC_0_Mux_Set(uint8 channel)
 767:.\Generated_Source\PSoC5/cyfitter_cfg.c **** {
 896              		.loc 1 767 0
 897              		.cfi_startproc
 898              		@ args = 0, pretend = 0, frame = 8
 899              		@ frame_needed = 1, uses_anonymous_args = 0
 900              		@ link register save eliminated.
 901 0000 80B4     		push	{r7}
 902              		.cfi_def_cfa_offset 4
 903              		.cfi_offset 7, -4
 904 0002 83B0     		sub	sp, sp, #12
 905              		.cfi_def_cfa_offset 16
 906 0004 00AF     		add	r7, sp, #0
 907              		.cfi_def_cfa_register 7
 908 0006 0346     		mov	r3, r0
 909 0008 FB71     		strb	r3, [r7, #7]
 768:.\Generated_Source\PSoC5/cyfitter_cfg.c **** 	if (channel < 32)
 910              		.loc 1 768 0
 911 000a FB79     		ldrb	r3, [r7, #7]	@ zero_extendqisi2
 912 000c 1F2B     		cmp	r3, #31
 913 000e 24D8     		bhi	.L32
 769:.\Generated_Source\PSoC5/cyfitter_cfg.c **** 	{
 770:.\Generated_Source\PSoC5/cyfitter_cfg.c **** 		channel += channel;
 914              		.loc 1 770 0
 915 0010 FA79     		ldrb	r2, [r7, #7]
 916 0012 FB79     		ldrb	r3, [r7, #7]
 917 0014 1344     		add	r3, r3, r2
 918 0016 FB71     		strb	r3, [r7, #7]
 771:.\Generated_Source\PSoC5/cyfitter_cfg.c **** 		*WaveDAC_0_Mux__addrTable[channel] |= WaveDAC_0_Mux__maskTable[channel];
 919              		.loc 1 771 0
 920 0018 FB79     		ldrb	r3, [r7, #7]	@ zero_extendqisi2
 921 001a 124A     		ldr	r2, .L34
 922 001c 52F82330 		ldr	r3, [r2, r3, lsl #2]
 923 0020 FA79     		ldrb	r2, [r7, #7]	@ zero_extendqisi2
 924 0022 1049     		ldr	r1, .L34
 925 0024 51F82220 		ldr	r2, [r1, r2, lsl #2]
 926 0028 1178     		ldrb	r1, [r2]	@ zero_extendqisi2
 927 002a FA79     		ldrb	r2, [r7, #7]	@ zero_extendqisi2
 928 002c 0E48     		ldr	r0, .L34+4
 929 002e 825C     		ldrb	r2, [r0, r2]	@ zero_extendqisi2
 930 0030 0A43     		orrs	r2, r2, r1
 931 0032 D2B2     		uxtb	r2, r2
 932 0034 1A70     		strb	r2, [r3]
 772:.\Generated_Source\PSoC5/cyfitter_cfg.c **** 		channel++;
 933              		.loc 1 772 0
ARM GAS  C:\Users\jthem\AppData\Local\Temp\ccnLl47M.s 			page 31


 934 0036 FB79     		ldrb	r3, [r7, #7]	@ zero_extendqisi2
 935 0038 0133     		adds	r3, r3, #1
 936 003a FB71     		strb	r3, [r7, #7]
 773:.\Generated_Source\PSoC5/cyfitter_cfg.c **** 		*WaveDAC_0_Mux__addrTable[channel] |= WaveDAC_0_Mux__maskTable[channel];
 937              		.loc 1 773 0
 938 003c FB79     		ldrb	r3, [r7, #7]	@ zero_extendqisi2
 939 003e 094A     		ldr	r2, .L34
 940 0040 52F82330 		ldr	r3, [r2, r3, lsl #2]
 941 0044 FA79     		ldrb	r2, [r7, #7]	@ zero_extendqisi2
 942 0046 0749     		ldr	r1, .L34
 943 0048 51F82220 		ldr	r2, [r1, r2, lsl #2]
 944 004c 1178     		ldrb	r1, [r2]	@ zero_extendqisi2
 945 004e FA79     		ldrb	r2, [r7, #7]	@ zero_extendqisi2
 946 0050 0548     		ldr	r0, .L34+4
 947 0052 825C     		ldrb	r2, [r0, r2]	@ zero_extendqisi2
 948 0054 0A43     		orrs	r2, r2, r1
 949 0056 D2B2     		uxtb	r2, r2
 950 0058 1A70     		strb	r2, [r3]
 951              	.L32:
 774:.\Generated_Source\PSoC5/cyfitter_cfg.c **** 	}
 775:.\Generated_Source\PSoC5/cyfitter_cfg.c **** }
 952              		.loc 1 775 0
 953 005a 0C37     		adds	r7, r7, #12
 954              		.cfi_def_cfa_offset 4
 955 005c BD46     		mov	sp, r7
 956              		.cfi_def_cfa_register 13
 957              		@ sp needed
 958 005e 5DF8047B 		ldr	r7, [sp], #4
 959              		.cfi_restore 7
 960              		.cfi_def_cfa_offset 0
 961 0062 7047     		bx	lr
 962              	.L35:
 963              		.align	2
 964              	.L34:
 965 0064 00000000 		.word	WaveDAC_0_Mux__addrTable
 966 0068 00000000 		.word	WaveDAC_0_Mux__maskTable
 967              		.cfi_endproc
 968              	.LFE8:
 969              		.size	WaveDAC_0_Mux_Set, .-WaveDAC_0_Mux_Set
 970              		.section	.text.WaveDAC_0_Mux_Unset,"ax",%progbits
 971              		.align	2
 972              		.global	WaveDAC_0_Mux_Unset
 973              		.thumb
 974              		.thumb_func
 975              		.type	WaveDAC_0_Mux_Unset, %function
 976              	WaveDAC_0_Mux_Unset:
 977              	.LFB9:
 776:.\Generated_Source\PSoC5/cyfitter_cfg.c **** 
 777:.\Generated_Source\PSoC5/cyfitter_cfg.c **** /*******************************************************************************
 778:.\Generated_Source\PSoC5/cyfitter_cfg.c **** * Function Name: WaveDAC_0_Mux_Unset
 779:.\Generated_Source\PSoC5/cyfitter_cfg.c **** ********************************************************************************
 780:.\Generated_Source\PSoC5/cyfitter_cfg.c **** * Summary:
 781:.\Generated_Source\PSoC5/cyfitter_cfg.c **** *  This function is used to clear a particular channel from being active on the
 782:.\Generated_Source\PSoC5/cyfitter_cfg.c **** *  AMux.
 783:.\Generated_Source\PSoC5/cyfitter_cfg.c **** *
 784:.\Generated_Source\PSoC5/cyfitter_cfg.c **** * Parameters:  
 785:.\Generated_Source\PSoC5/cyfitter_cfg.c **** *   channel - The mux channel input to mark inactive
ARM GAS  C:\Users\jthem\AppData\Local\Temp\ccnLl47M.s 			page 32


 786:.\Generated_Source\PSoC5/cyfitter_cfg.c **** *
 787:.\Generated_Source\PSoC5/cyfitter_cfg.c **** * Return:
 788:.\Generated_Source\PSoC5/cyfitter_cfg.c **** *   void
 789:.\Generated_Source\PSoC5/cyfitter_cfg.c **** *
 790:.\Generated_Source\PSoC5/cyfitter_cfg.c **** *******************************************************************************/
 791:.\Generated_Source\PSoC5/cyfitter_cfg.c **** void WaveDAC_0_Mux_Unset(uint8 channel)
 792:.\Generated_Source\PSoC5/cyfitter_cfg.c **** {
 978              		.loc 1 792 0
 979              		.cfi_startproc
 980              		@ args = 0, pretend = 0, frame = 8
 981              		@ frame_needed = 1, uses_anonymous_args = 0
 982              		@ link register save eliminated.
 983 0000 80B4     		push	{r7}
 984              		.cfi_def_cfa_offset 4
 985              		.cfi_offset 7, -4
 986 0002 83B0     		sub	sp, sp, #12
 987              		.cfi_def_cfa_offset 16
 988 0004 00AF     		add	r7, sp, #0
 989              		.cfi_def_cfa_register 7
 990 0006 0346     		mov	r3, r0
 991 0008 FB71     		strb	r3, [r7, #7]
 793:.\Generated_Source\PSoC5/cyfitter_cfg.c **** 	if (channel < 32)
 992              		.loc 1 793 0
 993 000a FB79     		ldrb	r3, [r7, #7]	@ zero_extendqisi2
 994 000c 1F2B     		cmp	r3, #31
 995 000e 28D8     		bhi	.L36
 794:.\Generated_Source\PSoC5/cyfitter_cfg.c **** 	{
 795:.\Generated_Source\PSoC5/cyfitter_cfg.c **** 		channel += channel;
 996              		.loc 1 795 0
 997 0010 FA79     		ldrb	r2, [r7, #7]
 998 0012 FB79     		ldrb	r3, [r7, #7]
 999 0014 1344     		add	r3, r3, r2
 1000 0016 FB71     		strb	r3, [r7, #7]
 796:.\Generated_Source\PSoC5/cyfitter_cfg.c **** 		*WaveDAC_0_Mux__addrTable[channel] &= (uint8)~WaveDAC_0_Mux__maskTable[channel];
 1001              		.loc 1 796 0
 1002 0018 FB79     		ldrb	r3, [r7, #7]	@ zero_extendqisi2
 1003 001a 144A     		ldr	r2, .L38
 1004 001c 52F82330 		ldr	r3, [r2, r3, lsl #2]
 1005 0020 FA79     		ldrb	r2, [r7, #7]	@ zero_extendqisi2
 1006 0022 1249     		ldr	r1, .L38
 1007 0024 51F82220 		ldr	r2, [r1, r2, lsl #2]
 1008 0028 1178     		ldrb	r1, [r2]	@ zero_extendqisi2
 1009 002a FA79     		ldrb	r2, [r7, #7]	@ zero_extendqisi2
 1010 002c 1048     		ldr	r0, .L38+4
 1011 002e 825C     		ldrb	r2, [r0, r2]	@ zero_extendqisi2
 1012 0030 D243     		mvns	r2, r2
 1013 0032 D2B2     		uxtb	r2, r2
 1014 0034 0A40     		ands	r2, r2, r1
 1015 0036 D2B2     		uxtb	r2, r2
 1016 0038 1A70     		strb	r2, [r3]
 797:.\Generated_Source\PSoC5/cyfitter_cfg.c **** 		channel++;
 1017              		.loc 1 797 0
 1018 003a FB79     		ldrb	r3, [r7, #7]	@ zero_extendqisi2
 1019 003c 0133     		adds	r3, r3, #1
 1020 003e FB71     		strb	r3, [r7, #7]
 798:.\Generated_Source\PSoC5/cyfitter_cfg.c **** 		*WaveDAC_0_Mux__addrTable[channel] &= (uint8)~WaveDAC_0_Mux__maskTable[channel];
 1021              		.loc 1 798 0
ARM GAS  C:\Users\jthem\AppData\Local\Temp\ccnLl47M.s 			page 33


 1022 0040 FB79     		ldrb	r3, [r7, #7]	@ zero_extendqisi2
 1023 0042 0A4A     		ldr	r2, .L38
 1024 0044 52F82330 		ldr	r3, [r2, r3, lsl #2]
 1025 0048 FA79     		ldrb	r2, [r7, #7]	@ zero_extendqisi2
 1026 004a 0849     		ldr	r1, .L38
 1027 004c 51F82220 		ldr	r2, [r1, r2, lsl #2]
 1028 0050 1178     		ldrb	r1, [r2]	@ zero_extendqisi2
 1029 0052 FA79     		ldrb	r2, [r7, #7]	@ zero_extendqisi2
 1030 0054 0648     		ldr	r0, .L38+4
 1031 0056 825C     		ldrb	r2, [r0, r2]	@ zero_extendqisi2
 1032 0058 D243     		mvns	r2, r2
 1033 005a D2B2     		uxtb	r2, r2
 1034 005c 0A40     		ands	r2, r2, r1
 1035 005e D2B2     		uxtb	r2, r2
 1036 0060 1A70     		strb	r2, [r3]
 1037              	.L36:
 799:.\Generated_Source\PSoC5/cyfitter_cfg.c **** 	}
 800:.\Generated_Source\PSoC5/cyfitter_cfg.c **** }
 1038              		.loc 1 800 0
 1039 0062 0C37     		adds	r7, r7, #12
 1040              		.cfi_def_cfa_offset 4
 1041 0064 BD46     		mov	sp, r7
 1042              		.cfi_def_cfa_register 13
 1043              		@ sp needed
 1044 0066 5DF8047B 		ldr	r7, [sp], #4
 1045              		.cfi_restore 7
 1046              		.cfi_def_cfa_offset 0
 1047 006a 7047     		bx	lr
 1048              	.L39:
 1049              		.align	2
 1050              	.L38:
 1051 006c 00000000 		.word	WaveDAC_0_Mux__addrTable
 1052 0070 00000000 		.word	WaveDAC_0_Mux__maskTable
 1053              		.cfi_endproc
 1054              	.LFE9:
 1055              		.size	WaveDAC_0_Mux_Unset, .-WaveDAC_0_Mux_Unset
 1056              		.global	WaveDAC_1_Mux__addrTable
 1057              		.section	.rodata
 1058              		.align	2
 1059              		.type	WaveDAC_1_Mux__addrTable, %object
 1060              		.size	WaveDAC_1_Mux__addrTable, 256
 1061              	WaveDAC_1_Mux__addrTable:
 1062 0140 4C510040 		.word	1073762636
 1063 0144 24430040 		.word	1073759012
 1064 0148 4C510040 		.word	1073762636
 1065 014c 24430040 		.word	1073759012
 1066 0150 4C510040 		.word	1073762636
 1067 0154 24430040 		.word	1073759012
 1068 0158 4C510040 		.word	1073762636
 1069 015c 24430040 		.word	1073759012
 1070 0160 4C510040 		.word	1073762636
 1071 0164 24430040 		.word	1073759012
 1072 0168 4C510040 		.word	1073762636
 1073 016c 24430040 		.word	1073759012
 1074 0170 4C510040 		.word	1073762636
 1075 0174 24430040 		.word	1073759012
 1076 0178 4C510040 		.word	1073762636
ARM GAS  C:\Users\jthem\AppData\Local\Temp\ccnLl47M.s 			page 34


 1077 017c 24430040 		.word	1073759012
 1078 0180 0C510040 		.word	1073762572
 1079 0184 24430040 		.word	1073759012
 1080 0188 0C510040 		.word	1073762572
 1081 018c 24430040 		.word	1073759012
 1082 0190 0C510040 		.word	1073762572
 1083 0194 24430040 		.word	1073759012
 1084 0198 0C510040 		.word	1073762572
 1085 019c 24430040 		.word	1073759012
 1086 01a0 0C510040 		.word	1073762572
 1087 01a4 24430040 		.word	1073759012
 1088 01a8 0C510040 		.word	1073762572
 1089 01ac 24430040 		.word	1073759012
 1090 01b0 925A0040 		.word	1073765010
 1091 01b4 24430040 		.word	1073759012
 1092 01b8 0C510040 		.word	1073762572
 1093 01bc 24430040 		.word	1073759012
 1094 01c0 3C510040 		.word	1073762620
 1095 01c4 24430040 		.word	1073759012
 1096 01c8 3C510040 		.word	1073762620
 1097 01cc 24430040 		.word	1073759012
 1098 01d0 3C510040 		.word	1073762620
 1099 01d4 24430040 		.word	1073759012
 1100 01d8 3C510040 		.word	1073762620
 1101 01dc 24430040 		.word	1073759012
 1102 01e0 FD510040 		.word	1073762813
 1103 01e4 FC510040 		.word	1073762812
 1104 01e8 3C510040 		.word	1073762620
 1105 01ec 24430040 		.word	1073759012
 1106 01f0 3C510040 		.word	1073762620
 1107 01f4 24430040 		.word	1073759012
 1108 01f8 3C510040 		.word	1073762620
 1109 01fc 24430040 		.word	1073759012
 1110 0200 5C510040 		.word	1073762652
 1111 0204 24430040 		.word	1073759012
 1112 0208 5C510040 		.word	1073762652
 1113 020c 24430040 		.word	1073759012
 1114 0210 5C510040 		.word	1073762652
 1115 0214 24430040 		.word	1073759012
 1116 0218 5C510040 		.word	1073762652
 1117 021c 24430040 		.word	1073759012
 1118 0220 5C510040 		.word	1073762652
 1119 0224 24430040 		.word	1073759012
 1120 0228 5C510040 		.word	1073762652
 1121 022c 24430040 		.word	1073759012
 1122 0230 5C510040 		.word	1073762652
 1123 0234 24430040 		.word	1073759012
 1124 0238 5C510040 		.word	1073762652
 1125 023c 24430040 		.word	1073759012
 1126              		.global	WaveDAC_1_Mux__maskTable
 1127              		.align	2
 1128              		.type	WaveDAC_1_Mux__maskTable, %object
 1129              		.size	WaveDAC_1_Mux__maskTable, 64
 1130              	WaveDAC_1_Mux__maskTable:
 1131 0240 01       		.byte	1
 1132 0241 00       		.byte	0
 1133 0242 02       		.byte	2
ARM GAS  C:\Users\jthem\AppData\Local\Temp\ccnLl47M.s 			page 35


 1134 0243 00       		.byte	0
 1135 0244 04       		.byte	4
 1136 0245 00       		.byte	0
 1137 0246 08       		.byte	8
 1138 0247 00       		.byte	0
 1139 0248 10       		.byte	16
 1140 0249 00       		.byte	0
 1141 024a 20       		.byte	32
 1142 024b 00       		.byte	0
 1143 024c 40       		.byte	64
 1144 024d 00       		.byte	0
 1145 024e 80       		.byte	-128
 1146 024f 00       		.byte	0
 1147 0250 01       		.byte	1
 1148 0251 00       		.byte	0
 1149 0252 02       		.byte	2
 1150 0253 00       		.byte	0
 1151 0254 04       		.byte	4
 1152 0255 00       		.byte	0
 1153 0256 08       		.byte	8
 1154 0257 00       		.byte	0
 1155 0258 10       		.byte	16
 1156 0259 00       		.byte	0
 1157 025a 20       		.byte	32
 1158 025b 00       		.byte	0
 1159 025c 04       		.byte	4
 1160 025d 00       		.byte	0
 1161 025e 80       		.byte	-128
 1162 025f 00       		.byte	0
 1163 0260 01       		.byte	1
 1164 0261 00       		.byte	0
 1165 0262 02       		.byte	2
 1166 0263 00       		.byte	0
 1167 0264 04       		.byte	4
 1168 0265 00       		.byte	0
 1169 0266 08       		.byte	8
 1170 0267 00       		.byte	0
 1171 0268 01       		.byte	1
 1172 0269 01       		.byte	1
 1173 026a 20       		.byte	32
 1174 026b 00       		.byte	0
 1175 026c 40       		.byte	64
 1176 026d 00       		.byte	0
 1177 026e 80       		.byte	-128
 1178 026f 00       		.byte	0
 1179 0270 01       		.byte	1
 1180 0271 00       		.byte	0
 1181 0272 02       		.byte	2
 1182 0273 00       		.byte	0
 1183 0274 04       		.byte	4
 1184 0275 00       		.byte	0
 1185 0276 08       		.byte	8
 1186 0277 00       		.byte	0
 1187 0278 10       		.byte	16
 1188 0279 00       		.byte	0
 1189 027a 20       		.byte	32
 1190 027b 00       		.byte	0
ARM GAS  C:\Users\jthem\AppData\Local\Temp\ccnLl47M.s 			page 36


 1191 027c 40       		.byte	64
 1192 027d 00       		.byte	0
 1193 027e 80       		.byte	-128
 1194 027f 00       		.byte	0
 1195              		.section	.text.WaveDAC_1_Mux_Set,"ax",%progbits
 1196              		.align	2
 1197              		.global	WaveDAC_1_Mux_Set
 1198              		.thumb
 1199              		.thumb_func
 1200              		.type	WaveDAC_1_Mux_Set, %function
 1201              	WaveDAC_1_Mux_Set:
 1202              	.LFB10:
 801:.\Generated_Source\PSoC5/cyfitter_cfg.c **** 
 802:.\Generated_Source\PSoC5/cyfitter_cfg.c **** /* This is an implementation detail of the AMux. Code that depends on it may be
 803:.\Generated_Source\PSoC5/cyfitter_cfg.c ****    incompatible with other versions of PSoC Creator. */
 804:.\Generated_Source\PSoC5/cyfitter_cfg.c **** uint8 CYXDATA * const CYCODE WaveDAC_1_Mux__addrTable[64] = {
 805:.\Generated_Source\PSoC5/cyfitter_cfg.c **** 	(uint8 CYXDATA *)CYREG_PRT4_AMUX, (uint8 CYXDATA *)CY_AMUX_UNUSED, 
 806:.\Generated_Source\PSoC5/cyfitter_cfg.c **** 	(uint8 CYXDATA *)CYREG_PRT4_AMUX, (uint8 CYXDATA *)CY_AMUX_UNUSED, 
 807:.\Generated_Source\PSoC5/cyfitter_cfg.c **** 	(uint8 CYXDATA *)CYREG_PRT4_AMUX, (uint8 CYXDATA *)CY_AMUX_UNUSED, 
 808:.\Generated_Source\PSoC5/cyfitter_cfg.c **** 	(uint8 CYXDATA *)CYREG_PRT4_AMUX, (uint8 CYXDATA *)CY_AMUX_UNUSED, 
 809:.\Generated_Source\PSoC5/cyfitter_cfg.c **** 	(uint8 CYXDATA *)CYREG_PRT4_AMUX, (uint8 CYXDATA *)CY_AMUX_UNUSED, 
 810:.\Generated_Source\PSoC5/cyfitter_cfg.c **** 	(uint8 CYXDATA *)CYREG_PRT4_AMUX, (uint8 CYXDATA *)CY_AMUX_UNUSED, 
 811:.\Generated_Source\PSoC5/cyfitter_cfg.c **** 	(uint8 CYXDATA *)CYREG_PRT4_AMUX, (uint8 CYXDATA *)CY_AMUX_UNUSED, 
 812:.\Generated_Source\PSoC5/cyfitter_cfg.c **** 	(uint8 CYXDATA *)CYREG_PRT4_AMUX, (uint8 CYXDATA *)CY_AMUX_UNUSED, 
 813:.\Generated_Source\PSoC5/cyfitter_cfg.c **** 	(uint8 CYXDATA *)CYREG_PRT0_AMUX, (uint8 CYXDATA *)CY_AMUX_UNUSED, 
 814:.\Generated_Source\PSoC5/cyfitter_cfg.c **** 	(uint8 CYXDATA *)CYREG_PRT0_AMUX, (uint8 CYXDATA *)CY_AMUX_UNUSED, 
 815:.\Generated_Source\PSoC5/cyfitter_cfg.c **** 	(uint8 CYXDATA *)CYREG_PRT0_AMUX, (uint8 CYXDATA *)CY_AMUX_UNUSED, 
 816:.\Generated_Source\PSoC5/cyfitter_cfg.c **** 	(uint8 CYXDATA *)CYREG_PRT0_AMUX, (uint8 CYXDATA *)CY_AMUX_UNUSED, 
 817:.\Generated_Source\PSoC5/cyfitter_cfg.c **** 	(uint8 CYXDATA *)CYREG_PRT0_AMUX, (uint8 CYXDATA *)CY_AMUX_UNUSED, 
 818:.\Generated_Source\PSoC5/cyfitter_cfg.c **** 	(uint8 CYXDATA *)CYREG_PRT0_AMUX, (uint8 CYXDATA *)CY_AMUX_UNUSED, 
 819:.\Generated_Source\PSoC5/cyfitter_cfg.c **** 	(uint8 CYXDATA *)CYREG_DAC2_SW2, (uint8 CYXDATA *)CY_AMUX_UNUSED, 
 820:.\Generated_Source\PSoC5/cyfitter_cfg.c **** 	(uint8 CYXDATA *)CYREG_PRT0_AMUX, (uint8 CYXDATA *)CY_AMUX_UNUSED, 
 821:.\Generated_Source\PSoC5/cyfitter_cfg.c **** 	(uint8 CYXDATA *)CYREG_PRT3_AMUX, (uint8 CYXDATA *)CY_AMUX_UNUSED, 
 822:.\Generated_Source\PSoC5/cyfitter_cfg.c **** 	(uint8 CYXDATA *)CYREG_PRT3_AMUX, (uint8 CYXDATA *)CY_AMUX_UNUSED, 
 823:.\Generated_Source\PSoC5/cyfitter_cfg.c **** 	(uint8 CYXDATA *)CYREG_PRT3_AMUX, (uint8 CYXDATA *)CY_AMUX_UNUSED, 
 824:.\Generated_Source\PSoC5/cyfitter_cfg.c **** 	(uint8 CYXDATA *)CYREG_PRT3_AMUX, (uint8 CYXDATA *)CY_AMUX_UNUSED, 
 825:.\Generated_Source\PSoC5/cyfitter_cfg.c **** 	(uint8 CYXDATA *)CYREG_PRT15_AG, (uint8 CYXDATA *)CYREG_PRT15_AMUX, 
 826:.\Generated_Source\PSoC5/cyfitter_cfg.c **** 	(uint8 CYXDATA *)CYREG_PRT3_AMUX, (uint8 CYXDATA *)CY_AMUX_UNUSED, 
 827:.\Generated_Source\PSoC5/cyfitter_cfg.c **** 	(uint8 CYXDATA *)CYREG_PRT3_AMUX, (uint8 CYXDATA *)CY_AMUX_UNUSED, 
 828:.\Generated_Source\PSoC5/cyfitter_cfg.c **** 	(uint8 CYXDATA *)CYREG_PRT3_AMUX, (uint8 CYXDATA *)CY_AMUX_UNUSED, 
 829:.\Generated_Source\PSoC5/cyfitter_cfg.c **** 	(uint8 CYXDATA *)CYREG_PRT5_AMUX, (uint8 CYXDATA *)CY_AMUX_UNUSED, 
 830:.\Generated_Source\PSoC5/cyfitter_cfg.c **** 	(uint8 CYXDATA *)CYREG_PRT5_AMUX, (uint8 CYXDATA *)CY_AMUX_UNUSED, 
 831:.\Generated_Source\PSoC5/cyfitter_cfg.c **** 	(uint8 CYXDATA *)CYREG_PRT5_AMUX, (uint8 CYXDATA *)CY_AMUX_UNUSED, 
 832:.\Generated_Source\PSoC5/cyfitter_cfg.c **** 	(uint8 CYXDATA *)CYREG_PRT5_AMUX, (uint8 CYXDATA *)CY_AMUX_UNUSED, 
 833:.\Generated_Source\PSoC5/cyfitter_cfg.c **** 	(uint8 CYXDATA *)CYREG_PRT5_AMUX, (uint8 CYXDATA *)CY_AMUX_UNUSED, 
 834:.\Generated_Source\PSoC5/cyfitter_cfg.c **** 	(uint8 CYXDATA *)CYREG_PRT5_AMUX, (uint8 CYXDATA *)CY_AMUX_UNUSED, 
 835:.\Generated_Source\PSoC5/cyfitter_cfg.c **** 	(uint8 CYXDATA *)CYREG_PRT5_AMUX, (uint8 CYXDATA *)CY_AMUX_UNUSED, 
 836:.\Generated_Source\PSoC5/cyfitter_cfg.c **** 	(uint8 CYXDATA *)CYREG_PRT5_AMUX, (uint8 CYXDATA *)CY_AMUX_UNUSED, 
 837:.\Generated_Source\PSoC5/cyfitter_cfg.c **** };
 838:.\Generated_Source\PSoC5/cyfitter_cfg.c **** 
 839:.\Generated_Source\PSoC5/cyfitter_cfg.c **** /* This is an implementation detail of the AMux. Code that depends on it may be
 840:.\Generated_Source\PSoC5/cyfitter_cfg.c ****    incompatible with other versions of PSoC Creator. */
 841:.\Generated_Source\PSoC5/cyfitter_cfg.c **** const uint8 CYCODE WaveDAC_1_Mux__maskTable[64] = {
 842:.\Generated_Source\PSoC5/cyfitter_cfg.c **** 	0x01u, 0x00u, 
 843:.\Generated_Source\PSoC5/cyfitter_cfg.c **** 	0x02u, 0x00u, 
 844:.\Generated_Source\PSoC5/cyfitter_cfg.c **** 	0x04u, 0x00u, 
 845:.\Generated_Source\PSoC5/cyfitter_cfg.c **** 	0x08u, 0x00u, 
ARM GAS  C:\Users\jthem\AppData\Local\Temp\ccnLl47M.s 			page 37


 846:.\Generated_Source\PSoC5/cyfitter_cfg.c **** 	0x10u, 0x00u, 
 847:.\Generated_Source\PSoC5/cyfitter_cfg.c **** 	0x20u, 0x00u, 
 848:.\Generated_Source\PSoC5/cyfitter_cfg.c **** 	0x40u, 0x00u, 
 849:.\Generated_Source\PSoC5/cyfitter_cfg.c **** 	0x80u, 0x00u, 
 850:.\Generated_Source\PSoC5/cyfitter_cfg.c **** 	0x01u, 0x00u, 
 851:.\Generated_Source\PSoC5/cyfitter_cfg.c **** 	0x02u, 0x00u, 
 852:.\Generated_Source\PSoC5/cyfitter_cfg.c **** 	0x04u, 0x00u, 
 853:.\Generated_Source\PSoC5/cyfitter_cfg.c **** 	0x08u, 0x00u, 
 854:.\Generated_Source\PSoC5/cyfitter_cfg.c **** 	0x10u, 0x00u, 
 855:.\Generated_Source\PSoC5/cyfitter_cfg.c **** 	0x20u, 0x00u, 
 856:.\Generated_Source\PSoC5/cyfitter_cfg.c **** 	0x04u, 0x00u, 
 857:.\Generated_Source\PSoC5/cyfitter_cfg.c **** 	0x80u, 0x00u, 
 858:.\Generated_Source\PSoC5/cyfitter_cfg.c **** 	0x01u, 0x00u, 
 859:.\Generated_Source\PSoC5/cyfitter_cfg.c **** 	0x02u, 0x00u, 
 860:.\Generated_Source\PSoC5/cyfitter_cfg.c **** 	0x04u, 0x00u, 
 861:.\Generated_Source\PSoC5/cyfitter_cfg.c **** 	0x08u, 0x00u, 
 862:.\Generated_Source\PSoC5/cyfitter_cfg.c **** 	0x01u, 0x01u, 
 863:.\Generated_Source\PSoC5/cyfitter_cfg.c **** 	0x20u, 0x00u, 
 864:.\Generated_Source\PSoC5/cyfitter_cfg.c **** 	0x40u, 0x00u, 
 865:.\Generated_Source\PSoC5/cyfitter_cfg.c **** 	0x80u, 0x00u, 
 866:.\Generated_Source\PSoC5/cyfitter_cfg.c **** 	0x01u, 0x00u, 
 867:.\Generated_Source\PSoC5/cyfitter_cfg.c **** 	0x02u, 0x00u, 
 868:.\Generated_Source\PSoC5/cyfitter_cfg.c **** 	0x04u, 0x00u, 
 869:.\Generated_Source\PSoC5/cyfitter_cfg.c **** 	0x08u, 0x00u, 
 870:.\Generated_Source\PSoC5/cyfitter_cfg.c **** 	0x10u, 0x00u, 
 871:.\Generated_Source\PSoC5/cyfitter_cfg.c **** 	0x20u, 0x00u, 
 872:.\Generated_Source\PSoC5/cyfitter_cfg.c **** 	0x40u, 0x00u, 
 873:.\Generated_Source\PSoC5/cyfitter_cfg.c **** 	0x80u, 0x00u, 
 874:.\Generated_Source\PSoC5/cyfitter_cfg.c **** };
 875:.\Generated_Source\PSoC5/cyfitter_cfg.c **** 
 876:.\Generated_Source\PSoC5/cyfitter_cfg.c **** /*******************************************************************************
 877:.\Generated_Source\PSoC5/cyfitter_cfg.c **** * Function Name: WaveDAC_1_Mux_Set
 878:.\Generated_Source\PSoC5/cyfitter_cfg.c **** ********************************************************************************
 879:.\Generated_Source\PSoC5/cyfitter_cfg.c **** * Summary:
 880:.\Generated_Source\PSoC5/cyfitter_cfg.c **** *  This function is used to set a particular channel as active on the AMux.
 881:.\Generated_Source\PSoC5/cyfitter_cfg.c **** *
 882:.\Generated_Source\PSoC5/cyfitter_cfg.c **** * Parameters:  
 883:.\Generated_Source\PSoC5/cyfitter_cfg.c **** *   channel - The mux channel input to set as active
 884:.\Generated_Source\PSoC5/cyfitter_cfg.c **** *
 885:.\Generated_Source\PSoC5/cyfitter_cfg.c **** * Return:
 886:.\Generated_Source\PSoC5/cyfitter_cfg.c **** *   void
 887:.\Generated_Source\PSoC5/cyfitter_cfg.c **** *
 888:.\Generated_Source\PSoC5/cyfitter_cfg.c **** *******************************************************************************/
 889:.\Generated_Source\PSoC5/cyfitter_cfg.c **** void WaveDAC_1_Mux_Set(uint8 channel)
 890:.\Generated_Source\PSoC5/cyfitter_cfg.c **** {
 1203              		.loc 1 890 0
 1204              		.cfi_startproc
 1205              		@ args = 0, pretend = 0, frame = 8
 1206              		@ frame_needed = 1, uses_anonymous_args = 0
 1207              		@ link register save eliminated.
 1208 0000 80B4     		push	{r7}
 1209              		.cfi_def_cfa_offset 4
 1210              		.cfi_offset 7, -4
 1211 0002 83B0     		sub	sp, sp, #12
 1212              		.cfi_def_cfa_offset 16
 1213 0004 00AF     		add	r7, sp, #0
 1214              		.cfi_def_cfa_register 7
ARM GAS  C:\Users\jthem\AppData\Local\Temp\ccnLl47M.s 			page 38


 1215 0006 0346     		mov	r3, r0
 1216 0008 FB71     		strb	r3, [r7, #7]
 891:.\Generated_Source\PSoC5/cyfitter_cfg.c **** 	if (channel < 32)
 1217              		.loc 1 891 0
 1218 000a FB79     		ldrb	r3, [r7, #7]	@ zero_extendqisi2
 1219 000c 1F2B     		cmp	r3, #31
 1220 000e 24D8     		bhi	.L40
 892:.\Generated_Source\PSoC5/cyfitter_cfg.c **** 	{
 893:.\Generated_Source\PSoC5/cyfitter_cfg.c **** 		channel += channel;
 1221              		.loc 1 893 0
 1222 0010 FA79     		ldrb	r2, [r7, #7]
 1223 0012 FB79     		ldrb	r3, [r7, #7]
 1224 0014 1344     		add	r3, r3, r2
 1225 0016 FB71     		strb	r3, [r7, #7]
 894:.\Generated_Source\PSoC5/cyfitter_cfg.c **** 		*WaveDAC_1_Mux__addrTable[channel] |= WaveDAC_1_Mux__maskTable[channel];
 1226              		.loc 1 894 0
 1227 0018 FB79     		ldrb	r3, [r7, #7]	@ zero_extendqisi2
 1228 001a 124A     		ldr	r2, .L42
 1229 001c 52F82330 		ldr	r3, [r2, r3, lsl #2]
 1230 0020 FA79     		ldrb	r2, [r7, #7]	@ zero_extendqisi2
 1231 0022 1049     		ldr	r1, .L42
 1232 0024 51F82220 		ldr	r2, [r1, r2, lsl #2]
 1233 0028 1178     		ldrb	r1, [r2]	@ zero_extendqisi2
 1234 002a FA79     		ldrb	r2, [r7, #7]	@ zero_extendqisi2
 1235 002c 0E48     		ldr	r0, .L42+4
 1236 002e 825C     		ldrb	r2, [r0, r2]	@ zero_extendqisi2
 1237 0030 0A43     		orrs	r2, r2, r1
 1238 0032 D2B2     		uxtb	r2, r2
 1239 0034 1A70     		strb	r2, [r3]
 895:.\Generated_Source\PSoC5/cyfitter_cfg.c **** 		channel++;
 1240              		.loc 1 895 0
 1241 0036 FB79     		ldrb	r3, [r7, #7]	@ zero_extendqisi2
 1242 0038 0133     		adds	r3, r3, #1
 1243 003a FB71     		strb	r3, [r7, #7]
 896:.\Generated_Source\PSoC5/cyfitter_cfg.c **** 		*WaveDAC_1_Mux__addrTable[channel] |= WaveDAC_1_Mux__maskTable[channel];
 1244              		.loc 1 896 0
 1245 003c FB79     		ldrb	r3, [r7, #7]	@ zero_extendqisi2
 1246 003e 094A     		ldr	r2, .L42
 1247 0040 52F82330 		ldr	r3, [r2, r3, lsl #2]
 1248 0044 FA79     		ldrb	r2, [r7, #7]	@ zero_extendqisi2
 1249 0046 0749     		ldr	r1, .L42
 1250 0048 51F82220 		ldr	r2, [r1, r2, lsl #2]
 1251 004c 1178     		ldrb	r1, [r2]	@ zero_extendqisi2
 1252 004e FA79     		ldrb	r2, [r7, #7]	@ zero_extendqisi2
 1253 0050 0548     		ldr	r0, .L42+4
 1254 0052 825C     		ldrb	r2, [r0, r2]	@ zero_extendqisi2
 1255 0054 0A43     		orrs	r2, r2, r1
 1256 0056 D2B2     		uxtb	r2, r2
 1257 0058 1A70     		strb	r2, [r3]
 1258              	.L40:
 897:.\Generated_Source\PSoC5/cyfitter_cfg.c **** 	}
 898:.\Generated_Source\PSoC5/cyfitter_cfg.c **** }
 1259              		.loc 1 898 0
 1260 005a 0C37     		adds	r7, r7, #12
 1261              		.cfi_def_cfa_offset 4
 1262 005c BD46     		mov	sp, r7
 1263              		.cfi_def_cfa_register 13
ARM GAS  C:\Users\jthem\AppData\Local\Temp\ccnLl47M.s 			page 39


 1264              		@ sp needed
 1265 005e 5DF8047B 		ldr	r7, [sp], #4
 1266              		.cfi_restore 7
 1267              		.cfi_def_cfa_offset 0
 1268 0062 7047     		bx	lr
 1269              	.L43:
 1270              		.align	2
 1271              	.L42:
 1272 0064 00000000 		.word	WaveDAC_1_Mux__addrTable
 1273 0068 00000000 		.word	WaveDAC_1_Mux__maskTable
 1274              		.cfi_endproc
 1275              	.LFE10:
 1276              		.size	WaveDAC_1_Mux_Set, .-WaveDAC_1_Mux_Set
 1277              		.section	.text.WaveDAC_1_Mux_Unset,"ax",%progbits
 1278              		.align	2
 1279              		.global	WaveDAC_1_Mux_Unset
 1280              		.thumb
 1281              		.thumb_func
 1282              		.type	WaveDAC_1_Mux_Unset, %function
 1283              	WaveDAC_1_Mux_Unset:
 1284              	.LFB11:
 899:.\Generated_Source\PSoC5/cyfitter_cfg.c **** 
 900:.\Generated_Source\PSoC5/cyfitter_cfg.c **** /*******************************************************************************
 901:.\Generated_Source\PSoC5/cyfitter_cfg.c **** * Function Name: WaveDAC_1_Mux_Unset
 902:.\Generated_Source\PSoC5/cyfitter_cfg.c **** ********************************************************************************
 903:.\Generated_Source\PSoC5/cyfitter_cfg.c **** * Summary:
 904:.\Generated_Source\PSoC5/cyfitter_cfg.c **** *  This function is used to clear a particular channel from being active on the
 905:.\Generated_Source\PSoC5/cyfitter_cfg.c **** *  AMux.
 906:.\Generated_Source\PSoC5/cyfitter_cfg.c **** *
 907:.\Generated_Source\PSoC5/cyfitter_cfg.c **** * Parameters:  
 908:.\Generated_Source\PSoC5/cyfitter_cfg.c **** *   channel - The mux channel input to mark inactive
 909:.\Generated_Source\PSoC5/cyfitter_cfg.c **** *
 910:.\Generated_Source\PSoC5/cyfitter_cfg.c **** * Return:
 911:.\Generated_Source\PSoC5/cyfitter_cfg.c **** *   void
 912:.\Generated_Source\PSoC5/cyfitter_cfg.c **** *
 913:.\Generated_Source\PSoC5/cyfitter_cfg.c **** *******************************************************************************/
 914:.\Generated_Source\PSoC5/cyfitter_cfg.c **** void WaveDAC_1_Mux_Unset(uint8 channel)
 915:.\Generated_Source\PSoC5/cyfitter_cfg.c **** {
 1285              		.loc 1 915 0
 1286              		.cfi_startproc
 1287              		@ args = 0, pretend = 0, frame = 8
 1288              		@ frame_needed = 1, uses_anonymous_args = 0
 1289              		@ link register save eliminated.
 1290 0000 80B4     		push	{r7}
 1291              		.cfi_def_cfa_offset 4
 1292              		.cfi_offset 7, -4
 1293 0002 83B0     		sub	sp, sp, #12
 1294              		.cfi_def_cfa_offset 16
 1295 0004 00AF     		add	r7, sp, #0
 1296              		.cfi_def_cfa_register 7
 1297 0006 0346     		mov	r3, r0
 1298 0008 FB71     		strb	r3, [r7, #7]
 916:.\Generated_Source\PSoC5/cyfitter_cfg.c **** 	if (channel < 32)
 1299              		.loc 1 916 0
 1300 000a FB79     		ldrb	r3, [r7, #7]	@ zero_extendqisi2
 1301 000c 1F2B     		cmp	r3, #31
 1302 000e 28D8     		bhi	.L44
ARM GAS  C:\Users\jthem\AppData\Local\Temp\ccnLl47M.s 			page 40


 917:.\Generated_Source\PSoC5/cyfitter_cfg.c **** 	{
 918:.\Generated_Source\PSoC5/cyfitter_cfg.c **** 		channel += channel;
 1303              		.loc 1 918 0
 1304 0010 FA79     		ldrb	r2, [r7, #7]
 1305 0012 FB79     		ldrb	r3, [r7, #7]
 1306 0014 1344     		add	r3, r3, r2
 1307 0016 FB71     		strb	r3, [r7, #7]
 919:.\Generated_Source\PSoC5/cyfitter_cfg.c **** 		*WaveDAC_1_Mux__addrTable[channel] &= (uint8)~WaveDAC_1_Mux__maskTable[channel];
 1308              		.loc 1 919 0
 1309 0018 FB79     		ldrb	r3, [r7, #7]	@ zero_extendqisi2
 1310 001a 144A     		ldr	r2, .L46
 1311 001c 52F82330 		ldr	r3, [r2, r3, lsl #2]
 1312 0020 FA79     		ldrb	r2, [r7, #7]	@ zero_extendqisi2
 1313 0022 1249     		ldr	r1, .L46
 1314 0024 51F82220 		ldr	r2, [r1, r2, lsl #2]
 1315 0028 1178     		ldrb	r1, [r2]	@ zero_extendqisi2
 1316 002a FA79     		ldrb	r2, [r7, #7]	@ zero_extendqisi2
 1317 002c 1048     		ldr	r0, .L46+4
 1318 002e 825C     		ldrb	r2, [r0, r2]	@ zero_extendqisi2
 1319 0030 D243     		mvns	r2, r2
 1320 0032 D2B2     		uxtb	r2, r2
 1321 0034 0A40     		ands	r2, r2, r1
 1322 0036 D2B2     		uxtb	r2, r2
 1323 0038 1A70     		strb	r2, [r3]
 920:.\Generated_Source\PSoC5/cyfitter_cfg.c **** 		channel++;
 1324              		.loc 1 920 0
 1325 003a FB79     		ldrb	r3, [r7, #7]	@ zero_extendqisi2
 1326 003c 0133     		adds	r3, r3, #1
 1327 003e FB71     		strb	r3, [r7, #7]
 921:.\Generated_Source\PSoC5/cyfitter_cfg.c **** 		*WaveDAC_1_Mux__addrTable[channel] &= (uint8)~WaveDAC_1_Mux__maskTable[channel];
 1328              		.loc 1 921 0
 1329 0040 FB79     		ldrb	r3, [r7, #7]	@ zero_extendqisi2
 1330 0042 0A4A     		ldr	r2, .L46
 1331 0044 52F82330 		ldr	r3, [r2, r3, lsl #2]
 1332 0048 FA79     		ldrb	r2, [r7, #7]	@ zero_extendqisi2
 1333 004a 0849     		ldr	r1, .L46
 1334 004c 51F82220 		ldr	r2, [r1, r2, lsl #2]
 1335 0050 1178     		ldrb	r1, [r2]	@ zero_extendqisi2
 1336 0052 FA79     		ldrb	r2, [r7, #7]	@ zero_extendqisi2
 1337 0054 0648     		ldr	r0, .L46+4
 1338 0056 825C     		ldrb	r2, [r0, r2]	@ zero_extendqisi2
 1339 0058 D243     		mvns	r2, r2
 1340 005a D2B2     		uxtb	r2, r2
 1341 005c 0A40     		ands	r2, r2, r1
 1342 005e D2B2     		uxtb	r2, r2
 1343 0060 1A70     		strb	r2, [r3]
 1344              	.L44:
 922:.\Generated_Source\PSoC5/cyfitter_cfg.c **** 	}
 923:.\Generated_Source\PSoC5/cyfitter_cfg.c **** }
 1345              		.loc 1 923 0
 1346 0062 0C37     		adds	r7, r7, #12
 1347              		.cfi_def_cfa_offset 4
 1348 0064 BD46     		mov	sp, r7
 1349              		.cfi_def_cfa_register 13
 1350              		@ sp needed
 1351 0066 5DF8047B 		ldr	r7, [sp], #4
 1352              		.cfi_restore 7
ARM GAS  C:\Users\jthem\AppData\Local\Temp\ccnLl47M.s 			page 41


 1353              		.cfi_def_cfa_offset 0
 1354 006a 7047     		bx	lr
 1355              	.L47:
 1356              		.align	2
 1357              	.L46:
 1358 006c 00000000 		.word	WaveDAC_1_Mux__addrTable
 1359 0070 00000000 		.word	WaveDAC_1_Mux__maskTable
 1360              		.cfi_endproc
 1361              	.LFE11:
 1362              		.size	WaveDAC_1_Mux_Unset, .-WaveDAC_1_Mux_Unset
 1363              		.section	.text.cyfitter_cfg,"ax",%progbits
 1364              		.align	2
 1365              		.global	cyfitter_cfg
 1366              		.thumb
 1367              		.thumb_func
 1368              		.type	cyfitter_cfg, %function
 1369              	cyfitter_cfg:
 1370              	.LFB12:
 924:.\Generated_Source\PSoC5/cyfitter_cfg.c **** 
 925:.\Generated_Source\PSoC5/cyfitter_cfg.c **** 
 926:.\Generated_Source\PSoC5/cyfitter_cfg.c **** 
 927:.\Generated_Source\PSoC5/cyfitter_cfg.c **** /*******************************************************************************
 928:.\Generated_Source\PSoC5/cyfitter_cfg.c **** * Function Name: cyfitter_cfg
 929:.\Generated_Source\PSoC5/cyfitter_cfg.c **** ********************************************************************************
 930:.\Generated_Source\PSoC5/cyfitter_cfg.c **** * Summary:
 931:.\Generated_Source\PSoC5/cyfitter_cfg.c **** *  This function is called by the start-up code for the selected device. It
 932:.\Generated_Source\PSoC5/cyfitter_cfg.c **** *  performs all of the necessary device configuration based on the design
 933:.\Generated_Source\PSoC5/cyfitter_cfg.c **** *  settings.  This includes settings from the Design Wide Resources (DWR) such
 934:.\Generated_Source\PSoC5/cyfitter_cfg.c **** *  as Clocks and Pins as well as any component configuration that is necessary.
 935:.\Generated_Source\PSoC5/cyfitter_cfg.c **** *
 936:.\Generated_Source\PSoC5/cyfitter_cfg.c **** * Parameters:  
 937:.\Generated_Source\PSoC5/cyfitter_cfg.c **** *   void
 938:.\Generated_Source\PSoC5/cyfitter_cfg.c **** *
 939:.\Generated_Source\PSoC5/cyfitter_cfg.c **** * Return:
 940:.\Generated_Source\PSoC5/cyfitter_cfg.c **** *   void
 941:.\Generated_Source\PSoC5/cyfitter_cfg.c **** *
 942:.\Generated_Source\PSoC5/cyfitter_cfg.c **** *******************************************************************************/
 943:.\Generated_Source\PSoC5/cyfitter_cfg.c **** 
 944:.\Generated_Source\PSoC5/cyfitter_cfg.c **** void cyfitter_cfg(void)
 945:.\Generated_Source\PSoC5/cyfitter_cfg.c **** {
 1371              		.loc 1 945 0
 1372              		.cfi_startproc
 1373              		@ args = 0, pretend = 0, frame = 0
 1374              		@ frame_needed = 1, uses_anonymous_args = 0
 1375 0000 80B5     		push	{r7, lr}
 1376              		.cfi_def_cfa_offset 8
 1377              		.cfi_offset 7, -8
 1378              		.cfi_offset 14, -4
 1379 0002 00AF     		add	r7, sp, #0
 1380              		.cfi_def_cfa_register 7
 946:.\Generated_Source\PSoC5/cyfitter_cfg.c **** #ifdef CYGlobalIntDisable
 947:.\Generated_Source\PSoC5/cyfitter_cfg.c **** 	/* Disable interrupts by default. Let user enable if/when they want. */
 948:.\Generated_Source\PSoC5/cyfitter_cfg.c **** 	CYGlobalIntDisable
 1381              		.loc 1 948 0
 1382              	@ 948 ".\Generated_Source\PSoC5\cyfitter_cfg.c" 1
 1383 0004 72B6     		CPSID   i
 1384              	@ 0 "" 2
ARM GAS  C:\Users\jthem\AppData\Local\Temp\ccnLl47M.s 			page 42


 949:.\Generated_Source\PSoC5/cyfitter_cfg.c **** #endif
 950:.\Generated_Source\PSoC5/cyfitter_cfg.c **** 
 951:.\Generated_Source\PSoC5/cyfitter_cfg.c **** 
 952:.\Generated_Source\PSoC5/cyfitter_cfg.c **** 	/* Set Flash Cycles based on max possible frequency in case a glitch occurs during ClockSetup(). *
 953:.\Generated_Source\PSoC5/cyfitter_cfg.c **** 	CY_SET_XTND_REG8((void CYFAR *)(CYREG_CACHE_CC_CTL), (((CYDEV_INSTRUCT_CACHE_ENABLED) != 0) ? 0x01
 1385              		.loc 1 953 0
 1386              		.thumb
 1387 0006 3D4B     		ldr	r3, .L49
 1388 0008 0122     		movs	r2, #1
 1389 000a 1A70     		strb	r2, [r3]
 954:.\Generated_Source\PSoC5/cyfitter_cfg.c **** 	/* Setup clocks based on selections from Clock DWR */
 955:.\Generated_Source\PSoC5/cyfitter_cfg.c **** 	ClockSetup();
 1390              		.loc 1 955 0
 1391 000c FFF7FEFF 		bl	ClockSetup
 956:.\Generated_Source\PSoC5/cyfitter_cfg.c **** 	/* Enable/Disable Debug functionality based on settings from System DWR */
 957:.\Generated_Source\PSoC5/cyfitter_cfg.c **** 	CY_SET_XTND_REG8((void CYFAR *)CYREG_MLOGIC_DEBUG, (CY_GET_XTND_REG8((void CYFAR *)CYREG_MLOGIC_DE
 1392              		.loc 1 957 0
 1393 0010 3B4A     		ldr	r2, .L49+4
 1394 0012 3B4B     		ldr	r3, .L49+4
 1395 0014 1B78     		ldrb	r3, [r3]
 1396 0016 DBB2     		uxtb	r3, r3
 1397 0018 43F00403 		orr	r3, r3, #4
 1398 001c DBB2     		uxtb	r3, r3
 1399 001e 1370     		strb	r3, [r2]
 958:.\Generated_Source\PSoC5/cyfitter_cfg.c **** 
 959:.\Generated_Source\PSoC5/cyfitter_cfg.c **** 	{
 960:.\Generated_Source\PSoC5/cyfitter_cfg.c **** 		cfg_dma_init();
 1400              		.loc 1 960 0
 1401 0020 FFF7FEFF 		bl	cfg_dma_init
 961:.\Generated_Source\PSoC5/cyfitter_cfg.c **** 
 962:.\Generated_Source\PSoC5/cyfitter_cfg.c **** 		/* Perform normal device configuration. Order is not critical for these items. */
 963:.\Generated_Source\PSoC5/cyfitter_cfg.c **** 		CYMEMZERO((void CYFAR *)(CYREG_PHUB_CFGMEM0_CFG0), 4u);
 1402              		.loc 1 963 0
 1403 0024 3748     		ldr	r0, .L49+8
 1404 0026 0421     		movs	r1, #4
 1405 0028 FFF7FEFF 		bl	CYMEMZERO
 964:.\Generated_Source\PSoC5/cyfitter_cfg.c **** 		CYMEMZERO((void CYFAR *)(CYREG_PHUB_CFGMEM1_CFG0), 4u);
 1406              		.loc 1 964 0
 1407 002c 3648     		ldr	r0, .L49+12
 1408 002e 0421     		movs	r1, #4
 1409 0030 FFF7FEFF 		bl	CYMEMZERO
 965:.\Generated_Source\PSoC5/cyfitter_cfg.c **** 		CYMEMZERO((void CYFAR *)(CYREG_PHUB_CFGMEM2_CFG0), 4u);
 1410              		.loc 1 965 0
 1411 0034 3548     		ldr	r0, .L49+16
 1412 0036 0421     		movs	r1, #4
 1413 0038 FFF7FEFF 		bl	CYMEMZERO
 966:.\Generated_Source\PSoC5/cyfitter_cfg.c **** 		CYMEMZERO((void CYFAR *)(CYREG_PHUB_CFGMEM3_CFG0), 4u);
 1414              		.loc 1 966 0
 1415 003c 3448     		ldr	r0, .L49+20
 1416 003e 0421     		movs	r1, #4
 1417 0040 FFF7FEFF 		bl	CYMEMZERO
 967:.\Generated_Source\PSoC5/cyfitter_cfg.c **** 
 968:.\Generated_Source\PSoC5/cyfitter_cfg.c **** 		/* Enable digital routing */
 969:.\Generated_Source\PSoC5/cyfitter_cfg.c **** 		CY_SET_XTND_REG8((void CYFAR *)CYREG_BCTL0_BANK_CTL, CY_GET_XTND_REG8((void CYFAR *)CYREG_BCTL0_B
 1418              		.loc 1 969 0
 1419 0044 334A     		ldr	r2, .L49+24
 1420 0046 334B     		ldr	r3, .L49+24
ARM GAS  C:\Users\jthem\AppData\Local\Temp\ccnLl47M.s 			page 43


 1421 0048 1B78     		ldrb	r3, [r3]
 1422 004a DBB2     		uxtb	r3, r3
 1423 004c 43F00203 		orr	r3, r3, #2
 1424 0050 DBB2     		uxtb	r3, r3
 1425 0052 1370     		strb	r3, [r2]
 970:.\Generated_Source\PSoC5/cyfitter_cfg.c **** 		CY_SET_XTND_REG8((void CYFAR *)CYREG_BCTL1_BANK_CTL, CY_GET_XTND_REG8((void CYFAR *)CYREG_BCTL1_B
 1426              		.loc 1 970 0
 1427 0054 304A     		ldr	r2, .L49+28
 1428 0056 304B     		ldr	r3, .L49+28
 1429 0058 1B78     		ldrb	r3, [r3]
 1430 005a DBB2     		uxtb	r3, r3
 1431 005c 43F00203 		orr	r3, r3, #2
 1432 0060 DBB2     		uxtb	r3, r3
 1433 0062 1370     		strb	r3, [r2]
 971:.\Generated_Source\PSoC5/cyfitter_cfg.c **** 
 972:.\Generated_Source\PSoC5/cyfitter_cfg.c **** 		/* Enable UDB array */
 973:.\Generated_Source\PSoC5/cyfitter_cfg.c **** 		CY_SET_XTND_REG8((void CYFAR *)CYREG_PM_ACT_CFG0, CY_GET_XTND_REG8((void CYFAR *)CYREG_PM_ACT_CFG
 1434              		.loc 1 973 0
 1435 0064 2D4A     		ldr	r2, .L49+32
 1436 0066 2D4B     		ldr	r3, .L49+32
 1437 0068 1B78     		ldrb	r3, [r3]
 1438 006a DBB2     		uxtb	r3, r3
 1439 006c 43F04003 		orr	r3, r3, #64
 1440 0070 DBB2     		uxtb	r3, r3
 1441 0072 1370     		strb	r3, [r2]
 974:.\Generated_Source\PSoC5/cyfitter_cfg.c **** 		CY_SET_XTND_REG8((void CYFAR *)CYREG_PM_AVAIL_CR2, CY_GET_XTND_REG8((void CYFAR *)CYREG_PM_AVAIL_
 1442              		.loc 1 974 0
 1443 0074 2A4A     		ldr	r2, .L49+36
 1444 0076 2A4B     		ldr	r3, .L49+36
 1445 0078 1B78     		ldrb	r3, [r3]
 1446 007a DBB2     		uxtb	r3, r3
 1447 007c 43F01003 		orr	r3, r3, #16
 1448 0080 DBB2     		uxtb	r3, r3
 1449 0082 1370     		strb	r3, [r2]
 975:.\Generated_Source\PSoC5/cyfitter_cfg.c **** 	}
 976:.\Generated_Source\PSoC5/cyfitter_cfg.c **** 
 977:.\Generated_Source\PSoC5/cyfitter_cfg.c **** 
 978:.\Generated_Source\PSoC5/cyfitter_cfg.c **** 	/* Perform second pass device configuration. These items must be configured in specific order afte
 979:.\Generated_Source\PSoC5/cyfitter_cfg.c **** 	CYCONFIGCPY((void CYFAR *)(CYREG_PRT0_DM0), (const void CYFAR *)(BS_IOPINS0_0_VAL), 8u);
 1450              		.loc 1 979 0
 1451 0084 2748     		ldr	r0, .L49+40
 1452 0086 2849     		ldr	r1, .L49+44
 1453 0088 0822     		movs	r2, #8
 1454 008a FFF7FEFF 		bl	CYCONFIGCPY
 980:.\Generated_Source\PSoC5/cyfitter_cfg.c **** 	CYCONFIGCPY((void CYFAR *)(CYREG_PRT12_DM0), (const void CYFAR *)(BS_IOPINS0_7_VAL), 8u);
 1455              		.loc 1 980 0
 1456 008e 2748     		ldr	r0, .L49+48
 1457 0090 2749     		ldr	r1, .L49+52
 1458 0092 0822     		movs	r2, #8
 1459 0094 FFF7FEFF 		bl	CYCONFIGCPY
 981:.\Generated_Source\PSoC5/cyfitter_cfg.c **** 	CYCONFIGCPY((void CYFAR *)(CYREG_PRT15_DR), (const void CYFAR *)(BS_IOPINS0_8_VAL), 10u);
 1460              		.loc 1 981 0
 1461 0098 2648     		ldr	r0, .L49+56
 1462 009a 2749     		ldr	r1, .L49+60
 1463 009c 0A22     		movs	r2, #10
 1464 009e FFF7FEFF 		bl	CYCONFIGCPY
 982:.\Generated_Source\PSoC5/cyfitter_cfg.c **** 	CYCONFIGCPY((void CYFAR *)(CYREG_PRT2_DM0), (const void CYFAR *)(BS_IOPINS0_2_VAL), 8u);
ARM GAS  C:\Users\jthem\AppData\Local\Temp\ccnLl47M.s 			page 44


 1465              		.loc 1 982 0
 1466 00a2 2648     		ldr	r0, .L49+64
 1467 00a4 2649     		ldr	r1, .L49+68
 1468 00a6 0822     		movs	r2, #8
 1469 00a8 FFF7FEFF 		bl	CYCONFIGCPY
 983:.\Generated_Source\PSoC5/cyfitter_cfg.c **** 	CYCONFIGCPY((void CYFAR *)(CYREG_PRT3_DM0), (const void CYFAR *)(BS_IOPINS0_3_VAL), 8u);
 1470              		.loc 1 983 0
 1471 00ac 2548     		ldr	r0, .L49+72
 1472 00ae 2649     		ldr	r1, .L49+76
 1473 00b0 0822     		movs	r2, #8
 1474 00b2 FFF7FEFF 		bl	CYCONFIGCPY
 984:.\Generated_Source\PSoC5/cyfitter_cfg.c **** 	CYCONFIGCPY((void CYFAR *)(CYREG_PRT4_DM0), (const void CYFAR *)(BS_IOPINS0_4_VAL), 8u);
 1475              		.loc 1 984 0
 1476 00b6 2548     		ldr	r0, .L49+80
 1477 00b8 2549     		ldr	r1, .L49+84
 1478 00ba 0822     		movs	r2, #8
 1479 00bc FFF7FEFF 		bl	CYCONFIGCPY
 985:.\Generated_Source\PSoC5/cyfitter_cfg.c **** 	CYCONFIGCPY((void CYFAR *)(CYREG_PRT5_DM0), (const void CYFAR *)(BS_IOPINS0_5_VAL), 8u);
 1480              		.loc 1 985 0
 1481 00c0 2448     		ldr	r0, .L49+88
 1482 00c2 2549     		ldr	r1, .L49+92
 1483 00c4 0822     		movs	r2, #8
 1484 00c6 FFF7FEFF 		bl	CYCONFIGCPY
 986:.\Generated_Source\PSoC5/cyfitter_cfg.c **** 	CYCONFIGCPY((void CYFAR *)(CYREG_PRT6_DM0), (const void CYFAR *)(BS_IOPINS0_6_VAL), 8u);
 1485              		.loc 1 986 0
 1486 00ca 2448     		ldr	r0, .L49+96
 1487 00cc 2449     		ldr	r1, .L49+100
 1488 00ce 0822     		movs	r2, #8
 1489 00d0 FFF7FEFF 		bl	CYCONFIGCPY
 987:.\Generated_Source\PSoC5/cyfitter_cfg.c **** 	CY_SET_XTND_REG8((void CYFAR *)(CYREG_B0_P5_U0_CFG27), 0xA4u);
 1490              		.loc 1 987 0
 1491 00d4 234B     		ldr	r3, .L49+104
 1492 00d6 A422     		movs	r2, #164
 1493 00d8 1A70     		strb	r2, [r3]
 988:.\Generated_Source\PSoC5/cyfitter_cfg.c **** 	/* Switch Boost to the precision bandgap reference from its internal reference */
 989:.\Generated_Source\PSoC5/cyfitter_cfg.c **** 	CY_SET_REG8((void CYXDATA *)CYREG_BOOST_CR2, (CY_GET_REG8((void CYXDATA *)CYREG_BOOST_CR2) | 0x08u
 1494              		.loc 1 989 0
 1495 00da 234A     		ldr	r2, .L49+108
 1496 00dc 224B     		ldr	r3, .L49+108
 1497 00de 1B78     		ldrb	r3, [r3]
 1498 00e0 DBB2     		uxtb	r3, r3
 1499 00e2 43F00803 		orr	r3, r3, #8
 1500 00e6 DBB2     		uxtb	r3, r3
 1501 00e8 1370     		strb	r3, [r2]
 990:.\Generated_Source\PSoC5/cyfitter_cfg.c **** 
 991:.\Generated_Source\PSoC5/cyfitter_cfg.c **** 	/* Perform basic analog initialization to defaults */
 992:.\Generated_Source\PSoC5/cyfitter_cfg.c **** 	AnalogSetDefault();
 1502              		.loc 1 992 0
 1503 00ea FFF7FEFF 		bl	AnalogSetDefault
 993:.\Generated_Source\PSoC5/cyfitter_cfg.c **** 
 994:.\Generated_Source\PSoC5/cyfitter_cfg.c **** 	/* Configure alternate active mode */
 995:.\Generated_Source\PSoC5/cyfitter_cfg.c **** 	CYCONFIGCPY((void CYFAR *)CYDEV_PM_STBY_BASE, (const void CYFAR *)CYDEV_PM_ACT_BASE, 14u);
 1504              		.loc 1 995 0
 1505 00ee 1F48     		ldr	r0, .L49+112
 1506 00f0 0A49     		ldr	r1, .L49+32
 1507 00f2 0E22     		movs	r2, #14
 1508 00f4 FFF7FEFF 		bl	CYCONFIGCPY
ARM GAS  C:\Users\jthem\AppData\Local\Temp\ccnLl47M.s 			page 45


 996:.\Generated_Source\PSoC5/cyfitter_cfg.c **** }
 1509              		.loc 1 996 0
 1510 00f8 80BD     		pop	{r7, pc}
 1511              	.L50:
 1512 00fa 00BF     		.align	2
 1513              	.L49:
 1514 00fc 00480040 		.word	1073760256
 1515 0100 E8460040 		.word	1073759976
 1516 0104 00760040 		.word	1073772032
 1517 0108 08760040 		.word	1073772040
 1518 010c 10760040 		.word	1073772048
 1519 0110 18760040 		.word	1073772056
 1520 0114 03500140 		.word	1073827843
 1521 0118 13500140 		.word	1073827859
 1522 011c A0430040 		.word	1073759136
 1523 0120 C2430040 		.word	1073759170
 1524 0124 02510040 		.word	1073762562
 1525 0128 68100048 		.word	1207963752
 1526 012c C2510040 		.word	1073762754
 1527 0130 70100048 		.word	1207963760
 1528 0134 F0510040 		.word	1073762800
 1529 0138 78100048 		.word	1207963768
 1530 013c 22510040 		.word	1073762594
 1531 0140 84100048 		.word	1207963780
 1532 0144 32510040 		.word	1073762610
 1533 0148 8C100048 		.word	1207963788
 1534 014c 42510040 		.word	1073762626
 1535 0150 94100048 		.word	1207963796
 1536 0154 52510040 		.word	1073762642
 1537 0158 9C100048 		.word	1207963804
 1538 015c 62510040 		.word	1073762658
 1539 0160 A4100048 		.word	1207963812
 1540 0164 5B0A0140 		.word	1073810011
 1541 0168 22430040 		.word	1073759010
 1542 016c B0430040 		.word	1073759152
 1543              		.cfi_endproc
 1544              	.LFE12:
 1545              		.size	cyfitter_cfg, .-cyfitter_cfg
 1546              		.bss
 1547              		.align	3
 1548              	DMA_ZERO_VAL.4860:
 1549 0000 00000000 		.space	4
 1550 0004 00000000 		.section	.dma_init,"a",%progbits
 1551              		.align	2
 1552              		.type	CFG_TD_LIST0.4861, %object
 1553              		.size	CFG_TD_LIST0.4861, 512
 1554              	CFG_TD_LIST0.4861:
 1555 0000 0800     		.short	8
 1556 0002 02       		.byte	2
 1557 0003 23       		.byte	35
 1558 0004 0000     		.short	0
 1559 0006 0876     		.short	30216
 1560 0008 0800     		.short	8
 1561 000a 03       		.byte	3
 1562 000b 23       		.byte	35
 1563 000c 0000     		.short	0
 1564 000e 1076     		.short	30224
ARM GAS  C:\Users\jthem\AppData\Local\Temp\ccnLl47M.s 			page 46


 1565 0010 0800     		.short	8
 1566 0012 04       		.byte	4
 1567 0013 23       		.byte	35
 1568 0014 0000     		.short	0
 1569 0016 2876     		.short	30248
 1570 0018 0800     		.short	8
 1571 001a 05       		.byte	5
 1572 001b 23       		.byte	35
 1573 001c 0000     		.short	0
 1574 001e 3076     		.short	30256
 1575 0020 0500     		.short	5
 1576 0022 06       		.byte	6
 1577 0023 23       		.byte	35
 1578 0024 0000     		.short	0
 1579 0026 2070     		.short	28704
 1580 0028 0500     		.short	5
 1581 002a 07       		.byte	7
 1582 002b 23       		.byte	35
 1583 002c 0000     		.short	0
 1584 002e 3070     		.short	28720
 1585 0030 0500     		.short	5
 1586 0032 08       		.byte	8
 1587 0033 23       		.byte	35
 1588 0034 0000     		.short	0
 1589 0036 6070     		.short	28768
 1590 0038 0500     		.short	5
 1591 003a FE       		.byte	-2
 1592 003b 23       		.byte	35
 1593 003c 0000     		.short	0
 1594 003e 7070     		.short	28784
 1595 0040 1000     		.short	16
 1596 0042 FE       		.byte	-2
 1597 0043 22       		.byte	34
 1598 0044 0000     		.short	0
 1599 0046 1051     		.short	20752
 1600 0048 8003     		.short	896
 1601 004a 0B       		.byte	11
 1602 004b 22       		.byte	34
 1603 004c 0000     		.short	0
 1604 004e 0000     		.short	0
 1605 0050 8001     		.short	384
 1606 0052 0C       		.byte	12
 1607 0053 22       		.byte	34
 1608 0054 0000     		.short	0
 1609 0056 0004     		.short	1024
 1610 0058 8001     		.short	384
 1611 005a 0D       		.byte	13
 1612 005b 22       		.byte	34
 1613 005c 0000     		.short	0
 1614 005e 0006     		.short	1536
 1615 0060 8001     		.short	384
 1616 0062 0E       		.byte	14
 1617 0063 22       		.byte	34
 1618 0064 0000     		.short	0
 1619 0066 0008     		.short	2048
 1620 0068 0002     		.short	512
 1621 006a 0F       		.byte	15
ARM GAS  C:\Users\jthem\AppData\Local\Temp\ccnLl47M.s 			page 47


 1622 006b 22       		.byte	34
 1623 006c 0000     		.short	0
 1624 006e 000E     		.short	3584
 1625 0070 8001     		.short	384
 1626 0072 10       		.byte	16
 1627 0073 22       		.byte	34
 1628 0074 0000     		.short	0
 1629 0076 0014     		.short	5120
 1630 0078 8001     		.short	384
 1631 007a 11       		.byte	17
 1632 007b 22       		.byte	34
 1633 007c 0000     		.short	0
 1634 007e 0016     		.short	5632
 1635 0080 8001     		.short	384
 1636 0082 12       		.byte	18
 1637 0083 22       		.byte	34
 1638 0084 0000     		.short	0
 1639 0086 0018     		.short	6144
 1640 0088 8001     		.short	384
 1641 008a 13       		.byte	19
 1642 008b 22       		.byte	34
 1643 008c 0000     		.short	0
 1644 008e 001A     		.short	6656
 1645 0090 8000     		.short	128
 1646 0092 14       		.byte	20
 1647 0093 22       		.byte	34
 1648 0094 0000     		.short	0
 1649 0096 0041     		.short	16640
 1650 0098 8000     		.short	128
 1651 009a 15       		.byte	21
 1652 009b 22       		.byte	34
 1653 009c 0000     		.short	0
 1654 009e 0043     		.short	17152
 1655 00a0 8001     		.short	384
 1656 00a2 16       		.byte	22
 1657 00a3 22       		.byte	34
 1658 00a4 0000     		.short	0
 1659 00a6 0044     		.short	17408
 1660 00a8 8000     		.short	128
 1661 00aa 17       		.byte	23
 1662 00ab 22       		.byte	34
 1663 00ac 0000     		.short	0
 1664 00ae 004C     		.short	19456
 1665 00b0 0001     		.short	256
 1666 00b2 18       		.byte	24
 1667 00b3 22       		.byte	34
 1668 00b4 0000     		.short	0
 1669 00b6 004D     		.short	19712
 1670 00b8 1000     		.short	16
 1671 00ba FE       		.byte	-2
 1672 00bb 22       		.byte	34
 1673 00bc 0000     		.short	0
 1674 00be 1050     		.short	20496
 1675 00c0 0600     		.short	6
 1676 00c2 1A       		.byte	26
 1677 00c3 23       		.byte	35
 1678 00c4 0000     		.short	0
ARM GAS  C:\Users\jthem\AppData\Local\Temp\ccnLl47M.s 			page 48


 1679 00c6 6052     		.short	21088
 1680 00c8 0700     		.short	7
 1681 00ca 1B       		.byte	27
 1682 00cb 23       		.byte	35
 1683 00cc 0000     		.short	0
 1684 00ce 7852     		.short	21112
 1685 00d0 0800     		.short	8
 1686 00d2 1C       		.byte	28
 1687 00d3 23       		.byte	35
 1688 00d4 0000     		.short	0
 1689 00d6 7845     		.short	17784
 1690 00d8 0800     		.short	8
 1691 00da 1D       		.byte	29
 1692 00db 23       		.byte	35
 1693 00dc 0000     		.short	0
 1694 00de 905A     		.short	23184
 1695 00e0 0800     		.short	8
 1696 00e2 1E       		.byte	30
 1697 00e3 23       		.byte	35
 1698 00e4 0000     		.short	0
 1699 00e6 985A     		.short	23192
 1700 00e8 2000     		.short	32
 1701 00ea FE       		.byte	-2
 1702 00eb 23       		.byte	35
 1703 00ec 0000     		.short	0
 1704 00ee 7064     		.short	25712
 1705 00f0 0800     		.short	8
 1706 00f2 20       		.byte	32
 1707 00f3 23       		.byte	35
 1708 00f4 0000     		.short	0
 1709 00f6 0051     		.short	20736
 1710 00f8 8000     		.short	128
 1711 00fa 21       		.byte	33
 1712 00fb 23       		.byte	35
 1713 00fc 0000     		.short	0
 1714 00fe 000A     		.short	2560
 1715 0100 8000     		.short	128
 1716 0102 22       		.byte	34
 1717 0103 23       		.byte	35
 1718 0104 0000     		.short	0
 1719 0106 800A     		.short	2688
 1720 0108 8000     		.short	128
 1721 010a 23       		.byte	35
 1722 010b 23       		.byte	35
 1723 010c 0000     		.short	0
 1724 010e 000C     		.short	3072
 1725 0110 8000     		.short	128
 1726 0112 24       		.byte	36
 1727 0113 23       		.byte	35
 1728 0114 0000     		.short	0
 1729 0116 800C     		.short	3200
 1730 0118 1000     		.short	16
 1731 011a 25       		.byte	37
 1732 011b 23       		.byte	35
 1733 011c 0000     		.short	0
 1734 011e 0050     		.short	20480
 1735 0120 8000     		.short	128
ARM GAS  C:\Users\jthem\AppData\Local\Temp\ccnLl47M.s 			page 49


 1736 0122 26       		.byte	38
 1737 0123 23       		.byte	35
 1738 0124 0000     		.short	0
 1739 0126 804C     		.short	19584
 1740 0128 8000     		.short	128
 1741 012a 27       		.byte	39
 1742 012b 23       		.byte	35
 1743 012c 0000     		.short	0
 1744 012e 0047     		.short	18176
 1745 0130 8000     		.short	128
 1746 0132 28       		.byte	40
 1747 0133 23       		.byte	35
 1748 0134 0000     		.short	0
 1749 0136 8047     		.short	18304
 1750 0138 8000     		.short	128
 1751 013a 29       		.byte	41
 1752 013b 23       		.byte	35
 1753 013c 0000     		.short	0
 1754 013e 0046     		.short	17920
 1755 0140 8000     		.short	128
 1756 0142 2A       		.byte	42
 1757 0143 23       		.byte	35
 1758 0144 0000     		.short	0
 1759 0146 8046     		.short	18048
 1760 0148 8000     		.short	128
 1761 014a 2B       		.byte	43
 1762 014b 23       		.byte	35
 1763 014c 0000     		.short	0
 1764 014e 8045     		.short	17792
 1765 0150 8000     		.short	128
 1766 0152 2C       		.byte	44
 1767 0153 23       		.byte	35
 1768 0154 0000     		.short	0
 1769 0156 801B     		.short	7040
 1770 0158 8000     		.short	128
 1771 015a 2D       		.byte	45
 1772 015b 23       		.byte	35
 1773 015c 0000     		.short	0
 1774 015e 8015     		.short	5504
 1775 0160 8000     		.short	128
 1776 0162 2E       		.byte	46
 1777 0163 23       		.byte	35
 1778 0164 0000     		.short	0
 1779 0166 8019     		.short	6528
 1780 0168 8000     		.short	128
 1781 016a 2F       		.byte	47
 1782 016b 23       		.byte	35
 1783 016c 0000     		.short	0
 1784 016e 8017     		.short	6016
 1785 0170 8000     		.short	128
 1786 0172 30       		.byte	48
 1787 0173 23       		.byte	35
 1788 0174 0000     		.short	0
 1789 0176 8009     		.short	2432
 1790 0178 8000     		.short	128
 1791 017a 31       		.byte	49
 1792 017b 23       		.byte	35
ARM GAS  C:\Users\jthem\AppData\Local\Temp\ccnLl47M.s 			page 50


 1793 017c 0000     		.short	0
 1794 017e 8007     		.short	1920
 1795 0180 8000     		.short	128
 1796 0182 32       		.byte	50
 1797 0183 23       		.byte	35
 1798 0184 0000     		.short	0
 1799 0186 000B     		.short	2816
 1800 0188 8000     		.short	128
 1801 018a 33       		.byte	51
 1802 018b 23       		.byte	35
 1803 018c 0000     		.short	0
 1804 018e 800B     		.short	2944
 1805 0190 8000     		.short	128
 1806 0192 34       		.byte	52
 1807 0193 23       		.byte	35
 1808 0194 0000     		.short	0
 1809 0196 8005     		.short	1408
 1810 0198 8000     		.short	128
 1811 019a 35       		.byte	53
 1812 019b 23       		.byte	35
 1813 019c 0000     		.short	0
 1814 019e 000D     		.short	3328
 1815 01a0 8000     		.short	128
 1816 01a2 36       		.byte	54
 1817 01a3 23       		.byte	35
 1818 01a4 0000     		.short	0
 1819 01a6 800D     		.short	3456
 1820 01a8 8000     		.short	128
 1821 01aa 37       		.byte	55
 1822 01ab 23       		.byte	35
 1823 01ac 0000     		.short	0
 1824 01ae 8003     		.short	896
 1825 01b0 8000     		.short	128
 1826 01b2 38       		.byte	56
 1827 01b3 23       		.byte	35
 1828 01b4 0000     		.short	0
 1829 01b6 0049     		.short	18688
 1830 01b8 8000     		.short	128
 1831 01ba 39       		.byte	57
 1832 01bb 23       		.byte	35
 1833 01bc 0000     		.short	0
 1834 01be 8049     		.short	18816
 1835 01c0 8000     		.short	128
 1836 01c2 3A       		.byte	58
 1837 01c3 23       		.byte	35
 1838 01c4 0000     		.short	0
 1839 01c6 0048     		.short	18432
 1840 01c8 8000     		.short	128
 1841 01ca 3B       		.byte	59
 1842 01cb 23       		.byte	35
 1843 01cc 0000     		.short	0
 1844 01ce 8048     		.short	18560
 1845 01d0 8000     		.short	128
 1846 01d2 3C       		.byte	60
 1847 01d3 23       		.byte	35
 1848 01d4 0000     		.short	0
 1849 01d6 8043     		.short	17280
ARM GAS  C:\Users\jthem\AppData\Local\Temp\ccnLl47M.s 			page 51


 1850 01d8 8000     		.short	128
 1851 01da 3D       		.byte	61
 1852 01db 23       		.byte	35
 1853 01dc 0000     		.short	0
 1854 01de 0042     		.short	16896
 1855 01e0 8000     		.short	128
 1856 01e2 3E       		.byte	62
 1857 01e3 23       		.byte	35
 1858 01e4 0000     		.short	0
 1859 01e6 8042     		.short	17024
 1860 01e8 8000     		.short	128
 1861 01ea 3F       		.byte	63
 1862 01eb 23       		.byte	35
 1863 01ec 0000     		.short	0
 1864 01ee 8041     		.short	16768
 1865 01f0 8000     		.short	128
 1866 01f2 40       		.byte	64
 1867 01f3 23       		.byte	35
 1868 01f4 0000     		.short	0
 1869 01f6 0040     		.short	16384
 1870 01f8 8000     		.short	128
 1871 01fa FE       		.byte	-2
 1872 01fb 23       		.byte	35
 1873 01fc 0000     		.short	0
 1874 01fe 8040     		.short	16512
 1875              		.section	.rodata
 1876              		.align	2
 1877              		.type	CFG_TD_ADDR0.4862, %object
 1878              		.size	CFG_TD_ADDR0.4862, 256
 1879              	CFG_TD_ADDR0.4862:
 1880 0280 20020000 		.word	CH1_ADDR_DATA0.4855
 1881 0284 18020000 		.word	CH2_ADDR_DATA0.4856
 1882 0288 10020000 		.word	CH5_ADDR_DATA0.4857
 1883 028c 08020000 		.word	CH6_ADDR_DATA0.4858
 1884 0290 00020000 		.word	DMA_TD_START_CMD.4859
 1885 0294 00020000 		.word	DMA_TD_START_CMD.4859
 1886 0298 00020000 		.word	DMA_TD_START_CMD.4859
 1887 029c 00020000 		.word	DMA_TD_START_CMD.4859
 1888 02a0 00000000 		.word	DMA_ZERO_VAL.4860
 1889 02a4 00000000 		.word	DMA_ZERO_VAL.4860
 1890 02a8 00000000 		.word	DMA_ZERO_VAL.4860
 1891 02ac 00000000 		.word	DMA_ZERO_VAL.4860
 1892 02b0 00000000 		.word	DMA_ZERO_VAL.4860
 1893 02b4 00000000 		.word	DMA_ZERO_VAL.4860
 1894 02b8 00000000 		.word	DMA_ZERO_VAL.4860
 1895 02bc 00000000 		.word	DMA_ZERO_VAL.4860
 1896 02c0 00000000 		.word	DMA_ZERO_VAL.4860
 1897 02c4 00000000 		.word	DMA_ZERO_VAL.4860
 1898 02c8 00000000 		.word	DMA_ZERO_VAL.4860
 1899 02cc 00000000 		.word	DMA_ZERO_VAL.4860
 1900 02d0 00000000 		.word	DMA_ZERO_VAL.4860
 1901 02d4 00000000 		.word	DMA_ZERO_VAL.4860
 1902 02d8 00000000 		.word	DMA_ZERO_VAL.4860
 1903 02dc 00000000 		.word	DMA_ZERO_VAL.4860
 1904 02e0 08000048 		.word	1207959560
 1905 02e4 10000048 		.word	1207959568
 1906 02e8 18000048 		.word	1207959576
ARM GAS  C:\Users\jthem\AppData\Local\Temp\ccnLl47M.s 			page 52


 1907 02ec 28000048 		.word	1207959592
 1908 02f0 30000048 		.word	1207959600
 1909 02f4 38020048 		.word	1207960120
 1910 02f8 20000048 		.word	1207959584
 1911 02fc 38000048 		.word	1207959608
 1912 0300 B8000048 		.word	1207959736
 1913 0304 38010048 		.word	1207959864
 1914 0308 B8010048 		.word	1207959992
 1915 030c 58020048 		.word	1207960152
 1916 0310 68020048 		.word	1207960168
 1917 0314 E8020048 		.word	1207960296
 1918 0318 68030048 		.word	1207960424
 1919 031c E8030048 		.word	1207960552
 1920 0320 68040048 		.word	1207960680
 1921 0324 E8040048 		.word	1207960808
 1922 0328 68050048 		.word	1207960936
 1923 032c E8050048 		.word	1207961064
 1924 0330 68060048 		.word	1207961192
 1925 0334 E8060048 		.word	1207961320
 1926 0338 68070048 		.word	1207961448
 1927 033c E8070048 		.word	1207961576
 1928 0340 68080048 		.word	1207961704
 1929 0344 E8080048 		.word	1207961832
 1930 0348 68090048 		.word	1207961960
 1931 034c E8090048 		.word	1207962088
 1932 0350 680A0048 		.word	1207962216
 1933 0354 E80A0048 		.word	1207962344
 1934 0358 680B0048 		.word	1207962472
 1935 035c E80B0048 		.word	1207962600
 1936 0360 680C0048 		.word	1207962728
 1937 0364 E80C0048 		.word	1207962856
 1938 0368 680D0048 		.word	1207962984
 1939 036c E80D0048 		.word	1207963112
 1940 0370 680E0048 		.word	1207963240
 1941 0374 E80E0048 		.word	1207963368
 1942 0378 680F0048 		.word	1207963496
 1943 037c E80F0048 		.word	1207963624
 1944              		.section	.dma_init
 1945              		.align	2
 1946              		.type	DMA_TD_START_CMD.4859, %object
 1947              		.size	DMA_TD_START_CMD.4859, 5
 1948              	DMA_TD_START_CMD.4859:
 1949 0200 01       		.byte	1
 1950 0201 00       		.byte	0
 1951 0202 00       		.byte	0
 1952 0203 00       		.byte	0
 1953 0204 01       		.byte	1
 1954 0205 000000   		.align	2
 1955              		.type	CH6_ADDR_DATA0.4858, %object
 1956              		.size	CH6_ADDR_DATA0.4858, 8
 1957              	CH6_ADDR_DATA0.4858:
 1958 0208 01       		.byte	1
 1959 0209 00       		.byte	0
 1960 020a 00       		.byte	0
 1961 020b 00       		.byte	0
 1962 020c 00       		.byte	0
 1963 020d 48       		.byte	72
ARM GAS  C:\Users\jthem\AppData\Local\Temp\ccnLl47M.s 			page 53


 1964 020e 01       		.byte	1
 1965 020f 40       		.byte	64
 1966              		.align	2
 1967              		.type	CH5_ADDR_DATA0.4857, %object
 1968              		.size	CH5_ADDR_DATA0.4857, 8
 1969              	CH5_ADDR_DATA0.4857:
 1970 0210 01       		.byte	1
 1971 0211 00       		.byte	0
 1972 0212 00       		.byte	0
 1973 0213 00       		.byte	0
 1974 0214 00       		.byte	0
 1975 0215 48       		.byte	72
 1976 0216 00       		.byte	0
 1977 0217 40       		.byte	64
 1978              		.align	2
 1979              		.type	CH2_ADDR_DATA0.4856, %object
 1980              		.size	CH2_ADDR_DATA0.4856, 8
 1981              	CH2_ADDR_DATA0.4856:
 1982 0218 01       		.byte	1
 1983 0219 00       		.byte	0
 1984 021a 00       		.byte	0
 1985 021b 00       		.byte	0
 1986 021c 00       		.byte	0
 1987 021d 20       		.byte	32
 1988 021e 01       		.byte	1
 1989 021f 40       		.byte	64
 1990              		.align	2
 1991              		.type	CH1_ADDR_DATA0.4855, %object
 1992              		.size	CH1_ADDR_DATA0.4855, 8
 1993              	CH1_ADDR_DATA0.4855:
 1994 0220 01       		.byte	1
 1995 0221 00       		.byte	0
 1996 0222 00       		.byte	0
 1997 0223 00       		.byte	0
 1998 0224 00       		.byte	0
 1999 0225 20       		.byte	32
 2000 0226 00       		.byte	0
 2001 0227 40       		.byte	64
 2002              		.text
 2003              	.Letext0:
 2004              		.file 2 "c:\\program files (x86)\\cypress\\psoc creator\\3.3\\psoc creator\\import\\gnu\\arm\\4.9.
 2005              		.file 3 ".\\Generated_Source\\PSoC5\\cytypes.h"