ARM GAS  C:\Users\jthem\AppData\Local\Temp\ccgfKsBy.s 			page 1


   1              		.syntax unified
   2              		.cpu cortex-m3
   3              		.fpu softvfp
   4              		.eabi_attribute 20, 1
   5              		.eabi_attribute 21, 1
   6              		.eabi_attribute 23, 3
   7              		.eabi_attribute 24, 1
   8              		.eabi_attribute 25, 1
   9              		.eabi_attribute 26, 1
  10              		.eabi_attribute 30, 6
  11              		.eabi_attribute 34, 1
  12              		.eabi_attribute 18, 4
  13              		.thumb
  14              		.file	"FunctionGenerator.c"
  15              		.text
  16              	.Ltext0:
  17              		.cfi_sections	.debug_frame
  18              		.comm	waveform0,4000,4
  19              		.comm	waveform1,4000,4
  20              		.section	.text.StopWaveDac,"ax",%progbits
  21              		.align	2
  22              		.global	StopWaveDac
  23              		.thumb
  24              		.thumb_func
  25              		.type	StopWaveDac, %function
  26              	StopWaveDac:
  27              	.LFB0:
  28              		.file 1 ".\\FunctionGenerator.c"
   1:.\FunctionGenerator.c **** /* ========================================
   2:.\FunctionGenerator.c ****  *
   3:.\FunctionGenerator.c ****  * Copyright 2016 John Harkins and Li He
   4:.\FunctionGenerator.c ****  * All Rights Reserved
   5:.\FunctionGenerator.c ****  *
   6:.\FunctionGenerator.c ****  * ========================================
   7:.\FunctionGenerator.c **** */
   8:.\FunctionGenerator.c **** 
   9:.\FunctionGenerator.c **** #include <math.h>
  10:.\FunctionGenerator.c **** #include "FunctionGenerator.h"
  11:.\FunctionGenerator.c **** 
  12:.\FunctionGenerator.c **** extern void WaveDAC_0_Clock_SetDividerRegister(uint16 clkDivider, uint8 restart);
  13:.\FunctionGenerator.c **** extern void WaveDAC_1_Clock_SetDividerRegister(uint16 clkDivider, uint8 restart);
  14:.\FunctionGenerator.c **** extern void WaveDAC_0_Stop();
  15:.\FunctionGenerator.c **** extern void WaveDAC_1_Stop();
  16:.\FunctionGenerator.c **** extern void WaveDAC_0_StartEx(const uint8 * wavePtr1, uint16 sampleSize1, 
  17:.\FunctionGenerator.c ****                                    const uint8 * wavePtr2, uint16 sampleSize2);
  18:.\FunctionGenerator.c **** extern void WaveDAC_1_StartEx(const uint8 * wavePtr1, uint16 sampleSize1, 
  19:.\FunctionGenerator.c ****                                    const uint8 * wavePtr2, uint16 sampleSize2);
  20:.\FunctionGenerator.c **** 
  21:.\FunctionGenerator.c **** uint8 waveform0[MAX_NUM_SAMPLES];
  22:.\FunctionGenerator.c **** uint8 waveform1[MAX_NUM_SAMPLES];
  23:.\FunctionGenerator.c **** 
  24:.\FunctionGenerator.c **** 
  25:.\FunctionGenerator.c **** /*******************************************************************************
  26:.\FunctionGenerator.c **** * Function Name: StopWaveDac
  27:.\FunctionGenerator.c **** ********************************************************************************
  28:.\FunctionGenerator.c **** *
  29:.\FunctionGenerator.c **** * Summary
ARM GAS  C:\Users\jthem\AppData\Local\Temp\ccgfKsBy.s 			page 2


  30:.\FunctionGenerator.c **** *  Turns off the waveform for the specified function generator
  31:.\FunctionGenerator.c **** *
  32:.\FunctionGenerator.c **** * Parameters:
  33:.\FunctionGenerator.c **** *  fnGenerator - the index of the function generator to be stopped
  34:.\FunctionGenerator.c **** *
  35:.\FunctionGenerator.c **** * Return:
  36:.\FunctionGenerator.c **** *  None.
  37:.\FunctionGenerator.c **** *
  38:.\FunctionGenerator.c **** *******************************************************************************/
  39:.\FunctionGenerator.c **** void StopWaveDac(int fnGenerator)
  40:.\FunctionGenerator.c **** {
  29              		.loc 1 40 0
  30              		.cfi_startproc
  31              		@ args = 0, pretend = 0, frame = 8
  32              		@ frame_needed = 1, uses_anonymous_args = 0
  33 0000 80B5     		push	{r7, lr}
  34              		.cfi_def_cfa_offset 8
  35              		.cfi_offset 7, -8
  36              		.cfi_offset 14, -4
  37 0002 82B0     		sub	sp, sp, #8
  38              		.cfi_def_cfa_offset 16
  39 0004 00AF     		add	r7, sp, #0
  40              		.cfi_def_cfa_register 7
  41 0006 7860     		str	r0, [r7, #4]
  41:.\FunctionGenerator.c ****     if (fnGenerator == 0) {
  42              		.loc 1 41 0
  43 0008 7B68     		ldr	r3, [r7, #4]
  44 000a 002B     		cmp	r3, #0
  45 000c 02D1     		bne	.L2
  42:.\FunctionGenerator.c ****         WaveDAC_0_Stop();
  46              		.loc 1 42 0
  47 000e FFF7FEFF 		bl	WaveDAC_0_Stop
  48 0012 04E0     		b	.L1
  49              	.L2:
  43:.\FunctionGenerator.c ****     } else if (fnGenerator == 1) {
  50              		.loc 1 43 0
  51 0014 7B68     		ldr	r3, [r7, #4]
  52 0016 012B     		cmp	r3, #1
  53 0018 01D1     		bne	.L1
  44:.\FunctionGenerator.c ****         WaveDAC_1_Stop();
  54              		.loc 1 44 0
  55 001a FFF7FEFF 		bl	WaveDAC_1_Stop
  56              	.L1:
  45:.\FunctionGenerator.c ****     }   
  46:.\FunctionGenerator.c **** }
  57              		.loc 1 46 0
  58 001e 0837     		adds	r7, r7, #8
  59              		.cfi_def_cfa_offset 8
  60 0020 BD46     		mov	sp, r7
  61              		.cfi_def_cfa_register 13
  62              		@ sp needed
  63 0022 80BD     		pop	{r7, pc}
  64              		.cfi_endproc
  65              	.LFE0:
  66              		.size	StopWaveDac, .-StopWaveDac
  67              		.section	.text.StartWaveDac,"ax",%progbits
  68              		.align	2
ARM GAS  C:\Users\jthem\AppData\Local\Temp\ccgfKsBy.s 			page 3


  69              		.global	StartWaveDac
  70              		.thumb
  71              		.thumb_func
  72              		.type	StartWaveDac, %function
  73              	StartWaveDac:
  74              	.LFB1:
  47:.\FunctionGenerator.c **** 
  48:.\FunctionGenerator.c **** 
  49:.\FunctionGenerator.c **** /*******************************************************************************
  50:.\FunctionGenerator.c **** * Function Name: StartWaveDac
  51:.\FunctionGenerator.c **** ********************************************************************************
  52:.\FunctionGenerator.c **** *
  53:.\FunctionGenerator.c **** * Summary
  54:.\FunctionGenerator.c **** *  Starts waveform generation on a specified WaveDAC
  55:.\FunctionGenerator.c **** *
  56:.\FunctionGenerator.c **** * Parameters:
  57:.\FunctionGenerator.c **** *  numSamples - the number of samples (number of elements in waveform)
  58:.\FunctionGenerator.c **** *  fnGenerator - the index of the function generator to be started
  59:.\FunctionGenerator.c **** *  waveform - the raw array of waveform samples
  60:.\FunctionGenerator.c **** *
  61:.\FunctionGenerator.c **** * Return:
  62:.\FunctionGenerator.c **** *  None.
  63:.\FunctionGenerator.c **** *
  64:.\FunctionGenerator.c **** *******************************************************************************/
  65:.\FunctionGenerator.c **** void StartWaveDac(int numSamples, int fnGenerator, uint8 *waveform)
  66:.\FunctionGenerator.c **** {    
  75              		.loc 1 66 0
  76              		.cfi_startproc
  77              		@ args = 0, pretend = 0, frame = 16
  78              		@ frame_needed = 1, uses_anonymous_args = 0
  79 0000 80B5     		push	{r7, lr}
  80              		.cfi_def_cfa_offset 8
  81              		.cfi_offset 7, -8
  82              		.cfi_offset 14, -4
  83 0002 84B0     		sub	sp, sp, #16
  84              		.cfi_def_cfa_offset 24
  85 0004 00AF     		add	r7, sp, #0
  86              		.cfi_def_cfa_register 7
  87 0006 F860     		str	r0, [r7, #12]
  88 0008 B960     		str	r1, [r7, #8]
  89 000a 7A60     		str	r2, [r7, #4]
  67:.\FunctionGenerator.c ****     switch (fnGenerator) {
  90              		.loc 1 67 0
  91 000c BB68     		ldr	r3, [r7, #8]
  92 000e 032B     		cmp	r3, #3
  93 0010 3ED8     		bhi	.L4
  94 0012 01A2     		adr	r2, .L7
  95 0014 52F823F0 		ldr	pc, [r2, r3, lsl #2]
  96              		.p2align 2
  97              	.L7:
  98 0018 29000000 		.word	.L6+1
  99 001c 43000000 		.word	.L8+1
 100 0020 5D000000 		.word	.L9+1
 101 0024 77000000 		.word	.L10+1
 102              		.p2align 1
 103              	.L6:
  68:.\FunctionGenerator.c ****         case WAVEDAC_LOW_0:
ARM GAS  C:\Users\jthem\AppData\Local\Temp\ccgfKsBy.s 			page 4


  69:.\FunctionGenerator.c ****             WaveDAC_0_Clock_SetDividerRegister(LOW_DIVIDER_REGISTER, 1);
 104              		.loc 1 69 0
 105 0028 7720     		movs	r0, #119
 106 002a 0121     		movs	r1, #1
 107 002c FFF7FEFF 		bl	WaveDAC_0_Clock_SetDividerRegister
  70:.\FunctionGenerator.c ****             WaveDAC_0_StartEx(waveform, numSamples, NULL, 0);
 108              		.loc 1 70 0
 109 0030 FB68     		ldr	r3, [r7, #12]
 110 0032 9BB2     		uxth	r3, r3
 111 0034 7868     		ldr	r0, [r7, #4]
 112 0036 1946     		mov	r1, r3
 113 0038 0022     		movs	r2, #0
 114 003a 0023     		movs	r3, #0
 115 003c FFF7FEFF 		bl	WaveDAC_0_StartEx
  71:.\FunctionGenerator.c ****             break;
 116              		.loc 1 71 0
 117 0040 26E0     		b	.L4
 118              	.L8:
  72:.\FunctionGenerator.c ****         case WAVEDAC_HIGH_0:
  73:.\FunctionGenerator.c ****             WaveDAC_0_Clock_SetDividerRegister(HIGH_DIVIDER_REGISTER, 1);
 119              		.loc 1 73 0
 120 0042 0520     		movs	r0, #5
 121 0044 0121     		movs	r1, #1
 122 0046 FFF7FEFF 		bl	WaveDAC_0_Clock_SetDividerRegister
  74:.\FunctionGenerator.c ****             WaveDAC_0_StartEx(waveform, numSamples, NULL, 0);
 123              		.loc 1 74 0
 124 004a FB68     		ldr	r3, [r7, #12]
 125 004c 9BB2     		uxth	r3, r3
 126 004e 7868     		ldr	r0, [r7, #4]
 127 0050 1946     		mov	r1, r3
 128 0052 0022     		movs	r2, #0
 129 0054 0023     		movs	r3, #0
 130 0056 FFF7FEFF 		bl	WaveDAC_0_StartEx
  75:.\FunctionGenerator.c ****             break;
 131              		.loc 1 75 0
 132 005a 19E0     		b	.L4
 133              	.L9:
  76:.\FunctionGenerator.c ****         case WAVEDAC_LOW_1:
  77:.\FunctionGenerator.c ****             WaveDAC_1_Clock_SetDividerRegister(LOW_DIVIDER_REGISTER, 1);
 134              		.loc 1 77 0
 135 005c 7720     		movs	r0, #119
 136 005e 0121     		movs	r1, #1
 137 0060 FFF7FEFF 		bl	WaveDAC_1_Clock_SetDividerRegister
  78:.\FunctionGenerator.c ****             WaveDAC_1_StartEx(waveform, numSamples, NULL, 0);
 138              		.loc 1 78 0
 139 0064 FB68     		ldr	r3, [r7, #12]
 140 0066 9BB2     		uxth	r3, r3
 141 0068 7868     		ldr	r0, [r7, #4]
 142 006a 1946     		mov	r1, r3
 143 006c 0022     		movs	r2, #0
 144 006e 0023     		movs	r3, #0
 145 0070 FFF7FEFF 		bl	WaveDAC_1_StartEx
  79:.\FunctionGenerator.c ****             break;
 146              		.loc 1 79 0
 147 0074 0CE0     		b	.L4
 148              	.L10:
  80:.\FunctionGenerator.c ****         case WAVEDAC_HIGH_1:
ARM GAS  C:\Users\jthem\AppData\Local\Temp\ccgfKsBy.s 			page 5


  81:.\FunctionGenerator.c ****             WaveDAC_1_Clock_SetDividerRegister(HIGH_DIVIDER_REGISTER, 1);
 149              		.loc 1 81 0
 150 0076 0520     		movs	r0, #5
 151 0078 0121     		movs	r1, #1
 152 007a FFF7FEFF 		bl	WaveDAC_1_Clock_SetDividerRegister
  82:.\FunctionGenerator.c ****             WaveDAC_1_StartEx(waveform, numSamples, NULL, 0);
 153              		.loc 1 82 0
 154 007e FB68     		ldr	r3, [r7, #12]
 155 0080 9BB2     		uxth	r3, r3
 156 0082 7868     		ldr	r0, [r7, #4]
 157 0084 1946     		mov	r1, r3
 158 0086 0022     		movs	r2, #0
 159 0088 0023     		movs	r3, #0
 160 008a FFF7FEFF 		bl	WaveDAC_1_StartEx
  83:.\FunctionGenerator.c ****             break;
 161              		.loc 1 83 0
 162 008e 00BF     		nop
 163              	.L4:
  84:.\FunctionGenerator.c ****     }    
  85:.\FunctionGenerator.c **** }
 164              		.loc 1 85 0
 165 0090 1037     		adds	r7, r7, #16
 166              		.cfi_def_cfa_offset 8
 167 0092 BD46     		mov	sp, r7
 168              		.cfi_def_cfa_register 13
 169              		@ sp needed
 170 0094 80BD     		pop	{r7, pc}
 171              		.cfi_endproc
 172              	.LFE1:
 173              		.size	StartWaveDac, .-StartWaveDac
 174 0096 00BF     		.section	.text.SetSquare,"ax",%progbits
 175              		.align	2
 176              		.global	SetSquare
 177              		.thumb
 178              		.thumb_func
 179              		.type	SetSquare, %function
 180              	SetSquare:
 181              	.LFB2:
  86:.\FunctionGenerator.c **** 
  87:.\FunctionGenerator.c **** 
  88:.\FunctionGenerator.c **** /*******************************************************************************
  89:.\FunctionGenerator.c **** * Function Name: SetSquare
  90:.\FunctionGenerator.c **** ********************************************************************************
  91:.\FunctionGenerator.c **** *
  92:.\FunctionGenerator.c **** * Summary
  93:.\FunctionGenerator.c **** *  Sets currentWaveform as a square wave with 50% duty cycle
  94:.\FunctionGenerator.c **** *
  95:.\FunctionGenerator.c **** * Parameters:
  96:.\FunctionGenerator.c **** *  numSamples - the number of samples (number of elements in waveform)
  97:.\FunctionGenerator.c **** *  currentWaveform - the raw array of waveform samples to be filled
  98:.\FunctionGenerator.c **** *
  99:.\FunctionGenerator.c **** * Return:
 100:.\FunctionGenerator.c **** *  None.
 101:.\FunctionGenerator.c **** *
 102:.\FunctionGenerator.c **** *******************************************************************************/
 103:.\FunctionGenerator.c **** void SetSquare(int numSamples, uint8 voltage, uint8 *currentWaveform)
 104:.\FunctionGenerator.c **** {
ARM GAS  C:\Users\jthem\AppData\Local\Temp\ccgfKsBy.s 			page 6


 182              		.loc 1 104 0
 183              		.cfi_startproc
 184              		@ args = 0, pretend = 0, frame = 24
 185              		@ frame_needed = 1, uses_anonymous_args = 0
 186              		@ link register save eliminated.
 187 0000 80B4     		push	{r7}
 188              		.cfi_def_cfa_offset 4
 189              		.cfi_offset 7, -4
 190 0002 87B0     		sub	sp, sp, #28
 191              		.cfi_def_cfa_offset 32
 192 0004 00AF     		add	r7, sp, #0
 193              		.cfi_def_cfa_register 7
 194 0006 F860     		str	r0, [r7, #12]
 195 0008 0B46     		mov	r3, r1
 196 000a 7A60     		str	r2, [r7, #4]
 197 000c FB72     		strb	r3, [r7, #11]
 105:.\FunctionGenerator.c ****     int i;
 106:.\FunctionGenerator.c ****     for (i = 0; i < numSamples; i++) {
 198              		.loc 1 106 0
 199 000e 0023     		movs	r3, #0
 200 0010 7B61     		str	r3, [r7, #20]
 201 0012 15E0     		b	.L12
 202              	.L15:
 107:.\FunctionGenerator.c ****         if (i < numSamples / 2) {
 203              		.loc 1 107 0
 204 0014 FB68     		ldr	r3, [r7, #12]
 205 0016 DA0F     		lsrs	r2, r3, #31
 206 0018 1344     		add	r3, r3, r2
 207 001a 5B10     		asrs	r3, r3, #1
 208 001c 1A46     		mov	r2, r3
 209 001e 7B69     		ldr	r3, [r7, #20]
 210 0020 9A42     		cmp	r2, r3
 211 0022 05DD     		ble	.L13
 108:.\FunctionGenerator.c ****             currentWaveform[i] = voltage;
 212              		.loc 1 108 0
 213 0024 7B69     		ldr	r3, [r7, #20]
 214 0026 7A68     		ldr	r2, [r7, #4]
 215 0028 1344     		add	r3, r3, r2
 216 002a FA7A     		ldrb	r2, [r7, #11]
 217 002c 1A70     		strb	r2, [r3]
 218 002e 04E0     		b	.L14
 219              	.L13:
 109:.\FunctionGenerator.c ****         }
 110:.\FunctionGenerator.c ****         else {
 111:.\FunctionGenerator.c ****             currentWaveform[i] = 0;   
 220              		.loc 1 111 0
 221 0030 7B69     		ldr	r3, [r7, #20]
 222 0032 7A68     		ldr	r2, [r7, #4]
 223 0034 1344     		add	r3, r3, r2
 224 0036 0022     		movs	r2, #0
 225 0038 1A70     		strb	r2, [r3]
 226              	.L14:
 106:.\FunctionGenerator.c ****         if (i < numSamples / 2) {
 227              		.loc 1 106 0 discriminator 2
 228 003a 7B69     		ldr	r3, [r7, #20]
 229 003c 0133     		adds	r3, r3, #1
 230 003e 7B61     		str	r3, [r7, #20]
ARM GAS  C:\Users\jthem\AppData\Local\Temp\ccgfKsBy.s 			page 7


 231              	.L12:
 106:.\FunctionGenerator.c ****         if (i < numSamples / 2) {
 232              		.loc 1 106 0 is_stmt 0 discriminator 1
 233 0040 7A69     		ldr	r2, [r7, #20]
 234 0042 FB68     		ldr	r3, [r7, #12]
 235 0044 9A42     		cmp	r2, r3
 236 0046 E5DB     		blt	.L15
 112:.\FunctionGenerator.c ****         }
 113:.\FunctionGenerator.c ****     }
 114:.\FunctionGenerator.c **** }
 237              		.loc 1 114 0 is_stmt 1
 238 0048 1C37     		adds	r7, r7, #28
 239              		.cfi_def_cfa_offset 4
 240 004a BD46     		mov	sp, r7
 241              		.cfi_def_cfa_register 13
 242              		@ sp needed
 243 004c 5DF8047B 		ldr	r7, [sp], #4
 244              		.cfi_restore 7
 245              		.cfi_def_cfa_offset 0
 246 0050 7047     		bx	lr
 247              		.cfi_endproc
 248              	.LFE2:
 249              		.size	SetSquare, .-SetSquare
 250              		.global	__aeabi_i2d
 251              		.global	__aeabi_dmul
 252              		.global	__aeabi_ddiv
 253              		.global	__aeabi_dadd
 254              		.global	__aeabi_d2uiz
 255 0052 00BF     		.section	.text.SetSine,"ax",%progbits
 256              		.align	2
 257              		.global	SetSine
 258              		.thumb
 259              		.thumb_func
 260              		.type	SetSine, %function
 261              	SetSine:
 262              	.LFB3:
 115:.\FunctionGenerator.c **** 
 116:.\FunctionGenerator.c **** 
 117:.\FunctionGenerator.c **** /*******************************************************************************
 118:.\FunctionGenerator.c **** * Function Name: SetSine
 119:.\FunctionGenerator.c **** ********************************************************************************
 120:.\FunctionGenerator.c **** *
 121:.\FunctionGenerator.c **** * Summary
 122:.\FunctionGenerator.c **** *  Sets currentWaveform as a sine wave
 123:.\FunctionGenerator.c **** *
 124:.\FunctionGenerator.c **** * Parameters:
 125:.\FunctionGenerator.c **** *  numSamples - the number of samples (number of elements in waveform)
 126:.\FunctionGenerator.c **** *  currentWaveform - the raw array of waveform samples to be filled
 127:.\FunctionGenerator.c **** *
 128:.\FunctionGenerator.c **** * Return:
 129:.\FunctionGenerator.c **** *  None.
 130:.\FunctionGenerator.c **** *
 131:.\FunctionGenerator.c **** *******************************************************************************/
 132:.\FunctionGenerator.c **** void SetSine(int numSamples, uint8 voltage, uint8 *currentWaveform)
 133:.\FunctionGenerator.c **** {
 263              		.loc 1 133 0
 264              		.cfi_startproc
ARM GAS  C:\Users\jthem\AppData\Local\Temp\ccgfKsBy.s 			page 8


 265              		@ args = 0, pretend = 0, frame = 32
 266              		@ frame_needed = 1, uses_anonymous_args = 0
 267 0000 2DE9904F 		push	{r4, r7, r8, r9, r10, fp, lr}
 268              		.cfi_def_cfa_offset 28
 269              		.cfi_offset 4, -28
 270              		.cfi_offset 7, -24
 271              		.cfi_offset 8, -20
 272              		.cfi_offset 9, -16
 273              		.cfi_offset 10, -12
 274              		.cfi_offset 11, -8
 275              		.cfi_offset 14, -4
 276 0004 89B0     		sub	sp, sp, #36
 277              		.cfi_def_cfa_offset 64
 278 0006 00AF     		add	r7, sp, #0
 279              		.cfi_def_cfa_register 7
 280 0008 7861     		str	r0, [r7, #20]
 281 000a 0B46     		mov	r3, r1
 282 000c FA60     		str	r2, [r7, #12]
 283 000e FB74     		strb	r3, [r7, #19]
 134:.\FunctionGenerator.c ****     int i;
 135:.\FunctionGenerator.c ****     for (i = 0; i < numSamples; i++) {
 284              		.loc 1 135 0
 285 0010 0023     		movs	r3, #0
 286 0012 FB61     		str	r3, [r7, #28]
 287 0014 4AE0     		b	.L17
 288              	.L18:
 136:.\FunctionGenerator.c ****         currentWaveform[i] = voltage / 2 + (voltage / 2 - 1) * 
 289              		.loc 1 136 0 discriminator 3
 290 0016 FB69     		ldr	r3, [r7, #28]
 291 0018 FA68     		ldr	r2, [r7, #12]
 292 001a D418     		adds	r4, r2, r3
 293 001c FB7C     		ldrb	r3, [r7, #19]	@ zero_extendqisi2
 294 001e 5B08     		lsrs	r3, r3, #1
 295 0020 DBB2     		uxtb	r3, r3
 296 0022 1846     		mov	r0, r3
 297 0024 FFF7FEFF 		bl	__aeabi_i2d
 298 0028 8046     		mov	r8, r0
 299 002a 8946     		mov	r9, r1
 300 002c FB7C     		ldrb	r3, [r7, #19]	@ zero_extendqisi2
 301 002e 5B08     		lsrs	r3, r3, #1
 302 0030 DBB2     		uxtb	r3, r3
 303 0032 013B     		subs	r3, r3, #1
 304 0034 1846     		mov	r0, r3
 305 0036 FFF7FEFF 		bl	__aeabi_i2d
 306 003a 8246     		mov	r10, r0
 307 003c 8B46     		mov	fp, r1
 137:.\FunctionGenerator.c ****             sin((2 * PI * i) / numSamples);   
 308              		.loc 1 137 0 discriminator 3
 309 003e F869     		ldr	r0, [r7, #28]
 310 0040 FFF7FEFF 		bl	__aeabi_i2d
 311 0044 0246     		mov	r2, r0
 312 0046 0B46     		mov	r3, r1
 313 0048 1046     		mov	r0, r2
 314 004a 1946     		mov	r1, r3
 315 004c 1CA3     		adr	r3, .L19
 316 004e D3E90023 		ldrd	r2, [r3]
 317 0052 FFF7FEFF 		bl	__aeabi_dmul
ARM GAS  C:\Users\jthem\AppData\Local\Temp\ccgfKsBy.s 			page 9


 318 0056 0246     		mov	r2, r0
 319 0058 0B46     		mov	r3, r1
 320 005a C7E90023 		strd	r2, [r7]
 321 005e 7869     		ldr	r0, [r7, #20]
 322 0060 FFF7FEFF 		bl	__aeabi_i2d
 323 0064 0246     		mov	r2, r0
 324 0066 0B46     		mov	r3, r1
 325 0068 D7E90001 		ldrd	r0, [r7]
 326 006c FFF7FEFF 		bl	__aeabi_ddiv
 327 0070 0246     		mov	r2, r0
 328 0072 0B46     		mov	r3, r1
 329 0074 1046     		mov	r0, r2
 330 0076 1946     		mov	r1, r3
 331 0078 FFF7FEFF 		bl	sin
 332 007c 0246     		mov	r2, r0
 333 007e 0B46     		mov	r3, r1
 136:.\FunctionGenerator.c ****         currentWaveform[i] = voltage / 2 + (voltage / 2 - 1) * 
 334              		.loc 1 136 0 discriminator 3
 335 0080 5046     		mov	r0, r10
 336 0082 5946     		mov	r1, fp
 337 0084 FFF7FEFF 		bl	__aeabi_dmul
 338 0088 0246     		mov	r2, r0
 339 008a 0B46     		mov	r3, r1
 340 008c 4046     		mov	r0, r8
 341 008e 4946     		mov	r1, r9
 342 0090 FFF7FEFF 		bl	__aeabi_dadd
 343 0094 0246     		mov	r2, r0
 344 0096 0B46     		mov	r3, r1
 345 0098 1046     		mov	r0, r2
 346 009a 1946     		mov	r1, r3
 347 009c FFF7FEFF 		bl	__aeabi_d2uiz
 348 00a0 0346     		mov	r3, r0
 349 00a2 DBB2     		uxtb	r3, r3
 350 00a4 2370     		strb	r3, [r4]
 135:.\FunctionGenerator.c ****         currentWaveform[i] = voltage / 2 + (voltage / 2 - 1) * 
 351              		.loc 1 135 0 discriminator 3
 352 00a6 FB69     		ldr	r3, [r7, #28]
 353 00a8 0133     		adds	r3, r3, #1
 354 00aa FB61     		str	r3, [r7, #28]
 355              	.L17:
 135:.\FunctionGenerator.c ****         currentWaveform[i] = voltage / 2 + (voltage / 2 - 1) * 
 356              		.loc 1 135 0 is_stmt 0 discriminator 1
 357 00ac FA69     		ldr	r2, [r7, #28]
 358 00ae 7B69     		ldr	r3, [r7, #20]
 359 00b0 9A42     		cmp	r2, r3
 360 00b2 B0DB     		blt	.L18
 138:.\FunctionGenerator.c ****     }
 139:.\FunctionGenerator.c **** }
 361              		.loc 1 139 0 is_stmt 1
 362 00b4 2437     		adds	r7, r7, #36
 363              		.cfi_def_cfa_offset 28
 364 00b6 BD46     		mov	sp, r7
 365              		.cfi_def_cfa_register 13
 366              		@ sp needed
 367 00b8 BDE8908F 		pop	{r4, r7, r8, r9, r10, fp, pc}
 368              	.L20:
 369 00bc AFF30080 		.align	3
ARM GAS  C:\Users\jthem\AppData\Local\Temp\ccgfKsBy.s 			page 10


 370              	.L19:
 371 00c0 F1D4C853 		.word	1405670641
 372 00c4 FB211940 		.word	1075388923
 373              		.cfi_endproc
 374              	.LFE3:
 375              		.size	SetSine, .-SetSine
 376              		.section	.text.SetTriangle,"ax",%progbits
 377              		.align	2
 378              		.global	SetTriangle
 379              		.thumb
 380              		.thumb_func
 381              		.type	SetTriangle, %function
 382              	SetTriangle:
 383              	.LFB4:
 140:.\FunctionGenerator.c **** 
 141:.\FunctionGenerator.c **** /*******************************************************************************
 142:.\FunctionGenerator.c **** * Function Name: SetTriangle
 143:.\FunctionGenerator.c **** ********************************************************************************
 144:.\FunctionGenerator.c **** *
 145:.\FunctionGenerator.c **** * Summary
 146:.\FunctionGenerator.c **** *  Sets currentWaveform as a triangle wave
 147:.\FunctionGenerator.c **** *
 148:.\FunctionGenerator.c **** * Parameters:
 149:.\FunctionGenerator.c **** *  numSamples - the number of samples (number of elements in waveform)
 150:.\FunctionGenerator.c **** *  currentWaveform - the raw array of waveform samples to be filled
 151:.\FunctionGenerator.c **** *
 152:.\FunctionGenerator.c **** * Return:
 153:.\FunctionGenerator.c **** *  None.
 154:.\FunctionGenerator.c **** *
 155:.\FunctionGenerator.c **** *******************************************************************************/
 156:.\FunctionGenerator.c **** void SetTriangle(int numSamples, uint8 voltage, uint8 *currentWaveform)
 157:.\FunctionGenerator.c **** {
 384              		.loc 1 157 0
 385              		.cfi_startproc
 386              		@ args = 0, pretend = 0, frame = 24
 387              		@ frame_needed = 1, uses_anonymous_args = 0
 388 0000 2DE9904F 		push	{r4, r7, r8, r9, r10, fp, lr}
 389              		.cfi_def_cfa_offset 28
 390              		.cfi_offset 4, -28
 391              		.cfi_offset 7, -24
 392              		.cfi_offset 8, -20
 393              		.cfi_offset 9, -16
 394              		.cfi_offset 10, -12
 395              		.cfi_offset 11, -8
 396              		.cfi_offset 14, -4
 397 0004 87B0     		sub	sp, sp, #28
 398              		.cfi_def_cfa_offset 56
 399 0006 00AF     		add	r7, sp, #0
 400              		.cfi_def_cfa_register 7
 401 0008 F860     		str	r0, [r7, #12]
 402 000a 0B46     		mov	r3, r1
 403 000c 7A60     		str	r2, [r7, #4]
 404 000e FB72     		strb	r3, [r7, #11]
 158:.\FunctionGenerator.c ****     int i;
 159:.\FunctionGenerator.c ****     for (i = 0; i < numSamples; i++) {
 405              		.loc 1 159 0
 406 0010 0023     		movs	r3, #0
ARM GAS  C:\Users\jthem\AppData\Local\Temp\ccgfKsBy.s 			page 11


 407 0012 7B61     		str	r3, [r7, #20]
 408 0014 6EE0     		b	.L22
 409              	.L25:
 160:.\FunctionGenerator.c ****         if (i < numSamples / 2) {
 410              		.loc 1 160 0
 411 0016 FB68     		ldr	r3, [r7, #12]
 412 0018 DA0F     		lsrs	r2, r3, #31
 413 001a 1344     		add	r3, r3, r2
 414 001c 5B10     		asrs	r3, r3, #1
 415 001e 1A46     		mov	r2, r3
 416 0020 7B69     		ldr	r3, [r7, #20]
 417 0022 9A42     		cmp	r2, r3
 418 0024 30DD     		ble	.L23
 161:.\FunctionGenerator.c ****             currentWaveform[i] = voltage * (1.0 * i / (numSamples / 2.0));
 419              		.loc 1 161 0
 420 0026 7B69     		ldr	r3, [r7, #20]
 421 0028 7A68     		ldr	r2, [r7, #4]
 422 002a D418     		adds	r4, r2, r3
 423 002c FB7A     		ldrb	r3, [r7, #11]	@ zero_extendqisi2
 424 002e 1846     		mov	r0, r3
 425 0030 FFF7FEFF 		bl	__aeabi_i2d
 426 0034 8046     		mov	r8, r0
 427 0036 8946     		mov	r9, r1
 428 0038 7869     		ldr	r0, [r7, #20]
 429 003a FFF7FEFF 		bl	__aeabi_i2d
 430 003e 8246     		mov	r10, r0
 431 0040 8B46     		mov	fp, r1
 432 0042 F868     		ldr	r0, [r7, #12]
 433 0044 FFF7FEFF 		bl	__aeabi_i2d
 434 0048 0246     		mov	r2, r0
 435 004a 0B46     		mov	r3, r1
 436 004c 1046     		mov	r0, r2
 437 004e 1946     		mov	r1, r3
 438 0050 4FF00002 		mov	r2, #0
 439 0054 4FF08043 		mov	r3, #1073741824
 440 0058 FFF7FEFF 		bl	__aeabi_ddiv
 441 005c 0246     		mov	r2, r0
 442 005e 0B46     		mov	r3, r1
 443 0060 5046     		mov	r0, r10
 444 0062 5946     		mov	r1, fp
 445 0064 FFF7FEFF 		bl	__aeabi_ddiv
 446 0068 0246     		mov	r2, r0
 447 006a 0B46     		mov	r3, r1
 448 006c 4046     		mov	r0, r8
 449 006e 4946     		mov	r1, r9
 450 0070 FFF7FEFF 		bl	__aeabi_dmul
 451 0074 0246     		mov	r2, r0
 452 0076 0B46     		mov	r3, r1
 453 0078 1046     		mov	r0, r2
 454 007a 1946     		mov	r1, r3
 455 007c FFF7FEFF 		bl	__aeabi_d2uiz
 456 0080 0346     		mov	r3, r0
 457 0082 DBB2     		uxtb	r3, r3
 458 0084 2370     		strb	r3, [r4]
 459 0086 32E0     		b	.L24
 460              	.L23:
 162:.\FunctionGenerator.c ****         } else {
ARM GAS  C:\Users\jthem\AppData\Local\Temp\ccgfKsBy.s 			page 12


 163:.\FunctionGenerator.c ****             currentWaveform[i] = voltage * (1.0 * (numSamples - i) / (numSamples / 2.0));
 461              		.loc 1 163 0
 462 0088 7B69     		ldr	r3, [r7, #20]
 463 008a 7A68     		ldr	r2, [r7, #4]
 464 008c D418     		adds	r4, r2, r3
 465 008e FB7A     		ldrb	r3, [r7, #11]	@ zero_extendqisi2
 466 0090 1846     		mov	r0, r3
 467 0092 FFF7FEFF 		bl	__aeabi_i2d
 468 0096 8046     		mov	r8, r0
 469 0098 8946     		mov	r9, r1
 470 009a FA68     		ldr	r2, [r7, #12]
 471 009c 7B69     		ldr	r3, [r7, #20]
 472 009e D31A     		subs	r3, r2, r3
 473 00a0 1846     		mov	r0, r3
 474 00a2 FFF7FEFF 		bl	__aeabi_i2d
 475 00a6 8246     		mov	r10, r0
 476 00a8 8B46     		mov	fp, r1
 477 00aa F868     		ldr	r0, [r7, #12]
 478 00ac FFF7FEFF 		bl	__aeabi_i2d
 479 00b0 0246     		mov	r2, r0
 480 00b2 0B46     		mov	r3, r1
 481 00b4 1046     		mov	r0, r2
 482 00b6 1946     		mov	r1, r3
 483 00b8 4FF00002 		mov	r2, #0
 484 00bc 4FF08043 		mov	r3, #1073741824
 485 00c0 FFF7FEFF 		bl	__aeabi_ddiv
 486 00c4 0246     		mov	r2, r0
 487 00c6 0B46     		mov	r3, r1
 488 00c8 5046     		mov	r0, r10
 489 00ca 5946     		mov	r1, fp
 490 00cc FFF7FEFF 		bl	__aeabi_ddiv
 491 00d0 0246     		mov	r2, r0
 492 00d2 0B46     		mov	r3, r1
 493 00d4 4046     		mov	r0, r8
 494 00d6 4946     		mov	r1, r9
 495 00d8 FFF7FEFF 		bl	__aeabi_dmul
 496 00dc 0246     		mov	r2, r0
 497 00de 0B46     		mov	r3, r1
 498 00e0 1046     		mov	r0, r2
 499 00e2 1946     		mov	r1, r3
 500 00e4 FFF7FEFF 		bl	__aeabi_d2uiz
 501 00e8 0346     		mov	r3, r0
 502 00ea DBB2     		uxtb	r3, r3
 503 00ec 2370     		strb	r3, [r4]
 504              	.L24:
 159:.\FunctionGenerator.c ****         if (i < numSamples / 2) {
 505              		.loc 1 159 0 discriminator 2
 506 00ee 7B69     		ldr	r3, [r7, #20]
 507 00f0 0133     		adds	r3, r3, #1
 508 00f2 7B61     		str	r3, [r7, #20]
 509              	.L22:
 159:.\FunctionGenerator.c ****         if (i < numSamples / 2) {
 510              		.loc 1 159 0 is_stmt 0 discriminator 1
 511 00f4 7A69     		ldr	r2, [r7, #20]
 512 00f6 FB68     		ldr	r3, [r7, #12]
 513 00f8 9A42     		cmp	r2, r3
 514 00fa 8CDB     		blt	.L25
ARM GAS  C:\Users\jthem\AppData\Local\Temp\ccgfKsBy.s 			page 13


 164:.\FunctionGenerator.c ****         }
 165:.\FunctionGenerator.c ****     }
 166:.\FunctionGenerator.c **** }
 515              		.loc 1 166 0 is_stmt 1
 516 00fc 1C37     		adds	r7, r7, #28
 517              		.cfi_def_cfa_offset 28
 518 00fe BD46     		mov	sp, r7
 519              		.cfi_def_cfa_register 13
 520              		@ sp needed
 521 0100 BDE8908F 		pop	{r4, r7, r8, r9, r10, fp, pc}
 522              		.cfi_endproc
 523              	.LFE4:
 524              		.size	SetTriangle, .-SetTriangle
 525              		.section	.text.SetSawtooth,"ax",%progbits
 526              		.align	2
 527              		.global	SetSawtooth
 528              		.thumb
 529              		.thumb_func
 530              		.type	SetSawtooth, %function
 531              	SetSawtooth:
 532              	.LFB5:
 167:.\FunctionGenerator.c **** 
 168:.\FunctionGenerator.c **** /*******************************************************************************
 169:.\FunctionGenerator.c **** * Function Name: SetSawtooth
 170:.\FunctionGenerator.c **** ********************************************************************************
 171:.\FunctionGenerator.c **** *
 172:.\FunctionGenerator.c **** * Summary
 173:.\FunctionGenerator.c **** *  Sets currentWaveform as a sawtooth wave
 174:.\FunctionGenerator.c **** *
 175:.\FunctionGenerator.c **** * Parameters:
 176:.\FunctionGenerator.c **** *  numSamples - the number of samples (number of elements in waveform)
 177:.\FunctionGenerator.c **** *  currentWaveform - the raw array of waveform samples to be filled
 178:.\FunctionGenerator.c **** *
 179:.\FunctionGenerator.c **** * Return:
 180:.\FunctionGenerator.c **** *  None.
 181:.\FunctionGenerator.c **** *
 182:.\FunctionGenerator.c **** *******************************************************************************/
 183:.\FunctionGenerator.c **** void SetSawtooth(int numSamples, uint8 voltage, uint8 *currentWaveform)
 184:.\FunctionGenerator.c **** {
 533              		.loc 1 184 0
 534              		.cfi_startproc
 535              		@ args = 0, pretend = 0, frame = 24
 536              		@ frame_needed = 1, uses_anonymous_args = 0
 537 0000 2DE9904F 		push	{r4, r7, r8, r9, r10, fp, lr}
 538              		.cfi_def_cfa_offset 28
 539              		.cfi_offset 4, -28
 540              		.cfi_offset 7, -24
 541              		.cfi_offset 8, -20
 542              		.cfi_offset 9, -16
 543              		.cfi_offset 10, -12
 544              		.cfi_offset 11, -8
 545              		.cfi_offset 14, -4
 546 0004 87B0     		sub	sp, sp, #28
 547              		.cfi_def_cfa_offset 56
 548 0006 00AF     		add	r7, sp, #0
 549              		.cfi_def_cfa_register 7
 550 0008 F860     		str	r0, [r7, #12]
ARM GAS  C:\Users\jthem\AppData\Local\Temp\ccgfKsBy.s 			page 14


 551 000a 0B46     		mov	r3, r1
 552 000c 7A60     		str	r2, [r7, #4]
 553 000e FB72     		strb	r3, [r7, #11]
 185:.\FunctionGenerator.c ****     int i;
 186:.\FunctionGenerator.c ****     for (i = 0; i < numSamples; i++) {
 554              		.loc 1 186 0
 555 0010 0023     		movs	r3, #0
 556 0012 7B61     		str	r3, [r7, #20]
 557 0014 28E0     		b	.L27
 558              	.L28:
 187:.\FunctionGenerator.c ****         currentWaveform[i] = voltage * (1.0 * i / numSamples);   
 559              		.loc 1 187 0 discriminator 3
 560 0016 7B69     		ldr	r3, [r7, #20]
 561 0018 7A68     		ldr	r2, [r7, #4]
 562 001a D418     		adds	r4, r2, r3
 563 001c FB7A     		ldrb	r3, [r7, #11]	@ zero_extendqisi2
 564 001e 1846     		mov	r0, r3
 565 0020 FFF7FEFF 		bl	__aeabi_i2d
 566 0024 8046     		mov	r8, r0
 567 0026 8946     		mov	r9, r1
 568 0028 7869     		ldr	r0, [r7, #20]
 569 002a FFF7FEFF 		bl	__aeabi_i2d
 570 002e 8246     		mov	r10, r0
 571 0030 8B46     		mov	fp, r1
 572 0032 F868     		ldr	r0, [r7, #12]
 573 0034 FFF7FEFF 		bl	__aeabi_i2d
 574 0038 0246     		mov	r2, r0
 575 003a 0B46     		mov	r3, r1
 576 003c 5046     		mov	r0, r10
 577 003e 5946     		mov	r1, fp
 578 0040 FFF7FEFF 		bl	__aeabi_ddiv
 579 0044 0246     		mov	r2, r0
 580 0046 0B46     		mov	r3, r1
 581 0048 4046     		mov	r0, r8
 582 004a 4946     		mov	r1, r9
 583 004c FFF7FEFF 		bl	__aeabi_dmul
 584 0050 0246     		mov	r2, r0
 585 0052 0B46     		mov	r3, r1
 586 0054 1046     		mov	r0, r2
 587 0056 1946     		mov	r1, r3
 588 0058 FFF7FEFF 		bl	__aeabi_d2uiz
 589 005c 0346     		mov	r3, r0
 590 005e DBB2     		uxtb	r3, r3
 591 0060 2370     		strb	r3, [r4]
 186:.\FunctionGenerator.c ****         currentWaveform[i] = voltage * (1.0 * i / numSamples);   
 592              		.loc 1 186 0 discriminator 3
 593 0062 7B69     		ldr	r3, [r7, #20]
 594 0064 0133     		adds	r3, r3, #1
 595 0066 7B61     		str	r3, [r7, #20]
 596              	.L27:
 186:.\FunctionGenerator.c ****         currentWaveform[i] = voltage * (1.0 * i / numSamples);   
 597              		.loc 1 186 0 is_stmt 0 discriminator 1
 598 0068 7A69     		ldr	r2, [r7, #20]
 599 006a FB68     		ldr	r3, [r7, #12]
 600 006c 9A42     		cmp	r2, r3
 601 006e D2DB     		blt	.L28
 188:.\FunctionGenerator.c ****     }
ARM GAS  C:\Users\jthem\AppData\Local\Temp\ccgfKsBy.s 			page 15


 189:.\FunctionGenerator.c **** }
 602              		.loc 1 189 0 is_stmt 1
 603 0070 1C37     		adds	r7, r7, #28
 604              		.cfi_def_cfa_offset 28
 605 0072 BD46     		mov	sp, r7
 606              		.cfi_def_cfa_register 13
 607              		@ sp needed
 608 0074 BDE8908F 		pop	{r4, r7, r8, r9, r10, fp, pc}
 609              		.cfi_endproc
 610              	.LFE5:
 611              		.size	SetSawtooth, .-SetSawtooth
 612              		.section	.text.SetDC,"ax",%progbits
 613              		.align	2
 614              		.global	SetDC
 615              		.thumb
 616              		.thumb_func
 617              		.type	SetDC, %function
 618              	SetDC:
 619              	.LFB6:
 190:.\FunctionGenerator.c **** 
 191:.\FunctionGenerator.c **** /*******************************************************************************
 192:.\FunctionGenerator.c **** * Function Name: SetSine
 193:.\FunctionGenerator.c **** ********************************************************************************
 194:.\FunctionGenerator.c **** *
 195:.\FunctionGenerator.c **** * Summary
 196:.\FunctionGenerator.c **** *  Sets currentWaveform as a DC signal (no variation)
 197:.\FunctionGenerator.c **** *
 198:.\FunctionGenerator.c **** * Parameters:
 199:.\FunctionGenerator.c **** *  numSamples - the number of samples (number of elements in waveform)
 200:.\FunctionGenerator.c **** *  currentWaveform - the raw array of waveform samples to be filled
 201:.\FunctionGenerator.c **** *
 202:.\FunctionGenerator.c **** * Return:
 203:.\FunctionGenerator.c **** *  None.
 204:.\FunctionGenerator.c **** *
 205:.\FunctionGenerator.c **** *******************************************************************************/
 206:.\FunctionGenerator.c **** void SetDC(int numSamples, uint8 voltage, uint8 *currentWaveform)
 207:.\FunctionGenerator.c **** {
 620              		.loc 1 207 0
 621              		.cfi_startproc
 622              		@ args = 0, pretend = 0, frame = 24
 623              		@ frame_needed = 1, uses_anonymous_args = 0
 624              		@ link register save eliminated.
 625 0000 80B4     		push	{r7}
 626              		.cfi_def_cfa_offset 4
 627              		.cfi_offset 7, -4
 628 0002 87B0     		sub	sp, sp, #28
 629              		.cfi_def_cfa_offset 32
 630 0004 00AF     		add	r7, sp, #0
 631              		.cfi_def_cfa_register 7
 632 0006 F860     		str	r0, [r7, #12]
 633 0008 0B46     		mov	r3, r1
 634 000a 7A60     		str	r2, [r7, #4]
 635 000c FB72     		strb	r3, [r7, #11]
 208:.\FunctionGenerator.c ****     int i;
 209:.\FunctionGenerator.c ****     for (i = 0; i < numSamples; i++) {
 636              		.loc 1 209 0
 637 000e 0023     		movs	r3, #0
ARM GAS  C:\Users\jthem\AppData\Local\Temp\ccgfKsBy.s 			page 16


 638 0010 7B61     		str	r3, [r7, #20]
 639 0012 07E0     		b	.L30
 640              	.L31:
 210:.\FunctionGenerator.c ****         currentWaveform[i] = voltage;
 641              		.loc 1 210 0 discriminator 3
 642 0014 7B69     		ldr	r3, [r7, #20]
 643 0016 7A68     		ldr	r2, [r7, #4]
 644 0018 1344     		add	r3, r3, r2
 645 001a FA7A     		ldrb	r2, [r7, #11]
 646 001c 1A70     		strb	r2, [r3]
 209:.\FunctionGenerator.c ****         currentWaveform[i] = voltage;
 647              		.loc 1 209 0 discriminator 3
 648 001e 7B69     		ldr	r3, [r7, #20]
 649 0020 0133     		adds	r3, r3, #1
 650 0022 7B61     		str	r3, [r7, #20]
 651              	.L30:
 209:.\FunctionGenerator.c ****         currentWaveform[i] = voltage;
 652              		.loc 1 209 0 is_stmt 0 discriminator 1
 653 0024 7A69     		ldr	r2, [r7, #20]
 654 0026 FB68     		ldr	r3, [r7, #12]
 655 0028 9A42     		cmp	r2, r3
 656 002a F3DB     		blt	.L31
 211:.\FunctionGenerator.c ****     }    
 212:.\FunctionGenerator.c **** }
 657              		.loc 1 212 0 is_stmt 1
 658 002c 1C37     		adds	r7, r7, #28
 659              		.cfi_def_cfa_offset 4
 660 002e BD46     		mov	sp, r7
 661              		.cfi_def_cfa_register 13
 662              		@ sp needed
 663 0030 5DF8047B 		ldr	r7, [sp], #4
 664              		.cfi_restore 7
 665              		.cfi_def_cfa_offset 0
 666 0034 7047     		bx	lr
 667              		.cfi_endproc
 668              	.LFE6:
 669              		.size	SetDC, .-SetDC
 670 0036 00BF     		.section	.text.SetWaveform,"ax",%progbits
 671              		.align	2
 672              		.global	SetWaveform
 673              		.thumb
 674              		.thumb_func
 675              		.type	SetWaveform, %function
 676              	SetWaveform:
 677              	.LFB7:
 213:.\FunctionGenerator.c **** 
 214:.\FunctionGenerator.c **** /*******************************************************************************
 215:.\FunctionGenerator.c **** * Function Name: SetWaveform
 216:.\FunctionGenerator.c **** ********************************************************************************
 217:.\FunctionGenerator.c **** *
 218:.\FunctionGenerator.c **** * Summary
 219:.\FunctionGenerator.c **** *  Sets currentWaveform as a wave with the specified shape (mode)
 220:.\FunctionGenerator.c **** *
 221:.\FunctionGenerator.c **** * Parameters:
 222:.\FunctionGenerator.c **** *  numSamples - the number of samples (number of elements in waveform)
 223:.\FunctionGenerator.c **** *  mode - the waveform type (square, sine, triangle, sawtooth, or DC)
 224:.\FunctionGenerator.c **** *  currentWaveform - the raw array of waveform samples to be filled
ARM GAS  C:\Users\jthem\AppData\Local\Temp\ccgfKsBy.s 			page 17


 225:.\FunctionGenerator.c **** *
 226:.\FunctionGenerator.c **** * Return:
 227:.\FunctionGenerator.c **** *  None.
 228:.\FunctionGenerator.c **** *
 229:.\FunctionGenerator.c **** *******************************************************************************/
 230:.\FunctionGenerator.c **** void SetWaveform(int numSamples, int mode, uint8 voltage, uint8 *currentWaveform) 
 231:.\FunctionGenerator.c **** {
 678              		.loc 1 231 0
 679              		.cfi_startproc
 680              		@ args = 0, pretend = 0, frame = 16
 681              		@ frame_needed = 1, uses_anonymous_args = 0
 682 0000 80B5     		push	{r7, lr}
 683              		.cfi_def_cfa_offset 8
 684              		.cfi_offset 7, -8
 685              		.cfi_offset 14, -4
 686 0002 84B0     		sub	sp, sp, #16
 687              		.cfi_def_cfa_offset 24
 688 0004 00AF     		add	r7, sp, #0
 689              		.cfi_def_cfa_register 7
 690 0006 F860     		str	r0, [r7, #12]
 691 0008 B960     		str	r1, [r7, #8]
 692 000a 3B60     		str	r3, [r7]
 693 000c 1346     		mov	r3, r2
 694 000e FB71     		strb	r3, [r7, #7]
 232:.\FunctionGenerator.c ****     switch (mode) {
 695              		.loc 1 232 0
 696 0010 BB68     		ldr	r3, [r7, #8]
 697 0012 042B     		cmp	r3, #4
 698 0014 2FD8     		bhi	.L32
 699 0016 01A2     		adr	r2, .L35
 700 0018 52F823F0 		ldr	pc, [r2, r3, lsl #2]
 701              		.p2align 2
 702              	.L35:
 703 001c 31000000 		.word	.L34+1
 704 0020 3F000000 		.word	.L36+1
 705 0024 4D000000 		.word	.L37+1
 706 0028 5B000000 		.word	.L38+1
 707 002c 69000000 		.word	.L39+1
 708              		.p2align 1
 709              	.L34:
 233:.\FunctionGenerator.c ****         case SQUARE:
 234:.\FunctionGenerator.c ****             SetSquare(numSamples, voltage, currentWaveform);
 710              		.loc 1 234 0
 711 0030 FB79     		ldrb	r3, [r7, #7]	@ zero_extendqisi2
 712 0032 F868     		ldr	r0, [r7, #12]
 713 0034 1946     		mov	r1, r3
 714 0036 3A68     		ldr	r2, [r7]
 715 0038 FFF7FEFF 		bl	SetSquare
 235:.\FunctionGenerator.c ****             break;
 716              		.loc 1 235 0
 717 003c 1BE0     		b	.L32
 718              	.L36:
 236:.\FunctionGenerator.c ****         case SINE:
 237:.\FunctionGenerator.c ****             SetSine(numSamples, voltage, currentWaveform);
 719              		.loc 1 237 0
 720 003e FB79     		ldrb	r3, [r7, #7]	@ zero_extendqisi2
 721 0040 F868     		ldr	r0, [r7, #12]
ARM GAS  C:\Users\jthem\AppData\Local\Temp\ccgfKsBy.s 			page 18


 722 0042 1946     		mov	r1, r3
 723 0044 3A68     		ldr	r2, [r7]
 724 0046 FFF7FEFF 		bl	SetSine
 238:.\FunctionGenerator.c ****             break;
 725              		.loc 1 238 0
 726 004a 14E0     		b	.L32
 727              	.L37:
 239:.\FunctionGenerator.c ****         case TRIANGLE:
 240:.\FunctionGenerator.c ****             SetTriangle(numSamples, voltage, currentWaveform);
 728              		.loc 1 240 0
 729 004c FB79     		ldrb	r3, [r7, #7]	@ zero_extendqisi2
 730 004e F868     		ldr	r0, [r7, #12]
 731 0050 1946     		mov	r1, r3
 732 0052 3A68     		ldr	r2, [r7]
 733 0054 FFF7FEFF 		bl	SetTriangle
 241:.\FunctionGenerator.c ****             break;
 734              		.loc 1 241 0
 735 0058 0DE0     		b	.L32
 736              	.L38:
 242:.\FunctionGenerator.c ****         case SAWTOOTH:
 243:.\FunctionGenerator.c ****             SetSawtooth(numSamples, voltage, currentWaveform);
 737              		.loc 1 243 0
 738 005a FB79     		ldrb	r3, [r7, #7]	@ zero_extendqisi2
 739 005c F868     		ldr	r0, [r7, #12]
 740 005e 1946     		mov	r1, r3
 741 0060 3A68     		ldr	r2, [r7]
 742 0062 FFF7FEFF 		bl	SetSawtooth
 244:.\FunctionGenerator.c ****             break;
 743              		.loc 1 244 0
 744 0066 06E0     		b	.L32
 745              	.L39:
 245:.\FunctionGenerator.c ****         case DC:
 246:.\FunctionGenerator.c ****             SetDC(numSamples, voltage, currentWaveform);
 746              		.loc 1 246 0
 747 0068 FB79     		ldrb	r3, [r7, #7]	@ zero_extendqisi2
 748 006a F868     		ldr	r0, [r7, #12]
 749 006c 1946     		mov	r1, r3
 750 006e 3A68     		ldr	r2, [r7]
 751 0070 FFF7FEFF 		bl	SetDC
 247:.\FunctionGenerator.c ****             break;
 752              		.loc 1 247 0
 753 0074 00BF     		nop
 754              	.L32:
 248:.\FunctionGenerator.c ****     }
 249:.\FunctionGenerator.c **** }
 755              		.loc 1 249 0
 756 0076 1037     		adds	r7, r7, #16
 757              		.cfi_def_cfa_offset 8
 758 0078 BD46     		mov	sp, r7
 759              		.cfi_def_cfa_register 13
 760              		@ sp needed
 761 007a 80BD     		pop	{r7, pc}
 762              		.cfi_endproc
 763              	.LFE7:
 764              		.size	SetWaveform, .-SetWaveform
 765              		.section	.text.GetCurrentWaveform,"ax",%progbits
 766              		.align	2
ARM GAS  C:\Users\jthem\AppData\Local\Temp\ccgfKsBy.s 			page 19


 767              		.global	GetCurrentWaveform
 768              		.thumb
 769              		.thumb_func
 770              		.type	GetCurrentWaveform, %function
 771              	GetCurrentWaveform:
 772              	.LFB8:
 250:.\FunctionGenerator.c **** 
 251:.\FunctionGenerator.c **** /*******************************************************************************
 252:.\FunctionGenerator.c **** * Function Name: GetCurrentWaveform
 253:.\FunctionGenerator.c **** ********************************************************************************
 254:.\FunctionGenerator.c **** *
 255:.\FunctionGenerator.c **** * Summary
 256:.\FunctionGenerator.c **** *  Retrieves the waveform currently loaded into fnGenerator
 257:.\FunctionGenerator.c **** *
 258:.\FunctionGenerator.c **** * Parameters:
 259:.\FunctionGenerator.c **** *  fnGenerator - the function generator to be queried
 260:.\FunctionGenerator.c **** *
 261:.\FunctionGenerator.c **** * Return:
 262:.\FunctionGenerator.c **** *  an array of uint8 containing the raw samples
 263:.\FunctionGenerator.c **** *
 264:.\FunctionGenerator.c **** *******************************************************************************/
 265:.\FunctionGenerator.c **** uint8 *GetCurrentWaveform(int fnGenerator)
 266:.\FunctionGenerator.c **** {
 773              		.loc 1 266 0
 774              		.cfi_startproc
 775              		@ args = 0, pretend = 0, frame = 8
 776              		@ frame_needed = 1, uses_anonymous_args = 0
 777              		@ link register save eliminated.
 778 0000 80B4     		push	{r7}
 779              		.cfi_def_cfa_offset 4
 780              		.cfi_offset 7, -4
 781 0002 83B0     		sub	sp, sp, #12
 782              		.cfi_def_cfa_offset 16
 783 0004 00AF     		add	r7, sp, #0
 784              		.cfi_def_cfa_register 7
 785 0006 7860     		str	r0, [r7, #4]
 267:.\FunctionGenerator.c ****     switch (fnGenerator) {
 786              		.loc 1 267 0
 787 0008 7B68     		ldr	r3, [r7, #4]
 788 000a 032B     		cmp	r3, #3
 789 000c 0ED8     		bhi	.L41
 790 000e 01A2     		adr	r2, .L43
 791 0010 52F823F0 		ldr	pc, [r2, r3, lsl #2]
 792              		.p2align 2
 793              	.L43:
 794 0014 25000000 		.word	.L42+1
 795 0018 25000000 		.word	.L42+1
 796 001c 29000000 		.word	.L44+1
 797 0020 29000000 		.word	.L44+1
 798              		.p2align 1
 799              	.L42:
 268:.\FunctionGenerator.c ****         case WAVEDAC_LOW_0:
 269:.\FunctionGenerator.c ****         case WAVEDAC_HIGH_0:
 270:.\FunctionGenerator.c ****             return waveform0;
 800              		.loc 1 270 0
 801 0024 054B     		ldr	r3, .L46
 802 0026 02E0     		b	.L45
ARM GAS  C:\Users\jthem\AppData\Local\Temp\ccgfKsBy.s 			page 20


 803              	.L44:
 271:.\FunctionGenerator.c ****         case WAVEDAC_LOW_1:
 272:.\FunctionGenerator.c ****         case WAVEDAC_HIGH_1:
 273:.\FunctionGenerator.c ****             return waveform1;
 804              		.loc 1 273 0
 805 0028 054B     		ldr	r3, .L46+4
 806 002a 00E0     		b	.L45
 807              	.L41:
 274:.\FunctionGenerator.c ****         default:
 275:.\FunctionGenerator.c ****             return NULL;
 808              		.loc 1 275 0
 809 002c 0023     		movs	r3, #0
 810              	.L45:
 276:.\FunctionGenerator.c ****     }
 277:.\FunctionGenerator.c **** }
 811              		.loc 1 277 0
 812 002e 1846     		mov	r0, r3
 813 0030 0C37     		adds	r7, r7, #12
 814              		.cfi_def_cfa_offset 4
 815 0032 BD46     		mov	sp, r7
 816              		.cfi_def_cfa_register 13
 817              		@ sp needed
 818 0034 5DF8047B 		ldr	r7, [sp], #4
 819              		.cfi_restore 7
 820              		.cfi_def_cfa_offset 0
 821 0038 7047     		bx	lr
 822              	.L47:
 823 003a 00BF     		.align	2
 824              	.L46:
 825 003c 00000000 		.word	waveform0
 826 0040 00000000 		.word	waveform1
 827              		.cfi_endproc
 828              	.LFE8:
 829              		.size	GetCurrentWaveform, .-GetCurrentWaveform
 830              		.section	.text.ChangeFrequency,"ax",%progbits
 831              		.align	2
 832              		.global	ChangeFrequency
 833              		.thumb
 834              		.thumb_func
 835              		.type	ChangeFrequency, %function
 836              	ChangeFrequency:
 837              	.LFB9:
 278:.\FunctionGenerator.c **** 
 279:.\FunctionGenerator.c **** /*******************************************************************************
 280:.\FunctionGenerator.c **** * Function Name: ChangeFrequency
 281:.\FunctionGenerator.c **** ********************************************************************************
 282:.\FunctionGenerator.c **** *
 283:.\FunctionGenerator.c **** * Summary
 284:.\FunctionGenerator.c **** *  Stops the selected WaveDAC, modifies its array of samples according to the
 285:.\FunctionGenerator.c **** *  desired frequency, and starts the DAC again.
 286:.\FunctionGenerator.c **** *
 287:.\FunctionGenerator.c **** * Parameters:
 288:.\FunctionGenerator.c **** *  freq - the desired frequency
 289:.\FunctionGenerator.c **** *
 290:.\FunctionGenerator.c **** * Return:
 291:.\FunctionGenerator.c **** *  The new frequency, or -1 if the desired frequency was invalid
 292:.\FunctionGenerator.c **** *
ARM GAS  C:\Users\jthem\AppData\Local\Temp\ccgfKsBy.s 			page 21


 293:.\FunctionGenerator.c **** *******************************************************************************/
 294:.\FunctionGenerator.c **** int ChangeFrequency(int freq, int mode, uint8 voltage, int waveDacId)
 295:.\FunctionGenerator.c **** {
 838              		.loc 1 295 0
 839              		.cfi_startproc
 840              		@ args = 0, pretend = 0, frame = 32
 841              		@ frame_needed = 1, uses_anonymous_args = 0
 842 0000 80B5     		push	{r7, lr}
 843              		.cfi_def_cfa_offset 8
 844              		.cfi_offset 7, -8
 845              		.cfi_offset 14, -4
 846 0002 88B0     		sub	sp, sp, #32
 847              		.cfi_def_cfa_offset 40
 848 0004 00AF     		add	r7, sp, #0
 849              		.cfi_def_cfa_register 7
 850 0006 F860     		str	r0, [r7, #12]
 851 0008 B960     		str	r1, [r7, #8]
 852 000a 3B60     		str	r3, [r7]
 853 000c 1346     		mov	r3, r2
 854 000e FB71     		strb	r3, [r7, #7]
 296:.\FunctionGenerator.c ****     int fnGenerator, numSamples;
 297:.\FunctionGenerator.c ****     uint8 *currentWaveform;
 298:.\FunctionGenerator.c ****     uint8 voltage255;
 299:.\FunctionGenerator.c ****     
 300:.\FunctionGenerator.c ****     if (freq < FREQ_LOWER_LIMIT) {
 855              		.loc 1 300 0
 856 0010 FB68     		ldr	r3, [r7, #12]
 857 0012 312B     		cmp	r3, #49
 858 0014 02DC     		bgt	.L49
 301:.\FunctionGenerator.c ****         freq = FREQ_LOWER_LIMIT;
 859              		.loc 1 301 0
 860 0016 3223     		movs	r3, #50
 861 0018 FB60     		str	r3, [r7, #12]
 862 001a 05E0     		b	.L50
 863              	.L49:
 302:.\FunctionGenerator.c ****     } else if (freq > FREQ_UPPER_LIMIT) {
 864              		.loc 1 302 0
 865 001c FB68     		ldr	r3, [r7, #12]
 866 001e 304A     		ldr	r2, .L59+8
 867 0020 9342     		cmp	r3, r2
 868 0022 01DD     		ble	.L50
 303:.\FunctionGenerator.c ****         freq = FREQ_UPPER_LIMIT;
 869              		.loc 1 303 0
 870 0024 2E4B     		ldr	r3, .L59+8
 871 0026 FB60     		str	r3, [r7, #12]
 872              	.L50:
 304:.\FunctionGenerator.c ****     }
 305:.\FunctionGenerator.c ****     
 306:.\FunctionGenerator.c ****     if (freq < 2000) {
 873              		.loc 1 306 0
 874 0028 FB68     		ldr	r3, [r7, #12]
 875 002a B3F5FA6F 		cmp	r3, #2000
 876 002e 10DA     		bge	.L51
 307:.\FunctionGenerator.c ****         if (waveDacId == 0) {
 877              		.loc 1 307 0
 878 0030 3B68     		ldr	r3, [r7]
 879 0032 002B     		cmp	r3, #0
ARM GAS  C:\Users\jthem\AppData\Local\Temp\ccgfKsBy.s 			page 22


 880 0034 02D1     		bne	.L52
 308:.\FunctionGenerator.c ****             fnGenerator = WAVEDAC_LOW_0;
 881              		.loc 1 308 0
 882 0036 0023     		movs	r3, #0
 883 0038 FB61     		str	r3, [r7, #28]
 884 003a 04E0     		b	.L53
 885              	.L52:
 309:.\FunctionGenerator.c ****         } else if (waveDacId == 1) {
 886              		.loc 1 309 0
 887 003c 3B68     		ldr	r3, [r7]
 888 003e 012B     		cmp	r3, #1
 889 0040 01D1     		bne	.L53
 310:.\FunctionGenerator.c ****             fnGenerator = WAVEDAC_LOW_1;
 890              		.loc 1 310 0
 891 0042 0223     		movs	r3, #2
 892 0044 FB61     		str	r3, [r7, #28]
 893              	.L53:
 311:.\FunctionGenerator.c ****         }
 312:.\FunctionGenerator.c ****         numSamples = WAVEDAC_CLOCK_LOW_FREQ / freq;
 894              		.loc 1 312 0
 895 0046 274A     		ldr	r2, .L59+12
 896 0048 FB68     		ldr	r3, [r7, #12]
 897 004a 92FBF3F3 		sdiv	r3, r2, r3
 898 004e BB61     		str	r3, [r7, #24]
 899 0050 0FE0     		b	.L54
 900              	.L51:
 313:.\FunctionGenerator.c ****     } else {
 314:.\FunctionGenerator.c ****         if (waveDacId == 0) {
 901              		.loc 1 314 0
 902 0052 3B68     		ldr	r3, [r7]
 903 0054 002B     		cmp	r3, #0
 904 0056 02D1     		bne	.L55
 315:.\FunctionGenerator.c ****             fnGenerator = WAVEDAC_HIGH_0;
 905              		.loc 1 315 0
 906 0058 0123     		movs	r3, #1
 907 005a FB61     		str	r3, [r7, #28]
 908 005c 04E0     		b	.L56
 909              	.L55:
 316:.\FunctionGenerator.c ****         } else if (waveDacId == 1) {
 910              		.loc 1 316 0
 911 005e 3B68     		ldr	r3, [r7]
 912 0060 012B     		cmp	r3, #1
 913 0062 01D1     		bne	.L56
 317:.\FunctionGenerator.c ****             fnGenerator = WAVEDAC_HIGH_1;
 914              		.loc 1 317 0
 915 0064 0323     		movs	r3, #3
 916 0066 FB61     		str	r3, [r7, #28]
 917              	.L56:
 318:.\FunctionGenerator.c ****         }
 319:.\FunctionGenerator.c ****         numSamples = WAVEDAC_CLOCK_HIGH_FREQ / freq;
 918              		.loc 1 319 0
 919 0068 1F4A     		ldr	r2, .L59+16
 920 006a FB68     		ldr	r3, [r7, #12]
 921 006c 92FBF3F3 		sdiv	r3, r2, r3
 922 0070 BB61     		str	r3, [r7, #24]
 923              	.L54:
 320:.\FunctionGenerator.c ****     }
ARM GAS  C:\Users\jthem\AppData\Local\Temp\ccgfKsBy.s 			page 23


 321:.\FunctionGenerator.c ****     
 322:.\FunctionGenerator.c ****     voltage255 = voltage * (255.0 / 100.0);
 924              		.loc 1 322 0
 925 0072 FB79     		ldrb	r3, [r7, #7]	@ zero_extendqisi2
 926 0074 1846     		mov	r0, r3
 927 0076 FFF7FEFF 		bl	__aeabi_i2d
 928 007a 0246     		mov	r2, r0
 929 007c 0B46     		mov	r3, r1
 930 007e 1046     		mov	r0, r2
 931 0080 1946     		mov	r1, r3
 932 0082 15A3     		adr	r3, .L59
 933 0084 D3E90023 		ldrd	r2, [r3]
 934 0088 FFF7FEFF 		bl	__aeabi_dmul
 935 008c 0246     		mov	r2, r0
 936 008e 0B46     		mov	r3, r1
 937 0090 1046     		mov	r0, r2
 938 0092 1946     		mov	r1, r3
 939 0094 FFF7FEFF 		bl	__aeabi_d2uiz
 940 0098 0346     		mov	r3, r0
 941 009a FB75     		strb	r3, [r7, #23]
 323:.\FunctionGenerator.c ****     currentWaveform = GetCurrentWaveform(fnGenerator);
 942              		.loc 1 323 0
 943 009c F869     		ldr	r0, [r7, #28]
 944 009e FFF7FEFF 		bl	GetCurrentWaveform
 945 00a2 3861     		str	r0, [r7, #16]
 324:.\FunctionGenerator.c ****     if (currentWaveform != NULL) {
 946              		.loc 1 324 0
 947 00a4 3B69     		ldr	r3, [r7, #16]
 948 00a6 002B     		cmp	r3, #0
 949 00a8 10D0     		beq	.L57
 325:.\FunctionGenerator.c ****         StopWaveDac(waveDacId);
 950              		.loc 1 325 0
 951 00aa 3868     		ldr	r0, [r7]
 952 00ac FFF7FEFF 		bl	StopWaveDac
 326:.\FunctionGenerator.c ****         SetWaveform(numSamples, mode, voltage255, currentWaveform);
 953              		.loc 1 326 0
 954 00b0 FB7D     		ldrb	r3, [r7, #23]	@ zero_extendqisi2
 955 00b2 B869     		ldr	r0, [r7, #24]
 956 00b4 B968     		ldr	r1, [r7, #8]
 957 00b6 1A46     		mov	r2, r3
 958 00b8 3B69     		ldr	r3, [r7, #16]
 959 00ba FFF7FEFF 		bl	SetWaveform
 327:.\FunctionGenerator.c ****         StartWaveDac(numSamples, fnGenerator, currentWaveform);
 960              		.loc 1 327 0
 961 00be B869     		ldr	r0, [r7, #24]
 962 00c0 F969     		ldr	r1, [r7, #28]
 963 00c2 3A69     		ldr	r2, [r7, #16]
 964 00c4 FFF7FEFF 		bl	StartWaveDac
 328:.\FunctionGenerator.c ****         return freq;
 965              		.loc 1 328 0
 966 00c8 FB68     		ldr	r3, [r7, #12]
 967 00ca 01E0     		b	.L58
 968              	.L57:
 329:.\FunctionGenerator.c ****     }
 330:.\FunctionGenerator.c ****     
 331:.\FunctionGenerator.c ****     return -1;
 969              		.loc 1 331 0
ARM GAS  C:\Users\jthem\AppData\Local\Temp\ccgfKsBy.s 			page 24


 970 00cc 4FF0FF33 		mov	r3, #-1
 971              	.L58:
 332:.\FunctionGenerator.c **** }
 972              		.loc 1 332 0
 973 00d0 1846     		mov	r0, r3
 974 00d2 2037     		adds	r7, r7, #32
 975              		.cfi_def_cfa_offset 8
 976 00d4 BD46     		mov	sp, r7
 977              		.cfi_def_cfa_register 13
 978              		@ sp needed
 979 00d6 80BD     		pop	{r7, pc}
 980              	.L60:
 981              		.align	3
 982              	.L59:
 983 00d8 66666666 		.word	1717986918
 984 00dc 66660440 		.word	1074030182
 985 00e0 A0860100 		.word	100000
 986 00e4 400D0300 		.word	200000
 987 00e8 00093D00 		.word	4000000
 988              		.cfi_endproc
 989              	.LFE9:
 990              		.size	ChangeFrequency, .-ChangeFrequency
 991 00ec AFF30080 		.text
 992              	.Letext0:
 993              		.file 2 ".\\Generated_Source/PSoC5/cytypes.h"
 994              		.file 3 ".\\FunctionGenerator.h"