ARM GAS  C:\Users\jthem\AppData\Local\Temp\ccO7qMZk.s 			page 1


   1              		.syntax unified
   2              		.cpu cortex-m3
   3              		.fpu softvfp
   4              		.eabi_attribute 20, 1
   5              		.eabi_attribute 21, 1
   6              		.eabi_attribute 23, 3
   7              		.eabi_attribute 24, 1
   8              		.eabi_attribute 25, 1
   9              		.eabi_attribute 26, 1
  10              		.eabi_attribute 30, 6
  11              		.eabi_attribute 34, 1
  12              		.eabi_attribute 18, 4
  13              		.thumb
  14              		.file	"ISR_Scope0_Comp.c"
  15              		.text
  16              	.Ltext0:
  17              		.cfi_sections	.debug_frame
  18              		.section	.text.ISR_Scope0_Comp_Start,"ax",%progbits
  19              		.align	2
  20              		.global	ISR_Scope0_Comp_Start
  21              		.thumb
  22              		.thumb_func
  23              		.type	ISR_Scope0_Comp_Start, %function
  24              	ISR_Scope0_Comp_Start:
  25              	.LFB0:
  26              		.file 1 ".\\Generated_Source\\PSoC5\\ISR_Scope0_Comp.c"
   1:.\Generated_Source\PSoC5/ISR_Scope0_Comp.c **** /*******************************************************************************
   2:.\Generated_Source\PSoC5/ISR_Scope0_Comp.c **** * File Name: ISR_Scope0_Comp.c  
   3:.\Generated_Source\PSoC5/ISR_Scope0_Comp.c **** * Version 1.70
   4:.\Generated_Source\PSoC5/ISR_Scope0_Comp.c **** *
   5:.\Generated_Source\PSoC5/ISR_Scope0_Comp.c **** *  Description:
   6:.\Generated_Source\PSoC5/ISR_Scope0_Comp.c **** *   API for controlling the state of an interrupt.
   7:.\Generated_Source\PSoC5/ISR_Scope0_Comp.c **** *
   8:.\Generated_Source\PSoC5/ISR_Scope0_Comp.c **** *
   9:.\Generated_Source\PSoC5/ISR_Scope0_Comp.c **** *  Note:
  10:.\Generated_Source\PSoC5/ISR_Scope0_Comp.c **** *
  11:.\Generated_Source\PSoC5/ISR_Scope0_Comp.c **** ********************************************************************************
  12:.\Generated_Source\PSoC5/ISR_Scope0_Comp.c **** * Copyright 2008-2015, Cypress Semiconductor Corporation.  All rights reserved.
  13:.\Generated_Source\PSoC5/ISR_Scope0_Comp.c **** * You may use this file only in accordance with the license, terms, conditions, 
  14:.\Generated_Source\PSoC5/ISR_Scope0_Comp.c **** * disclaimers, and limitations in the end user license agreement accompanying 
  15:.\Generated_Source\PSoC5/ISR_Scope0_Comp.c **** * the software package with which this file was provided.
  16:.\Generated_Source\PSoC5/ISR_Scope0_Comp.c **** *******************************************************************************/
  17:.\Generated_Source\PSoC5/ISR_Scope0_Comp.c **** 
  18:.\Generated_Source\PSoC5/ISR_Scope0_Comp.c **** 
  19:.\Generated_Source\PSoC5/ISR_Scope0_Comp.c **** #include <cydevice_trm.h>
  20:.\Generated_Source\PSoC5/ISR_Scope0_Comp.c **** #include <CyLib.h>
  21:.\Generated_Source\PSoC5/ISR_Scope0_Comp.c **** #include <ISR_Scope0_Comp.h>
  22:.\Generated_Source\PSoC5/ISR_Scope0_Comp.c **** #include "cyapicallbacks.h"
  23:.\Generated_Source\PSoC5/ISR_Scope0_Comp.c **** 
  24:.\Generated_Source\PSoC5/ISR_Scope0_Comp.c **** #if !defined(ISR_Scope0_Comp__REMOVED) /* Check for removal by optimization */
  25:.\Generated_Source\PSoC5/ISR_Scope0_Comp.c **** 
  26:.\Generated_Source\PSoC5/ISR_Scope0_Comp.c **** /*******************************************************************************
  27:.\Generated_Source\PSoC5/ISR_Scope0_Comp.c **** *  Place your includes, defines and code here 
  28:.\Generated_Source\PSoC5/ISR_Scope0_Comp.c **** ********************************************************************************/
  29:.\Generated_Source\PSoC5/ISR_Scope0_Comp.c **** /* `#START ISR_Scope0_Comp_intc` */
  30:.\Generated_Source\PSoC5/ISR_Scope0_Comp.c **** 
  31:.\Generated_Source\PSoC5/ISR_Scope0_Comp.c **** /* `#END` */
ARM GAS  C:\Users\jthem\AppData\Local\Temp\ccO7qMZk.s 			page 2


  32:.\Generated_Source\PSoC5/ISR_Scope0_Comp.c **** 
  33:.\Generated_Source\PSoC5/ISR_Scope0_Comp.c **** #ifndef CYINT_IRQ_BASE
  34:.\Generated_Source\PSoC5/ISR_Scope0_Comp.c **** #define CYINT_IRQ_BASE      16
  35:.\Generated_Source\PSoC5/ISR_Scope0_Comp.c **** #endif /* CYINT_IRQ_BASE */
  36:.\Generated_Source\PSoC5/ISR_Scope0_Comp.c **** #ifndef CYINT_VECT_TABLE
  37:.\Generated_Source\PSoC5/ISR_Scope0_Comp.c **** #define CYINT_VECT_TABLE    ((cyisraddress **) CYREG_NVIC_VECT_OFFSET)
  38:.\Generated_Source\PSoC5/ISR_Scope0_Comp.c **** #endif /* CYINT_VECT_TABLE */
  39:.\Generated_Source\PSoC5/ISR_Scope0_Comp.c **** 
  40:.\Generated_Source\PSoC5/ISR_Scope0_Comp.c **** /* Declared in startup, used to set unused interrupts to. */
  41:.\Generated_Source\PSoC5/ISR_Scope0_Comp.c **** CY_ISR_PROTO(IntDefaultHandler);
  42:.\Generated_Source\PSoC5/ISR_Scope0_Comp.c **** 
  43:.\Generated_Source\PSoC5/ISR_Scope0_Comp.c **** 
  44:.\Generated_Source\PSoC5/ISR_Scope0_Comp.c **** /*******************************************************************************
  45:.\Generated_Source\PSoC5/ISR_Scope0_Comp.c **** * Function Name: ISR_Scope0_Comp_Start
  46:.\Generated_Source\PSoC5/ISR_Scope0_Comp.c **** ********************************************************************************
  47:.\Generated_Source\PSoC5/ISR_Scope0_Comp.c **** *
  48:.\Generated_Source\PSoC5/ISR_Scope0_Comp.c **** * Summary:
  49:.\Generated_Source\PSoC5/ISR_Scope0_Comp.c **** *  Set up the interrupt and enable it. This function disables the interrupt, 
  50:.\Generated_Source\PSoC5/ISR_Scope0_Comp.c **** *  sets the default interrupt vector, sets the priority from the value in the
  51:.\Generated_Source\PSoC5/ISR_Scope0_Comp.c **** *  Design Wide Resources Interrupt Editor, then enables the interrupt to the 
  52:.\Generated_Source\PSoC5/ISR_Scope0_Comp.c **** *  interrupt controller.
  53:.\Generated_Source\PSoC5/ISR_Scope0_Comp.c **** *
  54:.\Generated_Source\PSoC5/ISR_Scope0_Comp.c **** * Parameters:  
  55:.\Generated_Source\PSoC5/ISR_Scope0_Comp.c **** *   None
  56:.\Generated_Source\PSoC5/ISR_Scope0_Comp.c **** *
  57:.\Generated_Source\PSoC5/ISR_Scope0_Comp.c **** * Return:
  58:.\Generated_Source\PSoC5/ISR_Scope0_Comp.c **** *   None
  59:.\Generated_Source\PSoC5/ISR_Scope0_Comp.c **** *
  60:.\Generated_Source\PSoC5/ISR_Scope0_Comp.c **** *******************************************************************************/
  61:.\Generated_Source\PSoC5/ISR_Scope0_Comp.c **** void ISR_Scope0_Comp_Start(void)
  62:.\Generated_Source\PSoC5/ISR_Scope0_Comp.c **** {
  27              		.loc 1 62 0
  28              		.cfi_startproc
  29              		@ args = 0, pretend = 0, frame = 0
  30              		@ frame_needed = 1, uses_anonymous_args = 0
  31 0000 80B5     		push	{r7, lr}
  32              		.cfi_def_cfa_offset 8
  33              		.cfi_offset 7, -8
  34              		.cfi_offset 14, -4
  35 0002 00AF     		add	r7, sp, #0
  36              		.cfi_def_cfa_register 7
  63:.\Generated_Source\PSoC5/ISR_Scope0_Comp.c ****     /* For all we know the interrupt is active. */
  64:.\Generated_Source\PSoC5/ISR_Scope0_Comp.c ****     ISR_Scope0_Comp_Disable();
  37              		.loc 1 64 0
  38 0004 FFF7FEFF 		bl	ISR_Scope0_Comp_Disable
  65:.\Generated_Source\PSoC5/ISR_Scope0_Comp.c **** 
  66:.\Generated_Source\PSoC5/ISR_Scope0_Comp.c ****     /* Set the ISR to point to the ISR_Scope0_Comp Interrupt. */
  67:.\Generated_Source\PSoC5/ISR_Scope0_Comp.c ****     ISR_Scope0_Comp_SetVector(&ISR_Scope0_Comp_Interrupt);
  39              		.loc 1 67 0
  40 0008 0448     		ldr	r0, .L2
  41 000a FFF7FEFF 		bl	ISR_Scope0_Comp_SetVector
  68:.\Generated_Source\PSoC5/ISR_Scope0_Comp.c **** 
  69:.\Generated_Source\PSoC5/ISR_Scope0_Comp.c ****     /* Set the priority. */
  70:.\Generated_Source\PSoC5/ISR_Scope0_Comp.c ****     ISR_Scope0_Comp_SetPriority((uint8)ISR_Scope0_Comp_INTC_PRIOR_NUMBER);
  42              		.loc 1 70 0
  43 000e 0720     		movs	r0, #7
  44 0010 FFF7FEFF 		bl	ISR_Scope0_Comp_SetPriority
ARM GAS  C:\Users\jthem\AppData\Local\Temp\ccO7qMZk.s 			page 3


  71:.\Generated_Source\PSoC5/ISR_Scope0_Comp.c **** 
  72:.\Generated_Source\PSoC5/ISR_Scope0_Comp.c ****     /* Enable it. */
  73:.\Generated_Source\PSoC5/ISR_Scope0_Comp.c ****     ISR_Scope0_Comp_Enable();
  45              		.loc 1 73 0
  46 0014 FFF7FEFF 		bl	ISR_Scope0_Comp_Enable
  74:.\Generated_Source\PSoC5/ISR_Scope0_Comp.c **** }
  47              		.loc 1 74 0
  48 0018 80BD     		pop	{r7, pc}
  49              	.L3:
  50 001a 00BF     		.align	2
  51              	.L2:
  52 001c 00000000 		.word	ISR_Scope0_Comp_Interrupt
  53              		.cfi_endproc
  54              	.LFE0:
  55              		.size	ISR_Scope0_Comp_Start, .-ISR_Scope0_Comp_Start
  56              		.section	.text.ISR_Scope0_Comp_StartEx,"ax",%progbits
  57              		.align	2
  58              		.global	ISR_Scope0_Comp_StartEx
  59              		.thumb
  60              		.thumb_func
  61              		.type	ISR_Scope0_Comp_StartEx, %function
  62              	ISR_Scope0_Comp_StartEx:
  63              	.LFB1:
  75:.\Generated_Source\PSoC5/ISR_Scope0_Comp.c **** 
  76:.\Generated_Source\PSoC5/ISR_Scope0_Comp.c **** 
  77:.\Generated_Source\PSoC5/ISR_Scope0_Comp.c **** /*******************************************************************************
  78:.\Generated_Source\PSoC5/ISR_Scope0_Comp.c **** * Function Name: ISR_Scope0_Comp_StartEx
  79:.\Generated_Source\PSoC5/ISR_Scope0_Comp.c **** ********************************************************************************
  80:.\Generated_Source\PSoC5/ISR_Scope0_Comp.c **** *
  81:.\Generated_Source\PSoC5/ISR_Scope0_Comp.c **** * Summary:
  82:.\Generated_Source\PSoC5/ISR_Scope0_Comp.c **** *  Sets up the interrupt and enables it. This function disables the interrupt,
  83:.\Generated_Source\PSoC5/ISR_Scope0_Comp.c **** *  sets the interrupt vector based on the address passed in, sets the priority 
  84:.\Generated_Source\PSoC5/ISR_Scope0_Comp.c **** *  from the value in the Design Wide Resources Interrupt Editor, then enables 
  85:.\Generated_Source\PSoC5/ISR_Scope0_Comp.c **** *  the interrupt to the interrupt controller.
  86:.\Generated_Source\PSoC5/ISR_Scope0_Comp.c **** *  
  87:.\Generated_Source\PSoC5/ISR_Scope0_Comp.c **** *  When defining ISR functions, the CY_ISR and CY_ISR_PROTO macros should be 
  88:.\Generated_Source\PSoC5/ISR_Scope0_Comp.c **** *  used to provide consistent definition across compilers:
  89:.\Generated_Source\PSoC5/ISR_Scope0_Comp.c **** *  
  90:.\Generated_Source\PSoC5/ISR_Scope0_Comp.c **** *  Function definition example:
  91:.\Generated_Source\PSoC5/ISR_Scope0_Comp.c **** *   CY_ISR(MyISR)
  92:.\Generated_Source\PSoC5/ISR_Scope0_Comp.c **** *   {
  93:.\Generated_Source\PSoC5/ISR_Scope0_Comp.c **** *   }
  94:.\Generated_Source\PSoC5/ISR_Scope0_Comp.c **** *   Function prototype example:
  95:.\Generated_Source\PSoC5/ISR_Scope0_Comp.c **** *   CY_ISR_PROTO(MyISR);
  96:.\Generated_Source\PSoC5/ISR_Scope0_Comp.c **** *
  97:.\Generated_Source\PSoC5/ISR_Scope0_Comp.c **** * Parameters:  
  98:.\Generated_Source\PSoC5/ISR_Scope0_Comp.c **** *   address: Address of the ISR to set in the interrupt vector table.
  99:.\Generated_Source\PSoC5/ISR_Scope0_Comp.c **** *
 100:.\Generated_Source\PSoC5/ISR_Scope0_Comp.c **** * Return:
 101:.\Generated_Source\PSoC5/ISR_Scope0_Comp.c **** *   None
 102:.\Generated_Source\PSoC5/ISR_Scope0_Comp.c **** *
 103:.\Generated_Source\PSoC5/ISR_Scope0_Comp.c **** *******************************************************************************/
 104:.\Generated_Source\PSoC5/ISR_Scope0_Comp.c **** void ISR_Scope0_Comp_StartEx(cyisraddress address)
 105:.\Generated_Source\PSoC5/ISR_Scope0_Comp.c **** {
  64              		.loc 1 105 0
  65              		.cfi_startproc
  66              		@ args = 0, pretend = 0, frame = 8
ARM GAS  C:\Users\jthem\AppData\Local\Temp\ccO7qMZk.s 			page 4


  67              		@ frame_needed = 1, uses_anonymous_args = 0
  68 0000 80B5     		push	{r7, lr}
  69              		.cfi_def_cfa_offset 8
  70              		.cfi_offset 7, -8
  71              		.cfi_offset 14, -4
  72 0002 82B0     		sub	sp, sp, #8
  73              		.cfi_def_cfa_offset 16
  74 0004 00AF     		add	r7, sp, #0
  75              		.cfi_def_cfa_register 7
  76 0006 7860     		str	r0, [r7, #4]
 106:.\Generated_Source\PSoC5/ISR_Scope0_Comp.c ****     /* For all we know the interrupt is active. */
 107:.\Generated_Source\PSoC5/ISR_Scope0_Comp.c ****     ISR_Scope0_Comp_Disable();
  77              		.loc 1 107 0
  78 0008 FFF7FEFF 		bl	ISR_Scope0_Comp_Disable
 108:.\Generated_Source\PSoC5/ISR_Scope0_Comp.c **** 
 109:.\Generated_Source\PSoC5/ISR_Scope0_Comp.c ****     /* Set the ISR to point to the ISR_Scope0_Comp Interrupt. */
 110:.\Generated_Source\PSoC5/ISR_Scope0_Comp.c ****     ISR_Scope0_Comp_SetVector(address);
  79              		.loc 1 110 0
  80 000c 7868     		ldr	r0, [r7, #4]
  81 000e FFF7FEFF 		bl	ISR_Scope0_Comp_SetVector
 111:.\Generated_Source\PSoC5/ISR_Scope0_Comp.c **** 
 112:.\Generated_Source\PSoC5/ISR_Scope0_Comp.c ****     /* Set the priority. */
 113:.\Generated_Source\PSoC5/ISR_Scope0_Comp.c ****     ISR_Scope0_Comp_SetPriority((uint8)ISR_Scope0_Comp_INTC_PRIOR_NUMBER);
  82              		.loc 1 113 0
  83 0012 0720     		movs	r0, #7
  84 0014 FFF7FEFF 		bl	ISR_Scope0_Comp_SetPriority
 114:.\Generated_Source\PSoC5/ISR_Scope0_Comp.c **** 
 115:.\Generated_Source\PSoC5/ISR_Scope0_Comp.c ****     /* Enable it. */
 116:.\Generated_Source\PSoC5/ISR_Scope0_Comp.c ****     ISR_Scope0_Comp_Enable();
  85              		.loc 1 116 0
  86 0018 FFF7FEFF 		bl	ISR_Scope0_Comp_Enable
 117:.\Generated_Source\PSoC5/ISR_Scope0_Comp.c **** }
  87              		.loc 1 117 0
  88 001c 0837     		adds	r7, r7, #8
  89              		.cfi_def_cfa_offset 8
  90 001e BD46     		mov	sp, r7
  91              		.cfi_def_cfa_register 13
  92              		@ sp needed
  93 0020 80BD     		pop	{r7, pc}
  94              		.cfi_endproc
  95              	.LFE1:
  96              		.size	ISR_Scope0_Comp_StartEx, .-ISR_Scope0_Comp_StartEx
  97 0022 00BF     		.section	.text.ISR_Scope0_Comp_Stop,"ax",%progbits
  98              		.align	2
  99              		.global	ISR_Scope0_Comp_Stop
 100              		.thumb
 101              		.thumb_func
 102              		.type	ISR_Scope0_Comp_Stop, %function
 103              	ISR_Scope0_Comp_Stop:
 104              	.LFB2:
 118:.\Generated_Source\PSoC5/ISR_Scope0_Comp.c **** 
 119:.\Generated_Source\PSoC5/ISR_Scope0_Comp.c **** 
 120:.\Generated_Source\PSoC5/ISR_Scope0_Comp.c **** /*******************************************************************************
 121:.\Generated_Source\PSoC5/ISR_Scope0_Comp.c **** * Function Name: ISR_Scope0_Comp_Stop
 122:.\Generated_Source\PSoC5/ISR_Scope0_Comp.c **** ********************************************************************************
 123:.\Generated_Source\PSoC5/ISR_Scope0_Comp.c **** *
 124:.\Generated_Source\PSoC5/ISR_Scope0_Comp.c **** * Summary:
ARM GAS  C:\Users\jthem\AppData\Local\Temp\ccO7qMZk.s 			page 5


 125:.\Generated_Source\PSoC5/ISR_Scope0_Comp.c **** *   Disables and removes the interrupt.
 126:.\Generated_Source\PSoC5/ISR_Scope0_Comp.c **** *
 127:.\Generated_Source\PSoC5/ISR_Scope0_Comp.c **** * Parameters:  
 128:.\Generated_Source\PSoC5/ISR_Scope0_Comp.c **** *   None
 129:.\Generated_Source\PSoC5/ISR_Scope0_Comp.c **** *
 130:.\Generated_Source\PSoC5/ISR_Scope0_Comp.c **** * Return:
 131:.\Generated_Source\PSoC5/ISR_Scope0_Comp.c **** *   None
 132:.\Generated_Source\PSoC5/ISR_Scope0_Comp.c **** *
 133:.\Generated_Source\PSoC5/ISR_Scope0_Comp.c **** *******************************************************************************/
 134:.\Generated_Source\PSoC5/ISR_Scope0_Comp.c **** void ISR_Scope0_Comp_Stop(void)
 135:.\Generated_Source\PSoC5/ISR_Scope0_Comp.c **** {
 105              		.loc 1 135 0
 106              		.cfi_startproc
 107              		@ args = 0, pretend = 0, frame = 0
 108              		@ frame_needed = 1, uses_anonymous_args = 0
 109 0000 80B5     		push	{r7, lr}
 110              		.cfi_def_cfa_offset 8
 111              		.cfi_offset 7, -8
 112              		.cfi_offset 14, -4
 113 0002 00AF     		add	r7, sp, #0
 114              		.cfi_def_cfa_register 7
 136:.\Generated_Source\PSoC5/ISR_Scope0_Comp.c ****     /* Disable this interrupt. */
 137:.\Generated_Source\PSoC5/ISR_Scope0_Comp.c ****     ISR_Scope0_Comp_Disable();
 115              		.loc 1 137 0
 116 0004 FFF7FEFF 		bl	ISR_Scope0_Comp_Disable
 138:.\Generated_Source\PSoC5/ISR_Scope0_Comp.c **** 
 139:.\Generated_Source\PSoC5/ISR_Scope0_Comp.c ****     /* Set the ISR to point to the passive one. */
 140:.\Generated_Source\PSoC5/ISR_Scope0_Comp.c ****     ISR_Scope0_Comp_SetVector(&IntDefaultHandler);
 117              		.loc 1 140 0
 118 0008 0148     		ldr	r0, .L6
 119 000a FFF7FEFF 		bl	ISR_Scope0_Comp_SetVector
 141:.\Generated_Source\PSoC5/ISR_Scope0_Comp.c **** }
 120              		.loc 1 141 0
 121 000e 80BD     		pop	{r7, pc}
 122              	.L7:
 123              		.align	2
 124              	.L6:
 125 0010 00000000 		.word	IntDefaultHandler
 126              		.cfi_endproc
 127              	.LFE2:
 128              		.size	ISR_Scope0_Comp_Stop, .-ISR_Scope0_Comp_Stop
 129              		.section	.text.ISR_Scope0_Comp_Interrupt,"ax",%progbits
 130              		.align	2
 131              		.global	ISR_Scope0_Comp_Interrupt
 132              		.thumb
 133              		.thumb_func
 134              		.type	ISR_Scope0_Comp_Interrupt, %function
 135              	ISR_Scope0_Comp_Interrupt:
 136              	.LFB3:
 142:.\Generated_Source\PSoC5/ISR_Scope0_Comp.c **** 
 143:.\Generated_Source\PSoC5/ISR_Scope0_Comp.c **** 
 144:.\Generated_Source\PSoC5/ISR_Scope0_Comp.c **** /*******************************************************************************
 145:.\Generated_Source\PSoC5/ISR_Scope0_Comp.c **** * Function Name: ISR_Scope0_Comp_Interrupt
 146:.\Generated_Source\PSoC5/ISR_Scope0_Comp.c **** ********************************************************************************
 147:.\Generated_Source\PSoC5/ISR_Scope0_Comp.c **** *
 148:.\Generated_Source\PSoC5/ISR_Scope0_Comp.c **** * Summary:
 149:.\Generated_Source\PSoC5/ISR_Scope0_Comp.c **** *   The default Interrupt Service Routine for ISR_Scope0_Comp.
ARM GAS  C:\Users\jthem\AppData\Local\Temp\ccO7qMZk.s 			page 6


 150:.\Generated_Source\PSoC5/ISR_Scope0_Comp.c **** *
 151:.\Generated_Source\PSoC5/ISR_Scope0_Comp.c **** *   Add custom code between the coments to keep the next version of this file
 152:.\Generated_Source\PSoC5/ISR_Scope0_Comp.c **** *   from over writting your code.
 153:.\Generated_Source\PSoC5/ISR_Scope0_Comp.c **** *
 154:.\Generated_Source\PSoC5/ISR_Scope0_Comp.c **** * Parameters:  
 155:.\Generated_Source\PSoC5/ISR_Scope0_Comp.c **** *
 156:.\Generated_Source\PSoC5/ISR_Scope0_Comp.c **** * Return:
 157:.\Generated_Source\PSoC5/ISR_Scope0_Comp.c **** *   None
 158:.\Generated_Source\PSoC5/ISR_Scope0_Comp.c **** *
 159:.\Generated_Source\PSoC5/ISR_Scope0_Comp.c **** *******************************************************************************/
 160:.\Generated_Source\PSoC5/ISR_Scope0_Comp.c **** CY_ISR(ISR_Scope0_Comp_Interrupt)
 161:.\Generated_Source\PSoC5/ISR_Scope0_Comp.c **** {
 137              		.loc 1 161 0
 138              		.cfi_startproc
 139              		@ args = 0, pretend = 0, frame = 0
 140              		@ frame_needed = 1, uses_anonymous_args = 0
 141 0000 80B5     		push	{r7, lr}
 142              		.cfi_def_cfa_offset 8
 143              		.cfi_offset 7, -8
 144              		.cfi_offset 14, -4
 145 0002 00AF     		add	r7, sp, #0
 146              		.cfi_def_cfa_register 7
 162:.\Generated_Source\PSoC5/ISR_Scope0_Comp.c ****     #ifdef ISR_Scope0_Comp_INTERRUPT_INTERRUPT_CALLBACK
 163:.\Generated_Source\PSoC5/ISR_Scope0_Comp.c ****         ISR_Scope0_Comp_Interrupt_InterruptCallback();
 164:.\Generated_Source\PSoC5/ISR_Scope0_Comp.c ****     #endif /* ISR_Scope0_Comp_INTERRUPT_INTERRUPT_CALLBACK */ 
 165:.\Generated_Source\PSoC5/ISR_Scope0_Comp.c **** 
 166:.\Generated_Source\PSoC5/ISR_Scope0_Comp.c ****     /*  Place your Interrupt code here. */
 167:.\Generated_Source\PSoC5/ISR_Scope0_Comp.c ****     /* `#START ISR_Scope0_Comp_Interrupt` */
 168:.\Generated_Source\PSoC5/ISR_Scope0_Comp.c ****     extern int scope0State;
 169:.\Generated_Source\PSoC5/ISR_Scope0_Comp.c ****     
 170:.\Generated_Source\PSoC5/ISR_Scope0_Comp.c ****     ISR_Scope0_Comp_Disable();
 147              		.loc 1 170 0
 148 0004 FFF7FEFF 		bl	ISR_Scope0_Comp_Disable
 171:.\Generated_Source\PSoC5/ISR_Scope0_Comp.c ****     LED_0_Write(!LED_0_Read());
 149              		.loc 1 171 0
 150 0008 FFF7FEFF 		bl	LED_0_Read
 151 000c 0346     		mov	r3, r0
 152 000e 002B     		cmp	r3, #0
 153 0010 0CBF     		ite	eq
 154 0012 0123     		moveq	r3, #1
 155 0014 0023     		movne	r3, #0
 156 0016 DBB2     		uxtb	r3, r3
 157 0018 1846     		mov	r0, r3
 158 001a FFF7FEFF 		bl	LED_0_Write
 172:.\Generated_Source\PSoC5/ISR_Scope0_Comp.c ****     switch (scope0State) {
 159              		.loc 1 172 0
 160 001e 0D4B     		ldr	r3, .L15
 161 0020 1B68     		ldr	r3, [r3]
 162 0022 032B     		cmp	r3, #3
 163 0024 12D8     		bhi	.L9
 164 0026 01A2     		adr	r2, .L11
 165 0028 52F823F0 		ldr	pc, [r2, r3, lsl #2]
 166              		.p2align 2
 167              	.L11:
 168 002c 3D000000 		.word	.L10+1
 169 0030 4D000000 		.word	.L9+1
 170 0034 45000000 		.word	.L13+1
ARM GAS  C:\Users\jthem\AppData\Local\Temp\ccO7qMZk.s 			page 7


 171 0038 4D000000 		.word	.L9+1
 172              		.p2align 1
 173              	.L10:
 173:.\Generated_Source\PSoC5/ISR_Scope0_Comp.c ****     case 0:
 174:.\Generated_Source\PSoC5/ISR_Scope0_Comp.c ****         scope0State = 1;
 174              		.loc 1 174 0
 175 003c 054B     		ldr	r3, .L15
 176 003e 0122     		movs	r2, #1
 177 0040 1A60     		str	r2, [r3]
 175:.\Generated_Source\PSoC5/ISR_Scope0_Comp.c ****         break;
 178              		.loc 1 175 0
 179 0042 03E0     		b	.L9
 180              	.L13:
 176:.\Generated_Source\PSoC5/ISR_Scope0_Comp.c ****     case 1: break;
 177:.\Generated_Source\PSoC5/ISR_Scope0_Comp.c ****     case 2:
 178:.\Generated_Source\PSoC5/ISR_Scope0_Comp.c ****         scope0State = 3;
 181              		.loc 1 178 0
 182 0044 034B     		ldr	r3, .L15
 183 0046 0322     		movs	r2, #3
 184 0048 1A60     		str	r2, [r3]
 179:.\Generated_Source\PSoC5/ISR_Scope0_Comp.c ****         break;
 185              		.loc 1 179 0
 186 004a 00BF     		nop
 187              	.L9:
 180:.\Generated_Source\PSoC5/ISR_Scope0_Comp.c ****     case 3: break;
 181:.\Generated_Source\PSoC5/ISR_Scope0_Comp.c ****     }
 182:.\Generated_Source\PSoC5/ISR_Scope0_Comp.c ****     ISR_Scope0_Comp_Enable();
 188              		.loc 1 182 0
 189 004c FFF7FEFF 		bl	ISR_Scope0_Comp_Enable
 183:.\Generated_Source\PSoC5/ISR_Scope0_Comp.c ****     /* `#END` */
 184:.\Generated_Source\PSoC5/ISR_Scope0_Comp.c **** }
 190              		.loc 1 184 0
 191 0050 80BD     		pop	{r7, pc}
 192              	.L16:
 193 0052 00BF     		.align	2
 194              	.L15:
 195 0054 00000000 		.word	scope0State
 196              		.cfi_endproc
 197              	.LFE3:
 198              		.size	ISR_Scope0_Comp_Interrupt, .-ISR_Scope0_Comp_Interrupt
 199              		.section	.text.ISR_Scope0_Comp_SetVector,"ax",%progbits
 200              		.align	2
 201              		.global	ISR_Scope0_Comp_SetVector
 202              		.thumb
 203              		.thumb_func
 204              		.type	ISR_Scope0_Comp_SetVector, %function
 205              	ISR_Scope0_Comp_SetVector:
 206              	.LFB4:
 185:.\Generated_Source\PSoC5/ISR_Scope0_Comp.c **** 
 186:.\Generated_Source\PSoC5/ISR_Scope0_Comp.c **** 
 187:.\Generated_Source\PSoC5/ISR_Scope0_Comp.c **** /*******************************************************************************
 188:.\Generated_Source\PSoC5/ISR_Scope0_Comp.c **** * Function Name: ISR_Scope0_Comp_SetVector
 189:.\Generated_Source\PSoC5/ISR_Scope0_Comp.c **** ********************************************************************************
 190:.\Generated_Source\PSoC5/ISR_Scope0_Comp.c **** *
 191:.\Generated_Source\PSoC5/ISR_Scope0_Comp.c **** * Summary:
 192:.\Generated_Source\PSoC5/ISR_Scope0_Comp.c **** *   Change the ISR vector for the Interrupt. Note calling ISR_Scope0_Comp_Start
 193:.\Generated_Source\PSoC5/ISR_Scope0_Comp.c **** *   will override any effect this method would have had. To set the vector 
ARM GAS  C:\Users\jthem\AppData\Local\Temp\ccO7qMZk.s 			page 8


 194:.\Generated_Source\PSoC5/ISR_Scope0_Comp.c **** *   before the component has been started use ISR_Scope0_Comp_StartEx instead.
 195:.\Generated_Source\PSoC5/ISR_Scope0_Comp.c **** * 
 196:.\Generated_Source\PSoC5/ISR_Scope0_Comp.c **** *   When defining ISR functions, the CY_ISR and CY_ISR_PROTO macros should be 
 197:.\Generated_Source\PSoC5/ISR_Scope0_Comp.c **** *   used to provide consistent definition across compilers:
 198:.\Generated_Source\PSoC5/ISR_Scope0_Comp.c **** *
 199:.\Generated_Source\PSoC5/ISR_Scope0_Comp.c **** *   Function definition example:
 200:.\Generated_Source\PSoC5/ISR_Scope0_Comp.c **** *   CY_ISR(MyISR)
 201:.\Generated_Source\PSoC5/ISR_Scope0_Comp.c **** *   {
 202:.\Generated_Source\PSoC5/ISR_Scope0_Comp.c **** *   }
 203:.\Generated_Source\PSoC5/ISR_Scope0_Comp.c **** *
 204:.\Generated_Source\PSoC5/ISR_Scope0_Comp.c **** *   Function prototype example:
 205:.\Generated_Source\PSoC5/ISR_Scope0_Comp.c **** *     CY_ISR_PROTO(MyISR);
 206:.\Generated_Source\PSoC5/ISR_Scope0_Comp.c **** *
 207:.\Generated_Source\PSoC5/ISR_Scope0_Comp.c **** * Parameters:
 208:.\Generated_Source\PSoC5/ISR_Scope0_Comp.c **** *   address: Address of the ISR to set in the interrupt vector table.
 209:.\Generated_Source\PSoC5/ISR_Scope0_Comp.c **** *
 210:.\Generated_Source\PSoC5/ISR_Scope0_Comp.c **** * Return:
 211:.\Generated_Source\PSoC5/ISR_Scope0_Comp.c **** *   None
 212:.\Generated_Source\PSoC5/ISR_Scope0_Comp.c **** *
 213:.\Generated_Source\PSoC5/ISR_Scope0_Comp.c **** *******************************************************************************/
 214:.\Generated_Source\PSoC5/ISR_Scope0_Comp.c **** void ISR_Scope0_Comp_SetVector(cyisraddress address)
 215:.\Generated_Source\PSoC5/ISR_Scope0_Comp.c **** {
 207              		.loc 1 215 0
 208              		.cfi_startproc
 209              		@ args = 0, pretend = 0, frame = 16
 210              		@ frame_needed = 1, uses_anonymous_args = 0
 211              		@ link register save eliminated.
 212 0000 80B4     		push	{r7}
 213              		.cfi_def_cfa_offset 4
 214              		.cfi_offset 7, -4
 215 0002 85B0     		sub	sp, sp, #20
 216              		.cfi_def_cfa_offset 24
 217 0004 00AF     		add	r7, sp, #0
 218              		.cfi_def_cfa_register 7
 219 0006 7860     		str	r0, [r7, #4]
 216:.\Generated_Source\PSoC5/ISR_Scope0_Comp.c ****     cyisraddress * ramVectorTable;
 217:.\Generated_Source\PSoC5/ISR_Scope0_Comp.c **** 
 218:.\Generated_Source\PSoC5/ISR_Scope0_Comp.c ****     ramVectorTable = (cyisraddress *) *CYINT_VECT_TABLE;
 220              		.loc 1 218 0
 221 0008 054B     		ldr	r3, .L18
 222 000a 1B68     		ldr	r3, [r3]
 223 000c FB60     		str	r3, [r7, #12]
 219:.\Generated_Source\PSoC5/ISR_Scope0_Comp.c **** 
 220:.\Generated_Source\PSoC5/ISR_Scope0_Comp.c ****     ramVectorTable[CYINT_IRQ_BASE + (uint32)ISR_Scope0_Comp__INTC_NUMBER] = address;
 224              		.loc 1 220 0
 225 000e FB68     		ldr	r3, [r7, #12]
 226 0010 4033     		adds	r3, r3, #64
 227 0012 7A68     		ldr	r2, [r7, #4]
 228 0014 1A60     		str	r2, [r3]
 221:.\Generated_Source\PSoC5/ISR_Scope0_Comp.c **** }
 229              		.loc 1 221 0
 230 0016 1437     		adds	r7, r7, #20
 231              		.cfi_def_cfa_offset 4
 232 0018 BD46     		mov	sp, r7
 233              		.cfi_def_cfa_register 13
 234              		@ sp needed
 235 001a 5DF8047B 		ldr	r7, [sp], #4
ARM GAS  C:\Users\jthem\AppData\Local\Temp\ccO7qMZk.s 			page 9


 236              		.cfi_restore 7
 237              		.cfi_def_cfa_offset 0
 238 001e 7047     		bx	lr
 239              	.L19:
 240              		.align	2
 241              	.L18:
 242 0020 08ED00E0 		.word	-536810232
 243              		.cfi_endproc
 244              	.LFE4:
 245              		.size	ISR_Scope0_Comp_SetVector, .-ISR_Scope0_Comp_SetVector
 246              		.section	.text.ISR_Scope0_Comp_GetVector,"ax",%progbits
 247              		.align	2
 248              		.global	ISR_Scope0_Comp_GetVector
 249              		.thumb
 250              		.thumb_func
 251              		.type	ISR_Scope0_Comp_GetVector, %function
 252              	ISR_Scope0_Comp_GetVector:
 253              	.LFB5:
 222:.\Generated_Source\PSoC5/ISR_Scope0_Comp.c **** 
 223:.\Generated_Source\PSoC5/ISR_Scope0_Comp.c **** 
 224:.\Generated_Source\PSoC5/ISR_Scope0_Comp.c **** /*******************************************************************************
 225:.\Generated_Source\PSoC5/ISR_Scope0_Comp.c **** * Function Name: ISR_Scope0_Comp_GetVector
 226:.\Generated_Source\PSoC5/ISR_Scope0_Comp.c **** ********************************************************************************
 227:.\Generated_Source\PSoC5/ISR_Scope0_Comp.c **** *
 228:.\Generated_Source\PSoC5/ISR_Scope0_Comp.c **** * Summary:
 229:.\Generated_Source\PSoC5/ISR_Scope0_Comp.c **** *   Gets the "address" of the current ISR vector for the Interrupt.
 230:.\Generated_Source\PSoC5/ISR_Scope0_Comp.c **** *
 231:.\Generated_Source\PSoC5/ISR_Scope0_Comp.c **** * Parameters:
 232:.\Generated_Source\PSoC5/ISR_Scope0_Comp.c **** *   None
 233:.\Generated_Source\PSoC5/ISR_Scope0_Comp.c **** *
 234:.\Generated_Source\PSoC5/ISR_Scope0_Comp.c **** * Return:
 235:.\Generated_Source\PSoC5/ISR_Scope0_Comp.c **** *   Address of the ISR in the interrupt vector table.
 236:.\Generated_Source\PSoC5/ISR_Scope0_Comp.c **** *
 237:.\Generated_Source\PSoC5/ISR_Scope0_Comp.c **** *******************************************************************************/
 238:.\Generated_Source\PSoC5/ISR_Scope0_Comp.c **** cyisraddress ISR_Scope0_Comp_GetVector(void)
 239:.\Generated_Source\PSoC5/ISR_Scope0_Comp.c **** {
 254              		.loc 1 239 0
 255              		.cfi_startproc
 256              		@ args = 0, pretend = 0, frame = 8
 257              		@ frame_needed = 1, uses_anonymous_args = 0
 258              		@ link register save eliminated.
 259 0000 80B4     		push	{r7}
 260              		.cfi_def_cfa_offset 4
 261              		.cfi_offset 7, -4
 262 0002 83B0     		sub	sp, sp, #12
 263              		.cfi_def_cfa_offset 16
 264 0004 00AF     		add	r7, sp, #0
 265              		.cfi_def_cfa_register 7
 240:.\Generated_Source\PSoC5/ISR_Scope0_Comp.c ****     cyisraddress * ramVectorTable;
 241:.\Generated_Source\PSoC5/ISR_Scope0_Comp.c **** 
 242:.\Generated_Source\PSoC5/ISR_Scope0_Comp.c ****     ramVectorTable = (cyisraddress *) *CYINT_VECT_TABLE;
 266              		.loc 1 242 0
 267 0006 054B     		ldr	r3, .L22
 268 0008 1B68     		ldr	r3, [r3]
 269 000a 7B60     		str	r3, [r7, #4]
 243:.\Generated_Source\PSoC5/ISR_Scope0_Comp.c **** 
 244:.\Generated_Source\PSoC5/ISR_Scope0_Comp.c ****     return ramVectorTable[CYINT_IRQ_BASE + (uint32)ISR_Scope0_Comp__INTC_NUMBER];
ARM GAS  C:\Users\jthem\AppData\Local\Temp\ccO7qMZk.s 			page 10


 270              		.loc 1 244 0
 271 000c 7B68     		ldr	r3, [r7, #4]
 272 000e 1B6C     		ldr	r3, [r3, #64]
 245:.\Generated_Source\PSoC5/ISR_Scope0_Comp.c **** }
 273              		.loc 1 245 0
 274 0010 1846     		mov	r0, r3
 275 0012 0C37     		adds	r7, r7, #12
 276              		.cfi_def_cfa_offset 4
 277 0014 BD46     		mov	sp, r7
 278              		.cfi_def_cfa_register 13
 279              		@ sp needed
 280 0016 5DF8047B 		ldr	r7, [sp], #4
 281              		.cfi_restore 7
 282              		.cfi_def_cfa_offset 0
 283 001a 7047     		bx	lr
 284              	.L23:
 285              		.align	2
 286              	.L22:
 287 001c 08ED00E0 		.word	-536810232
 288              		.cfi_endproc
 289              	.LFE5:
 290              		.size	ISR_Scope0_Comp_GetVector, .-ISR_Scope0_Comp_GetVector
 291              		.section	.text.ISR_Scope0_Comp_SetPriority,"ax",%progbits
 292              		.align	2
 293              		.global	ISR_Scope0_Comp_SetPriority
 294              		.thumb
 295              		.thumb_func
 296              		.type	ISR_Scope0_Comp_SetPriority, %function
 297              	ISR_Scope0_Comp_SetPriority:
 298              	.LFB6:
 246:.\Generated_Source\PSoC5/ISR_Scope0_Comp.c **** 
 247:.\Generated_Source\PSoC5/ISR_Scope0_Comp.c **** 
 248:.\Generated_Source\PSoC5/ISR_Scope0_Comp.c **** /*******************************************************************************
 249:.\Generated_Source\PSoC5/ISR_Scope0_Comp.c **** * Function Name: ISR_Scope0_Comp_SetPriority
 250:.\Generated_Source\PSoC5/ISR_Scope0_Comp.c **** ********************************************************************************
 251:.\Generated_Source\PSoC5/ISR_Scope0_Comp.c **** *
 252:.\Generated_Source\PSoC5/ISR_Scope0_Comp.c **** * Summary:
 253:.\Generated_Source\PSoC5/ISR_Scope0_Comp.c **** *   Sets the Priority of the Interrupt. 
 254:.\Generated_Source\PSoC5/ISR_Scope0_Comp.c **** *
 255:.\Generated_Source\PSoC5/ISR_Scope0_Comp.c **** *   Note calling ISR_Scope0_Comp_Start or ISR_Scope0_Comp_StartEx will 
 256:.\Generated_Source\PSoC5/ISR_Scope0_Comp.c **** *   override any effect this API would have had. This API should only be called
 257:.\Generated_Source\PSoC5/ISR_Scope0_Comp.c **** *   after ISR_Scope0_Comp_Start or ISR_Scope0_Comp_StartEx has been called. 
 258:.\Generated_Source\PSoC5/ISR_Scope0_Comp.c **** *   To set the initial priority for the component, use the Design-Wide Resources
 259:.\Generated_Source\PSoC5/ISR_Scope0_Comp.c **** *   Interrupt Editor.
 260:.\Generated_Source\PSoC5/ISR_Scope0_Comp.c **** *
 261:.\Generated_Source\PSoC5/ISR_Scope0_Comp.c **** *   Note This API has no effect on Non-maskable interrupt NMI).
 262:.\Generated_Source\PSoC5/ISR_Scope0_Comp.c **** *
 263:.\Generated_Source\PSoC5/ISR_Scope0_Comp.c **** * Parameters:
 264:.\Generated_Source\PSoC5/ISR_Scope0_Comp.c **** *   priority: Priority of the interrupt, 0 being the highest priority
 265:.\Generated_Source\PSoC5/ISR_Scope0_Comp.c **** *             PSoC 3 and PSoC 5LP: Priority is from 0 to 7.
 266:.\Generated_Source\PSoC5/ISR_Scope0_Comp.c **** *             PSoC 4: Priority is from 0 to 3.
 267:.\Generated_Source\PSoC5/ISR_Scope0_Comp.c **** *
 268:.\Generated_Source\PSoC5/ISR_Scope0_Comp.c **** * Return:
 269:.\Generated_Source\PSoC5/ISR_Scope0_Comp.c **** *   None
 270:.\Generated_Source\PSoC5/ISR_Scope0_Comp.c **** *
 271:.\Generated_Source\PSoC5/ISR_Scope0_Comp.c **** *******************************************************************************/
 272:.\Generated_Source\PSoC5/ISR_Scope0_Comp.c **** void ISR_Scope0_Comp_SetPriority(uint8 priority)
ARM GAS  C:\Users\jthem\AppData\Local\Temp\ccO7qMZk.s 			page 11


 273:.\Generated_Source\PSoC5/ISR_Scope0_Comp.c **** {
 299              		.loc 1 273 0
 300              		.cfi_startproc
 301              		@ args = 0, pretend = 0, frame = 8
 302              		@ frame_needed = 1, uses_anonymous_args = 0
 303              		@ link register save eliminated.
 304 0000 80B4     		push	{r7}
 305              		.cfi_def_cfa_offset 4
 306              		.cfi_offset 7, -4
 307 0002 83B0     		sub	sp, sp, #12
 308              		.cfi_def_cfa_offset 16
 309 0004 00AF     		add	r7, sp, #0
 310              		.cfi_def_cfa_register 7
 311 0006 0346     		mov	r3, r0
 312 0008 FB71     		strb	r3, [r7, #7]
 274:.\Generated_Source\PSoC5/ISR_Scope0_Comp.c ****     *ISR_Scope0_Comp_INTC_PRIOR = priority << 5;
 313              		.loc 1 274 0
 314 000a 054A     		ldr	r2, .L25
 315 000c FB79     		ldrb	r3, [r7, #7]
 316 000e 5B01     		lsls	r3, r3, #5
 317 0010 DBB2     		uxtb	r3, r3
 318 0012 1370     		strb	r3, [r2]
 275:.\Generated_Source\PSoC5/ISR_Scope0_Comp.c **** }
 319              		.loc 1 275 0
 320 0014 0C37     		adds	r7, r7, #12
 321              		.cfi_def_cfa_offset 4
 322 0016 BD46     		mov	sp, r7
 323              		.cfi_def_cfa_register 13
 324              		@ sp needed
 325 0018 5DF8047B 		ldr	r7, [sp], #4
 326              		.cfi_restore 7
 327              		.cfi_def_cfa_offset 0
 328 001c 7047     		bx	lr
 329              	.L26:
 330 001e 00BF     		.align	2
 331              	.L25:
 332 0020 00E400E0 		.word	-536812544
 333              		.cfi_endproc
 334              	.LFE6:
 335              		.size	ISR_Scope0_Comp_SetPriority, .-ISR_Scope0_Comp_SetPriority
 336              		.section	.text.ISR_Scope0_Comp_GetPriority,"ax",%progbits
 337              		.align	2
 338              		.global	ISR_Scope0_Comp_GetPriority
 339              		.thumb
 340              		.thumb_func
 341              		.type	ISR_Scope0_Comp_GetPriority, %function
 342              	ISR_Scope0_Comp_GetPriority:
 343              	.LFB7:
 276:.\Generated_Source\PSoC5/ISR_Scope0_Comp.c **** 
 277:.\Generated_Source\PSoC5/ISR_Scope0_Comp.c **** 
 278:.\Generated_Source\PSoC5/ISR_Scope0_Comp.c **** /*******************************************************************************
 279:.\Generated_Source\PSoC5/ISR_Scope0_Comp.c **** * Function Name: ISR_Scope0_Comp_GetPriority
 280:.\Generated_Source\PSoC5/ISR_Scope0_Comp.c **** ********************************************************************************
 281:.\Generated_Source\PSoC5/ISR_Scope0_Comp.c **** *
 282:.\Generated_Source\PSoC5/ISR_Scope0_Comp.c **** * Summary:
 283:.\Generated_Source\PSoC5/ISR_Scope0_Comp.c **** *   Gets the Priority of the Interrupt.
 284:.\Generated_Source\PSoC5/ISR_Scope0_Comp.c **** *
ARM GAS  C:\Users\jthem\AppData\Local\Temp\ccO7qMZk.s 			page 12


 285:.\Generated_Source\PSoC5/ISR_Scope0_Comp.c **** * Parameters:
 286:.\Generated_Source\PSoC5/ISR_Scope0_Comp.c **** *   None
 287:.\Generated_Source\PSoC5/ISR_Scope0_Comp.c **** *
 288:.\Generated_Source\PSoC5/ISR_Scope0_Comp.c **** * Return:
 289:.\Generated_Source\PSoC5/ISR_Scope0_Comp.c **** *   Priority of the interrupt, 0 being the highest priority
 290:.\Generated_Source\PSoC5/ISR_Scope0_Comp.c **** *    PSoC 3 and PSoC 5LP: Priority is from 0 to 7.
 291:.\Generated_Source\PSoC5/ISR_Scope0_Comp.c **** *    PSoC 4: Priority is from 0 to 3.
 292:.\Generated_Source\PSoC5/ISR_Scope0_Comp.c **** *
 293:.\Generated_Source\PSoC5/ISR_Scope0_Comp.c **** *******************************************************************************/
 294:.\Generated_Source\PSoC5/ISR_Scope0_Comp.c **** uint8 ISR_Scope0_Comp_GetPriority(void)
 295:.\Generated_Source\PSoC5/ISR_Scope0_Comp.c **** {
 344              		.loc 1 295 0
 345              		.cfi_startproc
 346              		@ args = 0, pretend = 0, frame = 8
 347              		@ frame_needed = 1, uses_anonymous_args = 0
 348              		@ link register save eliminated.
 349 0000 80B4     		push	{r7}
 350              		.cfi_def_cfa_offset 4
 351              		.cfi_offset 7, -4
 352 0002 83B0     		sub	sp, sp, #12
 353              		.cfi_def_cfa_offset 16
 354 0004 00AF     		add	r7, sp, #0
 355              		.cfi_def_cfa_register 7
 296:.\Generated_Source\PSoC5/ISR_Scope0_Comp.c ****     uint8 priority;
 297:.\Generated_Source\PSoC5/ISR_Scope0_Comp.c **** 
 298:.\Generated_Source\PSoC5/ISR_Scope0_Comp.c **** 
 299:.\Generated_Source\PSoC5/ISR_Scope0_Comp.c ****     priority = *ISR_Scope0_Comp_INTC_PRIOR >> 5;
 356              		.loc 1 299 0
 357 0006 064B     		ldr	r3, .L29
 358 0008 1B78     		ldrb	r3, [r3]
 359 000a DBB2     		uxtb	r3, r3
 360 000c 5B09     		lsrs	r3, r3, #5
 361 000e FB71     		strb	r3, [r7, #7]
 300:.\Generated_Source\PSoC5/ISR_Scope0_Comp.c **** 
 301:.\Generated_Source\PSoC5/ISR_Scope0_Comp.c ****     return priority;
 362              		.loc 1 301 0
 363 0010 FB79     		ldrb	r3, [r7, #7]	@ zero_extendqisi2
 302:.\Generated_Source\PSoC5/ISR_Scope0_Comp.c **** }
 364              		.loc 1 302 0
 365 0012 1846     		mov	r0, r3
 366 0014 0C37     		adds	r7, r7, #12
 367              		.cfi_def_cfa_offset 4
 368 0016 BD46     		mov	sp, r7
 369              		.cfi_def_cfa_register 13
 370              		@ sp needed
 371 0018 5DF8047B 		ldr	r7, [sp], #4
 372              		.cfi_restore 7
 373              		.cfi_def_cfa_offset 0
 374 001c 7047     		bx	lr
 375              	.L30:
 376 001e 00BF     		.align	2
 377              	.L29:
 378 0020 00E400E0 		.word	-536812544
 379              		.cfi_endproc
 380              	.LFE7:
 381              		.size	ISR_Scope0_Comp_GetPriority, .-ISR_Scope0_Comp_GetPriority
 382              		.section	.text.ISR_Scope0_Comp_Enable,"ax",%progbits
ARM GAS  C:\Users\jthem\AppData\Local\Temp\ccO7qMZk.s 			page 13


 383              		.align	2
 384              		.global	ISR_Scope0_Comp_Enable
 385              		.thumb
 386              		.thumb_func
 387              		.type	ISR_Scope0_Comp_Enable, %function
 388              	ISR_Scope0_Comp_Enable:
 389              	.LFB8:
 303:.\Generated_Source\PSoC5/ISR_Scope0_Comp.c **** 
 304:.\Generated_Source\PSoC5/ISR_Scope0_Comp.c **** 
 305:.\Generated_Source\PSoC5/ISR_Scope0_Comp.c **** /*******************************************************************************
 306:.\Generated_Source\PSoC5/ISR_Scope0_Comp.c **** * Function Name: ISR_Scope0_Comp_Enable
 307:.\Generated_Source\PSoC5/ISR_Scope0_Comp.c **** ********************************************************************************
 308:.\Generated_Source\PSoC5/ISR_Scope0_Comp.c **** *
 309:.\Generated_Source\PSoC5/ISR_Scope0_Comp.c **** * Summary:
 310:.\Generated_Source\PSoC5/ISR_Scope0_Comp.c **** *   Enables the interrupt to the interrupt controller. Do not call this function
 311:.\Generated_Source\PSoC5/ISR_Scope0_Comp.c **** *   unless ISR_Start() has been called or the functionality of the ISR_Start() 
 312:.\Generated_Source\PSoC5/ISR_Scope0_Comp.c **** *   function, which sets the vector and the priority, has been called.
 313:.\Generated_Source\PSoC5/ISR_Scope0_Comp.c **** *
 314:.\Generated_Source\PSoC5/ISR_Scope0_Comp.c **** * Parameters:
 315:.\Generated_Source\PSoC5/ISR_Scope0_Comp.c **** *   None
 316:.\Generated_Source\PSoC5/ISR_Scope0_Comp.c **** *
 317:.\Generated_Source\PSoC5/ISR_Scope0_Comp.c **** * Return:
 318:.\Generated_Source\PSoC5/ISR_Scope0_Comp.c **** *   None
 319:.\Generated_Source\PSoC5/ISR_Scope0_Comp.c **** *
 320:.\Generated_Source\PSoC5/ISR_Scope0_Comp.c **** *******************************************************************************/
 321:.\Generated_Source\PSoC5/ISR_Scope0_Comp.c **** void ISR_Scope0_Comp_Enable(void)
 322:.\Generated_Source\PSoC5/ISR_Scope0_Comp.c **** {
 390              		.loc 1 322 0
 391              		.cfi_startproc
 392              		@ args = 0, pretend = 0, frame = 0
 393              		@ frame_needed = 1, uses_anonymous_args = 0
 394              		@ link register save eliminated.
 395 0000 80B4     		push	{r7}
 396              		.cfi_def_cfa_offset 4
 397              		.cfi_offset 7, -4
 398 0002 00AF     		add	r7, sp, #0
 399              		.cfi_def_cfa_register 7
 323:.\Generated_Source\PSoC5/ISR_Scope0_Comp.c ****     /* Enable the general interrupt. */
 324:.\Generated_Source\PSoC5/ISR_Scope0_Comp.c ****     *ISR_Scope0_Comp_INTC_SET_EN = ISR_Scope0_Comp__INTC_MASK;
 400              		.loc 1 324 0
 401 0004 034B     		ldr	r3, .L32
 402 0006 0122     		movs	r2, #1
 403 0008 1A60     		str	r2, [r3]
 325:.\Generated_Source\PSoC5/ISR_Scope0_Comp.c **** }
 404              		.loc 1 325 0
 405 000a BD46     		mov	sp, r7
 406              		.cfi_def_cfa_register 13
 407              		@ sp needed
 408 000c 5DF8047B 		ldr	r7, [sp], #4
 409              		.cfi_restore 7
 410              		.cfi_def_cfa_offset 0
 411 0010 7047     		bx	lr
 412              	.L33:
 413 0012 00BF     		.align	2
 414              	.L32:
 415 0014 00E100E0 		.word	-536813312
 416              		.cfi_endproc
ARM GAS  C:\Users\jthem\AppData\Local\Temp\ccO7qMZk.s 			page 14


 417              	.LFE8:
 418              		.size	ISR_Scope0_Comp_Enable, .-ISR_Scope0_Comp_Enable
 419              		.section	.text.ISR_Scope0_Comp_GetState,"ax",%progbits
 420              		.align	2
 421              		.global	ISR_Scope0_Comp_GetState
 422              		.thumb
 423              		.thumb_func
 424              		.type	ISR_Scope0_Comp_GetState, %function
 425              	ISR_Scope0_Comp_GetState:
 426              	.LFB9:
 326:.\Generated_Source\PSoC5/ISR_Scope0_Comp.c **** 
 327:.\Generated_Source\PSoC5/ISR_Scope0_Comp.c **** 
 328:.\Generated_Source\PSoC5/ISR_Scope0_Comp.c **** /*******************************************************************************
 329:.\Generated_Source\PSoC5/ISR_Scope0_Comp.c **** * Function Name: ISR_Scope0_Comp_GetState
 330:.\Generated_Source\PSoC5/ISR_Scope0_Comp.c **** ********************************************************************************
 331:.\Generated_Source\PSoC5/ISR_Scope0_Comp.c **** *
 332:.\Generated_Source\PSoC5/ISR_Scope0_Comp.c **** * Summary:
 333:.\Generated_Source\PSoC5/ISR_Scope0_Comp.c **** *   Gets the state (enabled, disabled) of the Interrupt.
 334:.\Generated_Source\PSoC5/ISR_Scope0_Comp.c **** *
 335:.\Generated_Source\PSoC5/ISR_Scope0_Comp.c **** * Parameters:
 336:.\Generated_Source\PSoC5/ISR_Scope0_Comp.c **** *   None
 337:.\Generated_Source\PSoC5/ISR_Scope0_Comp.c **** *
 338:.\Generated_Source\PSoC5/ISR_Scope0_Comp.c **** * Return:
 339:.\Generated_Source\PSoC5/ISR_Scope0_Comp.c **** *   1 if enabled, 0 if disabled.
 340:.\Generated_Source\PSoC5/ISR_Scope0_Comp.c **** *
 341:.\Generated_Source\PSoC5/ISR_Scope0_Comp.c **** *******************************************************************************/
 342:.\Generated_Source\PSoC5/ISR_Scope0_Comp.c **** uint8 ISR_Scope0_Comp_GetState(void)
 343:.\Generated_Source\PSoC5/ISR_Scope0_Comp.c **** {
 427              		.loc 1 343 0
 428              		.cfi_startproc
 429              		@ args = 0, pretend = 0, frame = 0
 430              		@ frame_needed = 1, uses_anonymous_args = 0
 431              		@ link register save eliminated.
 432 0000 80B4     		push	{r7}
 433              		.cfi_def_cfa_offset 4
 434              		.cfi_offset 7, -4
 435 0002 00AF     		add	r7, sp, #0
 436              		.cfi_def_cfa_register 7
 344:.\Generated_Source\PSoC5/ISR_Scope0_Comp.c ****     /* Get the state of the general interrupt. */
 345:.\Generated_Source\PSoC5/ISR_Scope0_Comp.c ****     return ((*ISR_Scope0_Comp_INTC_SET_EN & (uint32)ISR_Scope0_Comp__INTC_MASK) != 0u) ? 1u:0u;
 437              		.loc 1 345 0
 438 0004 054B     		ldr	r3, .L36
 439 0006 1B68     		ldr	r3, [r3]
 440 0008 DBB2     		uxtb	r3, r3
 441 000a 03F00103 		and	r3, r3, #1
 442 000e DBB2     		uxtb	r3, r3
 346:.\Generated_Source\PSoC5/ISR_Scope0_Comp.c **** }
 443              		.loc 1 346 0
 444 0010 1846     		mov	r0, r3
 445 0012 BD46     		mov	sp, r7
 446              		.cfi_def_cfa_register 13
 447              		@ sp needed
 448 0014 5DF8047B 		ldr	r7, [sp], #4
 449              		.cfi_restore 7
 450              		.cfi_def_cfa_offset 0
 451 0018 7047     		bx	lr
 452              	.L37:
ARM GAS  C:\Users\jthem\AppData\Local\Temp\ccO7qMZk.s 			page 15


 453 001a 00BF     		.align	2
 454              	.L36:
 455 001c 00E100E0 		.word	-536813312
 456              		.cfi_endproc
 457              	.LFE9:
 458              		.size	ISR_Scope0_Comp_GetState, .-ISR_Scope0_Comp_GetState
 459              		.section	.text.ISR_Scope0_Comp_Disable,"ax",%progbits
 460              		.align	2
 461              		.global	ISR_Scope0_Comp_Disable
 462              		.thumb
 463              		.thumb_func
 464              		.type	ISR_Scope0_Comp_Disable, %function
 465              	ISR_Scope0_Comp_Disable:
 466              	.LFB10:
 347:.\Generated_Source\PSoC5/ISR_Scope0_Comp.c **** 
 348:.\Generated_Source\PSoC5/ISR_Scope0_Comp.c **** 
 349:.\Generated_Source\PSoC5/ISR_Scope0_Comp.c **** /*******************************************************************************
 350:.\Generated_Source\PSoC5/ISR_Scope0_Comp.c **** * Function Name: ISR_Scope0_Comp_Disable
 351:.\Generated_Source\PSoC5/ISR_Scope0_Comp.c **** ********************************************************************************
 352:.\Generated_Source\PSoC5/ISR_Scope0_Comp.c **** *
 353:.\Generated_Source\PSoC5/ISR_Scope0_Comp.c **** * Summary:
 354:.\Generated_Source\PSoC5/ISR_Scope0_Comp.c **** *   Disables the Interrupt in the interrupt controller.
 355:.\Generated_Source\PSoC5/ISR_Scope0_Comp.c **** *
 356:.\Generated_Source\PSoC5/ISR_Scope0_Comp.c **** * Parameters:
 357:.\Generated_Source\PSoC5/ISR_Scope0_Comp.c **** *   None
 358:.\Generated_Source\PSoC5/ISR_Scope0_Comp.c **** *
 359:.\Generated_Source\PSoC5/ISR_Scope0_Comp.c **** * Return:
 360:.\Generated_Source\PSoC5/ISR_Scope0_Comp.c **** *   None
 361:.\Generated_Source\PSoC5/ISR_Scope0_Comp.c **** *
 362:.\Generated_Source\PSoC5/ISR_Scope0_Comp.c **** *******************************************************************************/
 363:.\Generated_Source\PSoC5/ISR_Scope0_Comp.c **** void ISR_Scope0_Comp_Disable(void)
 364:.\Generated_Source\PSoC5/ISR_Scope0_Comp.c **** {
 467              		.loc 1 364 0
 468              		.cfi_startproc
 469              		@ args = 0, pretend = 0, frame = 0
 470              		@ frame_needed = 1, uses_anonymous_args = 0
 471              		@ link register save eliminated.
 472 0000 80B4     		push	{r7}
 473              		.cfi_def_cfa_offset 4
 474              		.cfi_offset 7, -4
 475 0002 00AF     		add	r7, sp, #0
 476              		.cfi_def_cfa_register 7
 365:.\Generated_Source\PSoC5/ISR_Scope0_Comp.c ****     /* Disable the general interrupt. */
 366:.\Generated_Source\PSoC5/ISR_Scope0_Comp.c ****     *ISR_Scope0_Comp_INTC_CLR_EN = ISR_Scope0_Comp__INTC_MASK;
 477              		.loc 1 366 0
 478 0004 034B     		ldr	r3, .L39
 479 0006 0122     		movs	r2, #1
 480 0008 1A60     		str	r2, [r3]
 367:.\Generated_Source\PSoC5/ISR_Scope0_Comp.c **** }
 481              		.loc 1 367 0
 482 000a BD46     		mov	sp, r7
 483              		.cfi_def_cfa_register 13
 484              		@ sp needed
 485 000c 5DF8047B 		ldr	r7, [sp], #4
 486              		.cfi_restore 7
 487              		.cfi_def_cfa_offset 0
 488 0010 7047     		bx	lr
ARM GAS  C:\Users\jthem\AppData\Local\Temp\ccO7qMZk.s 			page 16


 489              	.L40:
 490 0012 00BF     		.align	2
 491              	.L39:
 492 0014 80E100E0 		.word	-536813184
 493              		.cfi_endproc
 494              	.LFE10:
 495              		.size	ISR_Scope0_Comp_Disable, .-ISR_Scope0_Comp_Disable
 496              		.section	.text.ISR_Scope0_Comp_SetPending,"ax",%progbits
 497              		.align	2
 498              		.global	ISR_Scope0_Comp_SetPending
 499              		.thumb
 500              		.thumb_func
 501              		.type	ISR_Scope0_Comp_SetPending, %function
 502              	ISR_Scope0_Comp_SetPending:
 503              	.LFB11:
 368:.\Generated_Source\PSoC5/ISR_Scope0_Comp.c **** 
 369:.\Generated_Source\PSoC5/ISR_Scope0_Comp.c **** 
 370:.\Generated_Source\PSoC5/ISR_Scope0_Comp.c **** /*******************************************************************************
 371:.\Generated_Source\PSoC5/ISR_Scope0_Comp.c **** * Function Name: ISR_Scope0_Comp_SetPending
 372:.\Generated_Source\PSoC5/ISR_Scope0_Comp.c **** ********************************************************************************
 373:.\Generated_Source\PSoC5/ISR_Scope0_Comp.c **** *
 374:.\Generated_Source\PSoC5/ISR_Scope0_Comp.c **** * Summary:
 375:.\Generated_Source\PSoC5/ISR_Scope0_Comp.c **** *   Causes the Interrupt to enter the pending state, a software method of
 376:.\Generated_Source\PSoC5/ISR_Scope0_Comp.c **** *   generating the interrupt.
 377:.\Generated_Source\PSoC5/ISR_Scope0_Comp.c **** *
 378:.\Generated_Source\PSoC5/ISR_Scope0_Comp.c **** * Parameters:
 379:.\Generated_Source\PSoC5/ISR_Scope0_Comp.c **** *   None
 380:.\Generated_Source\PSoC5/ISR_Scope0_Comp.c **** *
 381:.\Generated_Source\PSoC5/ISR_Scope0_Comp.c **** * Return:
 382:.\Generated_Source\PSoC5/ISR_Scope0_Comp.c **** *   None
 383:.\Generated_Source\PSoC5/ISR_Scope0_Comp.c **** *
 384:.\Generated_Source\PSoC5/ISR_Scope0_Comp.c **** * Side Effects:
 385:.\Generated_Source\PSoC5/ISR_Scope0_Comp.c **** *   If interrupts are enabled and the interrupt is set up properly, the ISR is
 386:.\Generated_Source\PSoC5/ISR_Scope0_Comp.c **** *   entered (depending on the priority of this interrupt and other pending 
 387:.\Generated_Source\PSoC5/ISR_Scope0_Comp.c **** *   interrupts).
 388:.\Generated_Source\PSoC5/ISR_Scope0_Comp.c **** *
 389:.\Generated_Source\PSoC5/ISR_Scope0_Comp.c **** *******************************************************************************/
 390:.\Generated_Source\PSoC5/ISR_Scope0_Comp.c **** void ISR_Scope0_Comp_SetPending(void)
 391:.\Generated_Source\PSoC5/ISR_Scope0_Comp.c **** {
 504              		.loc 1 391 0
 505              		.cfi_startproc
 506              		@ args = 0, pretend = 0, frame = 0
 507              		@ frame_needed = 1, uses_anonymous_args = 0
 508              		@ link register save eliminated.
 509 0000 80B4     		push	{r7}
 510              		.cfi_def_cfa_offset 4
 511              		.cfi_offset 7, -4
 512 0002 00AF     		add	r7, sp, #0
 513              		.cfi_def_cfa_register 7
 392:.\Generated_Source\PSoC5/ISR_Scope0_Comp.c ****     *ISR_Scope0_Comp_INTC_SET_PD = ISR_Scope0_Comp__INTC_MASK;
 514              		.loc 1 392 0
 515 0004 034B     		ldr	r3, .L42
 516 0006 0122     		movs	r2, #1
 517 0008 1A60     		str	r2, [r3]
 393:.\Generated_Source\PSoC5/ISR_Scope0_Comp.c **** }
 518              		.loc 1 393 0
 519 000a BD46     		mov	sp, r7
ARM GAS  C:\Users\jthem\AppData\Local\Temp\ccO7qMZk.s 			page 17


 520              		.cfi_def_cfa_register 13
 521              		@ sp needed
 522 000c 5DF8047B 		ldr	r7, [sp], #4
 523              		.cfi_restore 7
 524              		.cfi_def_cfa_offset 0
 525 0010 7047     		bx	lr
 526              	.L43:
 527 0012 00BF     		.align	2
 528              	.L42:
 529 0014 00E200E0 		.word	-536813056
 530              		.cfi_endproc
 531              	.LFE11:
 532              		.size	ISR_Scope0_Comp_SetPending, .-ISR_Scope0_Comp_SetPending
 533              		.section	.text.ISR_Scope0_Comp_ClearPending,"ax",%progbits
 534              		.align	2
 535              		.global	ISR_Scope0_Comp_ClearPending
 536              		.thumb
 537              		.thumb_func
 538              		.type	ISR_Scope0_Comp_ClearPending, %function
 539              	ISR_Scope0_Comp_ClearPending:
 540              	.LFB12:
 394:.\Generated_Source\PSoC5/ISR_Scope0_Comp.c **** 
 395:.\Generated_Source\PSoC5/ISR_Scope0_Comp.c **** 
 396:.\Generated_Source\PSoC5/ISR_Scope0_Comp.c **** /*******************************************************************************
 397:.\Generated_Source\PSoC5/ISR_Scope0_Comp.c **** * Function Name: ISR_Scope0_Comp_ClearPending
 398:.\Generated_Source\PSoC5/ISR_Scope0_Comp.c **** ********************************************************************************
 399:.\Generated_Source\PSoC5/ISR_Scope0_Comp.c **** *
 400:.\Generated_Source\PSoC5/ISR_Scope0_Comp.c **** * Summary:
 401:.\Generated_Source\PSoC5/ISR_Scope0_Comp.c **** *   Clears a pending interrupt in the interrupt controller.
 402:.\Generated_Source\PSoC5/ISR_Scope0_Comp.c **** *
 403:.\Generated_Source\PSoC5/ISR_Scope0_Comp.c **** *   Note Some interrupt sources are clear-on-read and require the block 
 404:.\Generated_Source\PSoC5/ISR_Scope0_Comp.c **** *   interrupt/status register to be read/cleared with the appropriate block API 
 405:.\Generated_Source\PSoC5/ISR_Scope0_Comp.c **** *   (GPIO, UART, and so on). Otherwise the ISR will continue to remain in 
 406:.\Generated_Source\PSoC5/ISR_Scope0_Comp.c **** *   pending state even though the interrupt itself is cleared using this API.
 407:.\Generated_Source\PSoC5/ISR_Scope0_Comp.c **** *
 408:.\Generated_Source\PSoC5/ISR_Scope0_Comp.c **** * Parameters:
 409:.\Generated_Source\PSoC5/ISR_Scope0_Comp.c **** *   None
 410:.\Generated_Source\PSoC5/ISR_Scope0_Comp.c **** *
 411:.\Generated_Source\PSoC5/ISR_Scope0_Comp.c **** * Return:
 412:.\Generated_Source\PSoC5/ISR_Scope0_Comp.c **** *   None
 413:.\Generated_Source\PSoC5/ISR_Scope0_Comp.c **** *
 414:.\Generated_Source\PSoC5/ISR_Scope0_Comp.c **** *******************************************************************************/
 415:.\Generated_Source\PSoC5/ISR_Scope0_Comp.c **** void ISR_Scope0_Comp_ClearPending(void)
 416:.\Generated_Source\PSoC5/ISR_Scope0_Comp.c **** {
 541              		.loc 1 416 0
 542              		.cfi_startproc
 543              		@ args = 0, pretend = 0, frame = 0
 544              		@ frame_needed = 1, uses_anonymous_args = 0
 545              		@ link register save eliminated.
 546 0000 80B4     		push	{r7}
 547              		.cfi_def_cfa_offset 4
 548              		.cfi_offset 7, -4
 549 0002 00AF     		add	r7, sp, #0
 550              		.cfi_def_cfa_register 7
 417:.\Generated_Source\PSoC5/ISR_Scope0_Comp.c ****     *ISR_Scope0_Comp_INTC_CLR_PD = ISR_Scope0_Comp__INTC_MASK;
 551              		.loc 1 417 0
 552 0004 034B     		ldr	r3, .L45
ARM GAS  C:\Users\jthem\AppData\Local\Temp\ccO7qMZk.s 			page 18


 553 0006 0122     		movs	r2, #1
 554 0008 1A60     		str	r2, [r3]
 418:.\Generated_Source\PSoC5/ISR_Scope0_Comp.c **** }
 555              		.loc 1 418 0
 556 000a BD46     		mov	sp, r7
 557              		.cfi_def_cfa_register 13
 558              		@ sp needed
 559 000c 5DF8047B 		ldr	r7, [sp], #4
 560              		.cfi_restore 7
 561              		.cfi_def_cfa_offset 0
 562 0010 7047     		bx	lr
 563              	.L46:
 564 0012 00BF     		.align	2
 565              	.L45:
 566 0014 80E200E0 		.word	-536812928
 567              		.cfi_endproc
 568              	.LFE12:
 569              		.size	ISR_Scope0_Comp_ClearPending, .-ISR_Scope0_Comp_ClearPending
 570              		.text
 571              	.Letext0:
 572              		.file 2 "Generated_Source\\PSoC5/cytypes.h"