ARM GAS  C:\Users\jthem\AppData\Local\Temp\ccflPXLw.s 			page 1


   1              		.syntax unified
   2              		.cpu cortex-m3
   3              		.fpu softvfp
   4              		.eabi_attribute 20, 1
   5              		.eabi_attribute 21, 1
   6              		.eabi_attribute 23, 3
   7              		.eabi_attribute 24, 1
   8              		.eabi_attribute 25, 1
   9              		.eabi_attribute 26, 1
  10              		.eabi_attribute 30, 6
  11              		.eabi_attribute 34, 1
  12              		.eabi_attribute 18, 4
  13              		.thumb
  14              		.file	"main.c"
  15              		.text
  16              	.Ltext0:
  17              		.cfi_sections	.debug_frame
  18              		.global _printf_float
  19              		.thumb
  20              		.section	.text.SPI_FNG0_WriteData,"ax",%progbits
  21              		.align	2
  22              		.global	SPI_FNG0_WriteData
  23              		.thumb
  24              		.thumb_func
  25              		.type	SPI_FNG0_WriteData, %function
  26              	SPI_FNG0_WriteData:
  27              	.LFB63:
  28              		.file 1 ".\\main.c"
   1:.\main.c      **** /*******************************************************************************
   2:.\main.c      **** * File Name: main.c
   3:.\main.c      **** * Hardware Dependency:
   4:.\main.c      **** *  CY8C55 Family Processor
   5:.\main.c      **** *
   6:.\main.c      **** ********************************************************************************
   7:.\main.c      **** * Copyright 2012, Cypress Semiconductor Corporation. All rights reserved.
   8:.\main.c      **** * This software is owned by Cypress Semiconductor Corporation and is protected
   9:.\main.c      **** * by and subject to worldwide patent and copyright laws and treaties.
  10:.\main.c      **** * Therefore, you may use this software only as provided in the license agreement
  11:.\main.c      **** * accompanying the software package from which you obtained this software.
  12:.\main.c      **** * CYPRESS AND ITS SUPPLIERS MAKE NO WARRANTY OF ANY KIND, EXPRESS OR IMPLIED,
  13:.\main.c      **** * WITH REGARD TO THIS SOFTWARE, INCLUDING, BUT NOT LIMITED TO, NONINFRINGEMENT,
  14:.\main.c      **** * IMPLIED WARRANTIES OF MERCHANTABILITY AND FITNESS FOR A PARTICULAR PURPOSE.
  15:.\main.c      **** *******************************************************************************/
  16:.\main.c      **** 
  17:.\main.c      **** #include <device.h>
  18:.\main.c      **** #include <stdio.h>
  19:.\main.c      **** #include <stdlib.h>
  20:.\main.c      **** #include "FunctionGenerator.h"
  21:.\main.c      **** #include "Serial.h"
  22:.\main.c      **** #include "StringHelpers.h"
  23:.\main.c      **** 
  24:.\main.c      **** #if defined (__GNUC__)
  25:.\main.c      ****     /* Add an explicit reference to the floating point printf library */
  26:.\main.c      ****     /* to allow the usage of floating point conversion specifiers. */
  27:.\main.c      ****     /* This is not linked in by default with the newlib-nano library. */
  28:.\main.c      ****     asm (".global _printf_float");
  29:.\main.c      **** #endif
ARM GAS  C:\Users\jthem\AppData\Local\Temp\ccflPXLw.s 			page 2


  30:.\main.c      **** 
  31:.\main.c      **** /*
  32:.\main.c      **** void MCP41010_Write(uint8 value, uint8 fnGenerator) 
  33:.\main.c      **** {
  34:.\main.c      ****     if (fnGenerator == 0) {
  35:.\main.c      ****         SPI_FNG0_WriteTxData(0b00010001); // This tells the chip to set the pot
  36:.\main.c      ****         SPI_FNG0_WriteTxData(value);      // This tells it the pot position
  37:.\main.c      ****     } else if (fnGenerator == 1) {
  38:.\main.c      ****         SPI_FNG1_WriteTxData(0b00010001);
  39:.\main.c      ****         SPI_FNG1_WriteTxData(value);
  40:.\main.c      ****     }
  41:.\main.c      **** }
  42:.\main.c      **** */
  43:.\main.c      **** 
  44:.\main.c      **** 
  45:.\main.c      **** void SPI_FNG0_WriteData(uint8 val) {
  29              		.loc 1 45 0
  30              		.cfi_startproc
  31              		@ args = 0, pretend = 0, frame = 8
  32              		@ frame_needed = 1, uses_anonymous_args = 0
  33 0000 80B5     		push	{r7, lr}
  34              		.cfi_def_cfa_offset 8
  35              		.cfi_offset 7, -8
  36              		.cfi_offset 14, -4
  37 0002 82B0     		sub	sp, sp, #8
  38              		.cfi_def_cfa_offset 16
  39 0004 00AF     		add	r7, sp, #0
  40              		.cfi_def_cfa_register 7
  41 0006 0346     		mov	r3, r0
  42 0008 FB71     		strb	r3, [r7, #7]
  46:.\main.c      ****     SPI_FNG0_WriteTxData(0b00010001); // tells the POT we want to change its resistance
  43              		.loc 1 46 0
  44 000a 1120     		movs	r0, #17
  45 000c FFF7FEFF 		bl	SPI_FNG0_WriteTxData
  47:.\main.c      ****     SPI_FNG0_WriteTxData(val);        // sets the new resistance
  46              		.loc 1 47 0
  47 0010 FB79     		ldrb	r3, [r7, #7]	@ zero_extendqisi2
  48 0012 1846     		mov	r0, r3
  49 0014 FFF7FEFF 		bl	SPI_FNG0_WriteTxData
  48:.\main.c      **** }
  50              		.loc 1 48 0
  51 0018 0837     		adds	r7, r7, #8
  52              		.cfi_def_cfa_offset 8
  53 001a BD46     		mov	sp, r7
  54              		.cfi_def_cfa_register 13
  55              		@ sp needed
  56 001c 80BD     		pop	{r7, pc}
  57              		.cfi_endproc
  58              	.LFE63:
  59              		.size	SPI_FNG0_WriteData, .-SPI_FNG0_WriteData
  60              		.comm	scope0State,4,4
  61              		.global	__aeabi_i2f
  62 001e 00BF     		.section	.text.find_freq,"ax",%progbits
  63              		.align	2
  64              		.global	find_freq
  65              		.thumb
  66              		.thumb_func
ARM GAS  C:\Users\jthem\AppData\Local\Temp\ccflPXLw.s 			page 3


  67              		.type	find_freq, %function
  68              	find_freq:
  69              	.LFB64:
  49:.\main.c      **** 
  50:.\main.c      **** volatile int scope0State; // reading/writing state for Scope 0
  51:.\main.c      **** 
  52:.\main.c      **** float find_freq(char *array, int numSamples)
  53:.\main.c      **** {
  70              		.loc 1 53 0
  71              		.cfi_startproc
  72              		@ args = 0, pretend = 0, frame = 72
  73              		@ frame_needed = 1, uses_anonymous_args = 0
  74 0000 80B5     		push	{r7, lr}
  75              		.cfi_def_cfa_offset 8
  76              		.cfi_offset 7, -8
  77              		.cfi_offset 14, -4
  78 0002 92B0     		sub	sp, sp, #72
  79              		.cfi_def_cfa_offset 80
  80 0004 00AF     		add	r7, sp, #0
  81              		.cfi_def_cfa_register 7
  82 0006 7860     		str	r0, [r7, #4]
  83 0008 3960     		str	r1, [r7]
  54:.\main.c      ****     int i = 0;
  84              		.loc 1 54 0
  85 000a 0023     		movs	r3, #0
  86 000c 7B64     		str	r3, [r7, #68]
  55:.\main.c      ****     int max1 = 0;
  87              		.loc 1 55 0
  88 000e 0023     		movs	r3, #0
  89 0010 3B64     		str	r3, [r7, #64]
  56:.\main.c      ****     int max2 = 0;
  90              		.loc 1 56 0
  91 0012 0023     		movs	r3, #0
  92 0014 3B62     		str	r3, [r7, #32]
  57:.\main.c      ****     int max1_index = 0;
  93              		.loc 1 57 0
  94 0016 0023     		movs	r3, #0
  95 0018 FB63     		str	r3, [r7, #60]
  58:.\main.c      ****     int max2_index = 0;
  96              		.loc 1 58 0
  97 001a 0023     		movs	r3, #0
  98 001c FB61     		str	r3, [r7, #28]
  59:.\main.c      ****     int min1 = 0;
  99              		.loc 1 59 0
 100 001e 0023     		movs	r3, #0
 101 0020 BB63     		str	r3, [r7, #56]
  60:.\main.c      ****     int min2 = 0;
 102              		.loc 1 60 0
 103 0022 0023     		movs	r3, #0
 104 0024 7B63     		str	r3, [r7, #52]
  61:.\main.c      ****     int min1_index = 0;
 105              		.loc 1 61 0
 106 0026 0023     		movs	r3, #0
 107 0028 3B63     		str	r3, [r7, #48]
  62:.\main.c      ****     int min2_index = 0;
 108              		.loc 1 62 0
 109 002a 0023     		movs	r3, #0
ARM GAS  C:\Users\jthem\AppData\Local\Temp\ccflPXLw.s 			page 4


 110 002c FB62     		str	r3, [r7, #44]
  63:.\main.c      ****     int foundperiod = 0;
 111              		.loc 1 63 0
 112 002e 0023     		movs	r3, #0
 113 0030 BB62     		str	r3, [r7, #40]
  64:.\main.c      ****     int samples = 0;
 114              		.loc 1 64 0
 115 0032 0023     		movs	r3, #0
 116 0034 7B62     		str	r3, [r7, #36]
  65:.\main.c      **** 
  66:.\main.c      ****     while(foundperiod == 0)
 117              		.loc 1 66 0
 118 0036 51E0     		b	.L3
 119              	.L10:
 120              	.LBB2:
  67:.\main.c      ****     {
  68:.\main.c      ****         uint16_t current_element = array[i];
 121              		.loc 1 68 0
 122 0038 7B6C     		ldr	r3, [r7, #68]
 123 003a 7A68     		ldr	r2, [r7, #4]
 124 003c 1344     		add	r3, r3, r2
 125 003e 1B78     		ldrb	r3, [r3]	@ zero_extendqisi2
 126 0040 7B83     		strh	r3, [r7, #26]	@ movhi
  69:.\main.c      ****         uint16_t next = array[i+1];
 127              		.loc 1 69 0
 128 0042 7B6C     		ldr	r3, [r7, #68]
 129 0044 0133     		adds	r3, r3, #1
 130 0046 7A68     		ldr	r2, [r7, #4]
 131 0048 1344     		add	r3, r3, r2
 132 004a 1B78     		ldrb	r3, [r3]	@ zero_extendqisi2
 133 004c 3B83     		strh	r3, [r7, #24]	@ movhi
  70:.\main.c      ****         if (current_element < next && min1 == 0)
 134              		.loc 1 70 0
 135 004e 7A8B     		ldrh	r2, [r7, #26]
 136 0050 3B8B     		ldrh	r3, [r7, #24]
 137 0052 9A42     		cmp	r2, r3
 138 0054 06D2     		bcs	.L4
 139              		.loc 1 70 0 is_stmt 0 discriminator 1
 140 0056 BB6B     		ldr	r3, [r7, #56]
 141 0058 002B     		cmp	r3, #0
 142 005a 03D1     		bne	.L4
  71:.\main.c      ****         {
  72:.\main.c      ****             min1 = 1;
 143              		.loc 1 72 0 is_stmt 1
 144 005c 0123     		movs	r3, #1
 145 005e BB63     		str	r3, [r7, #56]
  73:.\main.c      ****             min1_index = i;
 146              		.loc 1 73 0
 147 0060 7B6C     		ldr	r3, [r7, #68]
 148 0062 3B63     		str	r3, [r7, #48]
 149              	.L4:
  74:.\main.c      ****             }
  75:.\main.c      ****         if (current_element > next && max1 == 0)
 150              		.loc 1 75 0
 151 0064 7A8B     		ldrh	r2, [r7, #26]
 152 0066 3B8B     		ldrh	r3, [r7, #24]
 153 0068 9A42     		cmp	r2, r3
ARM GAS  C:\Users\jthem\AppData\Local\Temp\ccflPXLw.s 			page 5


 154 006a 06D9     		bls	.L5
 155              		.loc 1 75 0 is_stmt 0 discriminator 1
 156 006c 3B6C     		ldr	r3, [r7, #64]
 157 006e 002B     		cmp	r3, #0
 158 0070 03D1     		bne	.L5
  76:.\main.c      ****         {
  77:.\main.c      ****             max1 = 1;
 159              		.loc 1 77 0 is_stmt 1
 160 0072 0123     		movs	r3, #1
 161 0074 3B64     		str	r3, [r7, #64]
  78:.\main.c      ****             max1_index = i;
 162              		.loc 1 78 0
 163 0076 7B6C     		ldr	r3, [r7, #68]
 164 0078 FB63     		str	r3, [r7, #60]
 165              	.L5:
  79:.\main.c      ****         }
  80:.\main.c      ****         if (current_element < next && min1 == 1)
 166              		.loc 1 80 0
 167 007a 7A8B     		ldrh	r2, [r7, #26]
 168 007c 3B8B     		ldrh	r3, [r7, #24]
 169 007e 9A42     		cmp	r2, r3
 170 0080 06D2     		bcs	.L6
 171              		.loc 1 80 0 is_stmt 0 discriminator 1
 172 0082 BB6B     		ldr	r3, [r7, #56]
 173 0084 012B     		cmp	r3, #1
 174 0086 03D1     		bne	.L6
  81:.\main.c      ****         {
  82:.\main.c      ****             min2 = 1;
 175              		.loc 1 82 0 is_stmt 1
 176 0088 0123     		movs	r3, #1
 177 008a 7B63     		str	r3, [r7, #52]
  83:.\main.c      ****             min2_index = i;
 178              		.loc 1 83 0
 179 008c 7B6C     		ldr	r3, [r7, #68]
 180 008e FB62     		str	r3, [r7, #44]
 181              	.L6:
  84:.\main.c      **** 
  85:.\main.c      ****         }
  86:.\main.c      ****         if (current_element > next && max1 == 1)
 182              		.loc 1 86 0
 183 0090 7A8B     		ldrh	r2, [r7, #26]
 184 0092 3B8B     		ldrh	r3, [r7, #24]
 185 0094 9A42     		cmp	r2, r3
 186 0096 06D9     		bls	.L7
 187              		.loc 1 86 0 is_stmt 0 discriminator 1
 188 0098 3B6C     		ldr	r3, [r7, #64]
 189 009a 012B     		cmp	r3, #1
 190 009c 03D1     		bne	.L7
  87:.\main.c      ****         {
  88:.\main.c      ****             max1 = 1;
 191              		.loc 1 88 0 is_stmt 1
 192 009e 0123     		movs	r3, #1
 193 00a0 3B64     		str	r3, [r7, #64]
  89:.\main.c      ****             max1_index = i;
 194              		.loc 1 89 0
 195 00a2 7B6C     		ldr	r3, [r7, #68]
 196 00a4 FB63     		str	r3, [r7, #60]
ARM GAS  C:\Users\jthem\AppData\Local\Temp\ccflPXLw.s 			page 6


 197              	.L7:
  90:.\main.c      ****         }
  91:.\main.c      ****         i++;
 198              		.loc 1 91 0
 199 00a6 7B6C     		ldr	r3, [r7, #68]
 200 00a8 0133     		adds	r3, r3, #1
 201 00aa 7B64     		str	r3, [r7, #68]
  92:.\main.c      ****         if ((max1 == max2 && max2 == min1 && min1 == 1) ||
 202              		.loc 1 92 0
 203 00ac 3A6C     		ldr	r2, [r7, #64]
 204 00ae 3B6A     		ldr	r3, [r7, #32]
 205 00b0 9A42     		cmp	r2, r3
 206 00b2 06D1     		bne	.L8
 207              		.loc 1 92 0 is_stmt 0 discriminator 1
 208 00b4 3A6A     		ldr	r2, [r7, #32]
 209 00b6 BB6B     		ldr	r3, [r7, #56]
 210 00b8 9A42     		cmp	r2, r3
 211 00ba 02D1     		bne	.L8
 212              		.loc 1 92 0 discriminator 3
 213 00bc BB6B     		ldr	r3, [r7, #56]
 214 00be 012B     		cmp	r3, #1
 215 00c0 0AD0     		beq	.L9
 216              	.L8:
 217              		.loc 1 92 0 discriminator 5
 218 00c2 BA6B     		ldr	r2, [r7, #56]
 219 00c4 3B6C     		ldr	r3, [r7, #64]
 220 00c6 9A42     		cmp	r2, r3
 221 00c8 08D1     		bne	.L3
  93:.\main.c      ****             (min1 == max1 && max1 == min2 && min2 == 1))
 222              		.loc 1 93 0 is_stmt 1
 223 00ca 3A6C     		ldr	r2, [r7, #64]
 224 00cc 7B6B     		ldr	r3, [r7, #52]
 225 00ce 9A42     		cmp	r2, r3
 226 00d0 04D1     		bne	.L3
 227              		.loc 1 93 0 is_stmt 0 discriminator 1
 228 00d2 7B6B     		ldr	r3, [r7, #52]
 229 00d4 012B     		cmp	r3, #1
 230 00d6 01D1     		bne	.L3
 231              	.L9:
  94:.\main.c      ****         {
  95:.\main.c      ****             foundperiod = 1;
 232              		.loc 1 95 0 is_stmt 1
 233 00d8 0123     		movs	r3, #1
 234 00da BB62     		str	r3, [r7, #40]
 235              	.L3:
 236              	.LBE2:
  66:.\main.c      ****     {
 237              		.loc 1 66 0
 238 00dc BB6A     		ldr	r3, [r7, #40]
 239 00de 002B     		cmp	r3, #0
 240 00e0 AAD0     		beq	.L10
  96:.\main.c      ****         }
  97:.\main.c      ****     }
  98:.\main.c      ****     if (max1 == max2 == min1 == 1)
 241              		.loc 1 98 0
 242 00e2 3A6C     		ldr	r2, [r7, #64]
 243 00e4 3B6A     		ldr	r3, [r7, #32]
ARM GAS  C:\Users\jthem\AppData\Local\Temp\ccflPXLw.s 			page 7


 244 00e6 9A42     		cmp	r2, r3
 245 00e8 0CBF     		ite	eq
 246 00ea 0123     		moveq	r3, #1
 247 00ec 0023     		movne	r3, #0
 248 00ee DBB2     		uxtb	r3, r3
 249 00f0 1A46     		mov	r2, r3
 250 00f2 BB6B     		ldr	r3, [r7, #56]
 251 00f4 9A42     		cmp	r2, r3
 252 00f6 04D1     		bne	.L11
  99:.\main.c      ****     {
 100:.\main.c      ****         samples = max2_index - max1_index;
 253              		.loc 1 100 0
 254 00f8 FA69     		ldr	r2, [r7, #28]
 255 00fa FB6B     		ldr	r3, [r7, #60]
 256 00fc D31A     		subs	r3, r2, r3
 257 00fe 7B62     		str	r3, [r7, #36]
 258 0100 0EE0     		b	.L12
 259              	.L11:
 101:.\main.c      **** 
 102:.\main.c      ****     }
 103:.\main.c      ****     else if (min1 == max1 == min2 == 1)
 260              		.loc 1 103 0
 261 0102 BA6B     		ldr	r2, [r7, #56]
 262 0104 3B6C     		ldr	r3, [r7, #64]
 263 0106 9A42     		cmp	r2, r3
 264 0108 0CBF     		ite	eq
 265 010a 0123     		moveq	r3, #1
 266 010c 0023     		movne	r3, #0
 267 010e DBB2     		uxtb	r3, r3
 268 0110 1A46     		mov	r2, r3
 269 0112 7B6B     		ldr	r3, [r7, #52]
 270 0114 9A42     		cmp	r2, r3
 271 0116 03D1     		bne	.L12
 104:.\main.c      ****     {
 105:.\main.c      ****         samples = min2_index - min1_index;
 272              		.loc 1 105 0
 273 0118 FA6A     		ldr	r2, [r7, #44]
 274 011a 3B6B     		ldr	r3, [r7, #48]
 275 011c D31A     		subs	r3, r2, r3
 276 011e 7B62     		str	r3, [r7, #36]
 277              	.L12:
 106:.\main.c      ****     }
 107:.\main.c      **** 
 108:.\main.c      ****     //Irrelevant part
 109:.\main.c      ****     uint16_t n = 55000;
 278              		.loc 1 109 0
 279 0120 4DF2D863 		movw	r3, #55000
 280 0124 FB82     		strh	r3, [r7, #22]	@ movhi
 110:.\main.c      ****     int cycles = 1;
 281              		.loc 1 110 0
 282 0126 0123     		movs	r3, #1
 283 0128 3B61     		str	r3, [r7, #16]
 111:.\main.c      ****     float frequency = 1 / (samples*(n/cycles));
 284              		.loc 1 111 0
 285 012a FA8A     		ldrh	r2, [r7, #22]
 286 012c 3B69     		ldr	r3, [r7, #16]
 287 012e 92FBF3F3 		sdiv	r3, r2, r3
ARM GAS  C:\Users\jthem\AppData\Local\Temp\ccflPXLw.s 			page 8


 288 0132 7A6A     		ldr	r2, [r7, #36]
 289 0134 02FB03F3 		mul	r3, r2, r3
 290 0138 0122     		movs	r2, #1
 291 013a 92FBF3F3 		sdiv	r3, r2, r3
 292 013e 1846     		mov	r0, r3
 293 0140 FFF7FEFF 		bl	__aeabi_i2f
 294 0144 0346     		mov	r3, r0
 295 0146 FB60     		str	r3, [r7, #12]	@ float
 112:.\main.c      ****     return frequency;
 296              		.loc 1 112 0
 297 0148 FB68     		ldr	r3, [r7, #12]	@ float
 113:.\main.c      **** }
 298              		.loc 1 113 0
 299 014a 1846     		mov	r0, r3
 300 014c 4837     		adds	r7, r7, #72
 301              		.cfi_def_cfa_offset 8
 302 014e BD46     		mov	sp, r7
 303              		.cfi_def_cfa_register 13
 304              		@ sp needed
 305 0150 80BD     		pop	{r7, pc}
 306              		.cfi_endproc
 307              	.LFE64:
 308              		.size	find_freq, .-find_freq
 309 0152 00BF     		.section	.text.PSOC5_Init,"ax",%progbits
 310              		.align	2
 311              		.global	PSOC5_Init
 312              		.thumb
 313              		.thumb_func
 314              		.type	PSOC5_Init, %function
 315              	PSOC5_Init:
 316              	.LFB65:
 114:.\main.c      **** 
 115:.\main.c      **** 
 116:.\main.c      **** /*******************************************************************************
 117:.\main.c      **** * Function Name: Get_And_Handle_Command
 118:.\main.c      **** ********************************************************************************
 119:.\main.c      **** *
 120:.\main.c      **** * Summary
 121:.\main.c      **** *  Processes commands sent by UART (including those from a PuTTy connection).
 122:.\main.c      **** *
 123:.\main.c      **** * Parameters:
 124:.\main.c      **** *  None.
 125:.\main.c      **** *
 126:.\main.c      **** * Return:
 127:.\main.c      **** *  None.
 128:.\main.c      **** *
 129:.\main.c      **** *******************************************************************************/
 130:.\main.c      **** /*
 131:.\main.c      **** void Get_And_Handle_Command()
 132:.\main.c      **** {
 133:.\main.c      ****     char usbRx[USBUART_BUFFER_SIZE], usbTx[USBUART_BUFFER_SIZE];   
 134:.\main.c      ****     int numArgs;
 135:.\main.c      ****     int desiredFreq, newFreq, fnGenerator;
 136:.\main.c      ****     char mode[USBUART_BUFFER_SIZE] = {0};
 137:.\main.c      ****     
 138:.\main.c      ****     Serial_GetString(usbRx);
 139:.\main.c      ****     TrimString(usbRx);
ARM GAS  C:\Users\jthem\AppData\Local\Temp\ccflPXLw.s 			page 9


 140:.\main.c      ****     numArgs = sscanf(usbRx, "%d %s %d", &fnGenerator, mode, &desiredFreq);
 141:.\main.c      ****     if (numArgs == 3) {
 142:.\main.c      ****         if (!strcmp(mode, "square")) { 
 143:.\main.c      ****             newFreq = ChangeFrequency(desiredFreq, SQUARE, fnGenerator);
 144:.\main.c      ****             sprintf(usbTx, "fn = %d, mode = %s, newFreq = %d\r\n", fnGenerator, mode, newFreq);
 145:.\main.c      ****         } else if (!strcmp(mode, "sine")) { 
 146:.\main.c      ****             newFreq = ChangeFrequency(desiredFreq, SINE, fnGenerator);
 147:.\main.c      ****             sprintf(usbTx, "fn = %d, mode = %s, newFreq = %d\r\n", fnGenerator, mode, newFreq);
 148:.\main.c      ****         } else if (!strcmp(mode, "triangle")) { 
 149:.\main.c      ****             newFreq = ChangeFrequency(desiredFreq, TRIANGLE, fnGenerator);
 150:.\main.c      ****             sprintf(usbTx, "fn = %d, mode = %s, newFreq = %d\r\n", fnGenerator, mode, newFreq);
 151:.\main.c      ****         } else if (!strcmp(mode, "sawtooth")) { 
 152:.\main.c      ****             newFreq = ChangeFrequency(desiredFreq, SAWTOOTH, fnGenerator);
 153:.\main.c      ****             sprintf(usbTx, "fn = %d, mode = %s, newFreq = %d\r\n", fnGenerator, mode, newFreq);
 154:.\main.c      ****         } else if (!strcmp(mode, "dc")) { 
 155:.\main.c      ****             newFreq = ChangeFrequency(desiredFreq, DC, fnGenerator);
 156:.\main.c      ****             sprintf(usbTx, "fn = %d, mode = %s, newFreq = %d\r\n", fnGenerator, mode, newFreq);
 157:.\main.c      ****         } else {
 158:.\main.c      ****             sprintf(usbTx, "Invalid mode: %s\r\n", mode);
 159:.\main.c      ****         }
 160:.\main.c      ****  
 161:.\main.c      ****         
 162:.\main.c      ****     } else if (numArgs == 2) {
 163:.\main.c      ****         if (!strcmp(mode, "off")) {
 164:.\main.c      ****             if (fnGenerator == 0) {
 165:.\main.c      ****                 StopWaveDac(WAVEDAC_LOW_0);
 166:.\main.c      ****             } else if (fnGenerator == 1) {
 167:.\main.c      ****                 StopWaveDac(WAVEDAC_LOW_1);   
 168:.\main.c      ****             }
 169:.\main.c      ****             sprintf(usbTx, "Stopped WaveDAC %d\r\n", fnGenerator);
 170:.\main.c      ****         } else {
 171:.\main.c      ****             sprintf(usbTx, "Invalid mode: %s\r\n", mode);
 172:.\main.c      ****         }
 173:.\main.c      ****     } else {
 174:.\main.c      ****         sprintf(usbTx, "Invalid command: %s\r\n", usbRx);
 175:.\main.c      ****     }
 176:.\main.c      ****     Serial_PutString(usbTx);
 177:.\main.c      **** }
 178:.\main.c      **** 
 179:.\main.c      **** */
 180:.\main.c      **** 
 181:.\main.c      **** /*******************************************************************************
 182:.\main.c      **** * Function Name: PSOC5_Init
 183:.\main.c      **** ********************************************************************************
 184:.\main.c      **** *
 185:.\main.c      **** * Summary
 186:.\main.c      **** *  Initializes all the components used in the PSOC5 (WaveDACs, character LCD, 
 187:.\main.c      **** *  ADCs, and SPI interfaces).
 188:.\main.c      **** *
 189:.\main.c      **** * Parameters:
 190:.\main.c      **** *  None.
 191:.\main.c      **** *
 192:.\main.c      **** * Return:
 193:.\main.c      **** *  None.
 194:.\main.c      **** *
 195:.\main.c      **** *******************************************************************************/
 196:.\main.c      **** 
ARM GAS  C:\Users\jthem\AppData\Local\Temp\ccflPXLw.s 			page 10


 197:.\main.c      **** void PSOC5_Init()
 198:.\main.c      **** {
 317              		.loc 1 198 0
 318              		.cfi_startproc
 319              		@ args = 0, pretend = 0, frame = 0
 320              		@ frame_needed = 1, uses_anonymous_args = 0
 321 0000 80B5     		push	{r7, lr}
 322              		.cfi_def_cfa_offset 8
 323              		.cfi_offset 7, -8
 324              		.cfi_offset 14, -4
 325 0002 00AF     		add	r7, sp, #0
 326              		.cfi_def_cfa_register 7
 199:.\main.c      ****     LCD_Start();
 327              		.loc 1 199 0
 328 0004 FFF7FEFF 		bl	LCD_Start
 200:.\main.c      ****     
 201:.\main.c      ****     WaveDAC_0_Clock_Start();
 329              		.loc 1 201 0
 330 0008 FFF7FEFF 		bl	WaveDAC_0_Clock_Start
 202:.\main.c      ****     WaveDAC_1_Clock_Start();
 331              		.loc 1 202 0
 332 000c FFF7FEFF 		bl	WaveDAC_1_Clock_Start
 203:.\main.c      ****     
 204:.\main.c      ****     // Needed for WaveDACs to operate concurrently
 205:.\main.c      ****     // I think this might be a bug with PSoC
 206:.\main.c      ****     WaveDAC_0_Start();
 333              		.loc 1 206 0
 334 0010 FFF7FEFF 		bl	WaveDAC_0_Start
 207:.\main.c      ****     WaveDAC_1_Start(); 
 335              		.loc 1 207 0
 336 0014 FFF7FEFF 		bl	WaveDAC_1_Start
 208:.\main.c      ****     WaveDAC_0_Stop();
 337              		.loc 1 208 0
 338 0018 FFF7FEFF 		bl	WaveDAC_0_Stop
 209:.\main.c      ****     WaveDAC_1_Stop();
 339              		.loc 1 209 0
 340 001c FFF7FEFF 		bl	WaveDAC_1_Stop
 210:.\main.c      ****     
 211:.\main.c      ****     WaveDAC_0_Mux_Start();
 341              		.loc 1 211 0
 342 0020 FFF7FEFF 		bl	WaveDAC_0_Mux_Start
 212:.\main.c      ****     WaveDAC_1_Mux_Start();
 343              		.loc 1 212 0
 344 0024 FFF7FEFF 		bl	WaveDAC_1_Mux_Start
 213:.\main.c      **** 
 214:.\main.c      ****     USBUART_Start(USBFS_DEVICE, USBUART_5V_OPERATION);
 345              		.loc 1 214 0
 346 0028 0020     		movs	r0, #0
 347 002a 0121     		movs	r1, #1
 348 002c FFF7FEFF 		bl	USBUART_Start
 215:.\main.c      ****     USBUART_CDC_Init();
 349              		.loc 1 215 0
 350 0030 FFF7FEFF 		bl	USBUART_CDC_Init
 216:.\main.c      ****     
 217:.\main.c      ****     SPIS_Start();
 351              		.loc 1 217 0
 352 0034 FFF7FEFF 		bl	SPIS_Start
ARM GAS  C:\Users\jthem\AppData\Local\Temp\ccflPXLw.s 			page 11


 218:.\main.c      ****     
 219:.\main.c      ****     CyGlobalIntEnable;   
 353              		.loc 1 219 0
 354              	@ 219 ".\main.c" 1
 355 0038 62B6     		CPSIE   i
 356              	@ 0 "" 2
 220:.\main.c      **** }
 357              		.loc 1 220 0
 358              		.thumb
 359 003a 80BD     		pop	{r7, pc}
 360              		.cfi_endproc
 361              	.LFE65:
 362              		.size	PSOC5_Init, .-PSOC5_Init
 363              		.section	.text.SetDigitalPot,"ax",%progbits
 364              		.align	2
 365              		.global	SetDigitalPot
 366              		.thumb
 367              		.thumb_func
 368              		.type	SetDigitalPot, %function
 369              	SetDigitalPot:
 370              	.LFB66:
 221:.\main.c      **** 
 222:.\main.c      **** typedef enum {
 223:.\main.c      ****     ALERT,             // A, off(0)/on(1), device ID, function
 224:.\main.c      ****     FNG_SHAPE,         // set FNG shape
 225:.\main.c      ****     FNG_VOLTAGE,       // set FNG voltage
 226:.\main.c      ****     FNG_FREQUENCY,     // set FNG frequency
 227:.\main.c      ****     FNG_PIN,           // set new FNG pin
 228:.\main.c      ****     OSC_PIN,
 229:.\main.c      ****     COMMIT_CHANGES,
 230:.\main.c      ****     WAIT_FINISH,        // wait for command to complete (0xF000);
 231:.\main.c      ****     INVALID_COMMAND,
 232:.\main.c      **** } SlaveCommand;
 233:.\main.c      **** 
 234:.\main.c      **** typedef struct {
 235:.\main.c      ****     uint8 id;
 236:.\main.c      ****     uint8 running;
 237:.\main.c      ****     uint8 valueChanged;
 238:.\main.c      ****     
 239:.\main.c      ****     uint16 freq;
 240:.\main.c      ****     uint8 voltage;
 241:.\main.c      ****     FngShape shape;
 242:.\main.c      ****     uint8 channel;
 243:.\main.c      **** } FunctionGenerator;
 244:.\main.c      **** 
 245:.\main.c      **** typedef struct {
 246:.\main.c      ****     uint8 id;
 247:.\main.c      ****     uint8 running;
 248:.\main.c      ****     uint8 channel;
 249:.\main.c      ****     uint8 valueChanged;
 250:.\main.c      **** } Oscilloscope;
 251:.\main.c      **** 
 252:.\main.c      **** typedef struct {
 253:.\main.c      ****     FunctionGenerator fng0;
 254:.\main.c      ****     FunctionGenerator fng1;
 255:.\main.c      ****     Oscilloscope osc0;
 256:.\main.c      ****     Oscilloscope osc1;
ARM GAS  C:\Users\jthem\AppData\Local\Temp\ccflPXLw.s 			page 12


 257:.\main.c      **** } SlaveState;
 258:.\main.c      **** 
 259:.\main.c      **** void SetDigitalPot(uint8 value, uint8 fngId) {
 371              		.loc 1 259 0
 372              		.cfi_startproc
 373              		@ args = 0, pretend = 0, frame = 8
 374              		@ frame_needed = 1, uses_anonymous_args = 0
 375              		@ link register save eliminated.
 376 0000 80B4     		push	{r7}
 377              		.cfi_def_cfa_offset 4
 378              		.cfi_offset 7, -4
 379 0002 83B0     		sub	sp, sp, #12
 380              		.cfi_def_cfa_offset 16
 381 0004 00AF     		add	r7, sp, #0
 382              		.cfi_def_cfa_register 7
 383 0006 0346     		mov	r3, r0
 384 0008 0A46     		mov	r2, r1
 385 000a FB71     		strb	r3, [r7, #7]
 386 000c 1346     		mov	r3, r2
 387 000e BB71     		strb	r3, [r7, #6]
 260:.\main.c      ****     //MCP41010_Write(value, fngId);
 261:.\main.c      **** }
 388              		.loc 1 261 0
 389 0010 0C37     		adds	r7, r7, #12
 390              		.cfi_def_cfa_offset 4
 391 0012 BD46     		mov	sp, r7
 392              		.cfi_def_cfa_register 13
 393              		@ sp needed
 394 0014 5DF8047B 		ldr	r7, [sp], #4
 395              		.cfi_restore 7
 396              		.cfi_def_cfa_offset 0
 397 0018 7047     		bx	lr
 398              		.cfi_endproc
 399              	.LFE66:
 400              		.size	SetDigitalPot, .-SetDigitalPot
 401 001a 00BF     		.section	.text.setInvalidCommand,"ax",%progbits
 402              		.align	2
 403              		.global	setInvalidCommand
 404              		.thumb
 405              		.thumb_func
 406              		.type	setInvalidCommand, %function
 407              	setInvalidCommand:
 408              	.LFB67:
 262:.\main.c      **** 
 263:.\main.c      **** 
 264:.\main.c      **** void setInvalidCommand(SlaveState *state) {
 409              		.loc 1 264 0
 410              		.cfi_startproc
 411              		@ args = 0, pretend = 0, frame = 8
 412              		@ frame_needed = 1, uses_anonymous_args = 0
 413              		@ link register save eliminated.
 414 0000 80B4     		push	{r7}
 415              		.cfi_def_cfa_offset 4
 416              		.cfi_offset 7, -4
 417 0002 83B0     		sub	sp, sp, #12
 418              		.cfi_def_cfa_offset 16
 419 0004 00AF     		add	r7, sp, #0
ARM GAS  C:\Users\jthem\AppData\Local\Temp\ccflPXLw.s 			page 13


 420              		.cfi_def_cfa_register 7
 421 0006 7860     		str	r0, [r7, #4]
 265:.\main.c      ****     state->fng0.valueChanged = 0;
 422              		.loc 1 265 0
 423 0008 7B68     		ldr	r3, [r7, #4]
 424 000a 0022     		movs	r2, #0
 425 000c 9A70     		strb	r2, [r3, #2]
 266:.\main.c      ****     state->fng1.valueChanged = 0;
 426              		.loc 1 266 0
 427 000e 7B68     		ldr	r3, [r7, #4]
 428 0010 0022     		movs	r2, #0
 429 0012 1A73     		strb	r2, [r3, #12]
 267:.\main.c      ****     state->osc0.valueChanged = 0;
 430              		.loc 1 267 0
 431 0014 7B68     		ldr	r3, [r7, #4]
 432 0016 0022     		movs	r2, #0
 433 0018 DA75     		strb	r2, [r3, #23]
 268:.\main.c      ****     state->osc1.valueChanged = 0;
 434              		.loc 1 268 0
 435 001a 7B68     		ldr	r3, [r7, #4]
 436 001c 0022     		movs	r2, #0
 437 001e DA76     		strb	r2, [r3, #27]
 269:.\main.c      **** }
 438              		.loc 1 269 0
 439 0020 0C37     		adds	r7, r7, #12
 440              		.cfi_def_cfa_offset 4
 441 0022 BD46     		mov	sp, r7
 442              		.cfi_def_cfa_register 13
 443              		@ sp needed
 444 0024 5DF8047B 		ldr	r7, [sp], #4
 445              		.cfi_restore 7
 446              		.cfi_def_cfa_offset 0
 447 0028 7047     		bx	lr
 448              		.cfi_endproc
 449              	.LFE67:
 450              		.size	setInvalidCommand, .-setInvalidCommand
 451 002a 00BF     		.section	.text.initializeFng,"ax",%progbits
 452              		.align	2
 453              		.global	initializeFng
 454              		.thumb
 455              		.thumb_func
 456              		.type	initializeFng, %function
 457              	initializeFng:
 458              	.LFB68:
 270:.\main.c      **** 
 271:.\main.c      **** void initializeFng(int id, FunctionGenerator *fng) {
 459              		.loc 1 271 0
 460              		.cfi_startproc
 461              		@ args = 0, pretend = 0, frame = 8
 462              		@ frame_needed = 1, uses_anonymous_args = 0
 463              		@ link register save eliminated.
 464 0000 80B4     		push	{r7}
 465              		.cfi_def_cfa_offset 4
 466              		.cfi_offset 7, -4
 467 0002 83B0     		sub	sp, sp, #12
 468              		.cfi_def_cfa_offset 16
 469 0004 00AF     		add	r7, sp, #0
ARM GAS  C:\Users\jthem\AppData\Local\Temp\ccflPXLw.s 			page 14


 470              		.cfi_def_cfa_register 7
 471 0006 7860     		str	r0, [r7, #4]
 472 0008 3960     		str	r1, [r7]
 272:.\main.c      ****     fng->id = id;
 473              		.loc 1 272 0
 474 000a 7B68     		ldr	r3, [r7, #4]
 475 000c DAB2     		uxtb	r2, r3
 476 000e 3B68     		ldr	r3, [r7]
 477 0010 1A70     		strb	r2, [r3]
 273:.\main.c      ****     fng->running = 0;
 478              		.loc 1 273 0
 479 0012 3B68     		ldr	r3, [r7]
 480 0014 0022     		movs	r2, #0
 481 0016 5A70     		strb	r2, [r3, #1]
 274:.\main.c      ****     fng->valueChanged = 0;
 482              		.loc 1 274 0
 483 0018 3B68     		ldr	r3, [r7]
 484 001a 0022     		movs	r2, #0
 485 001c 9A70     		strb	r2, [r3, #2]
 275:.\main.c      ****     
 276:.\main.c      ****     fng->freq = 1000;
 486              		.loc 1 276 0
 487 001e 3B68     		ldr	r3, [r7]
 488 0020 4FF47A72 		mov	r2, #1000
 489 0024 9A80     		strh	r2, [r3, #4]	@ movhi
 277:.\main.c      ****     fng->voltage = 100;
 490              		.loc 1 277 0
 491 0026 3B68     		ldr	r3, [r7]
 492 0028 6422     		movs	r2, #100
 493 002a 9A71     		strb	r2, [r3, #6]
 278:.\main.c      ****     fng->shape = SQUARE;
 494              		.loc 1 278 0
 495 002c 3B68     		ldr	r3, [r7]
 496 002e 0022     		movs	r2, #0
 497 0030 DA71     		strb	r2, [r3, #7]
 279:.\main.c      ****     fng->channel = 0;
 498              		.loc 1 279 0
 499 0032 3B68     		ldr	r3, [r7]
 500 0034 0022     		movs	r2, #0
 501 0036 1A72     		strb	r2, [r3, #8]
 280:.\main.c      **** }
 502              		.loc 1 280 0
 503 0038 0C37     		adds	r7, r7, #12
 504              		.cfi_def_cfa_offset 4
 505 003a BD46     		mov	sp, r7
 506              		.cfi_def_cfa_register 13
 507              		@ sp needed
 508 003c 5DF8047B 		ldr	r7, [sp], #4
 509              		.cfi_restore 7
 510              		.cfi_def_cfa_offset 0
 511 0040 7047     		bx	lr
 512              		.cfi_endproc
 513              	.LFE68:
 514              		.size	initializeFng, .-initializeFng
 515 0042 00BF     		.section	.text.initializeScope,"ax",%progbits
 516              		.align	2
 517              		.global	initializeScope
ARM GAS  C:\Users\jthem\AppData\Local\Temp\ccflPXLw.s 			page 15


 518              		.thumb
 519              		.thumb_func
 520              		.type	initializeScope, %function
 521              	initializeScope:
 522              	.LFB69:
 281:.\main.c      **** 
 282:.\main.c      **** void initializeScope(int id, Oscilloscope *scope) {
 523              		.loc 1 282 0
 524              		.cfi_startproc
 525              		@ args = 0, pretend = 0, frame = 8
 526              		@ frame_needed = 1, uses_anonymous_args = 0
 527              		@ link register save eliminated.
 528 0000 80B4     		push	{r7}
 529              		.cfi_def_cfa_offset 4
 530              		.cfi_offset 7, -4
 531 0002 83B0     		sub	sp, sp, #12
 532              		.cfi_def_cfa_offset 16
 533 0004 00AF     		add	r7, sp, #0
 534              		.cfi_def_cfa_register 7
 535 0006 7860     		str	r0, [r7, #4]
 536 0008 3960     		str	r1, [r7]
 283:.\main.c      ****     scope->id = id;
 537              		.loc 1 283 0
 538 000a 7B68     		ldr	r3, [r7, #4]
 539 000c DAB2     		uxtb	r2, r3
 540 000e 3B68     		ldr	r3, [r7]
 541 0010 1A70     		strb	r2, [r3]
 284:.\main.c      ****     scope->running = 0;
 542              		.loc 1 284 0
 543 0012 3B68     		ldr	r3, [r7]
 544 0014 0022     		movs	r2, #0
 545 0016 5A70     		strb	r2, [r3, #1]
 285:.\main.c      ****     scope->channel = 0;
 546              		.loc 1 285 0
 547 0018 3B68     		ldr	r3, [r7]
 548 001a 0022     		movs	r2, #0
 549 001c 9A70     		strb	r2, [r3, #2]
 286:.\main.c      ****     scope->valueChanged = 0;
 550              		.loc 1 286 0
 551 001e 3B68     		ldr	r3, [r7]
 552 0020 0022     		movs	r2, #0
 553 0022 DA70     		strb	r2, [r3, #3]
 287:.\main.c      **** }
 554              		.loc 1 287 0
 555 0024 0C37     		adds	r7, r7, #12
 556              		.cfi_def_cfa_offset 4
 557 0026 BD46     		mov	sp, r7
 558              		.cfi_def_cfa_register 13
 559              		@ sp needed
 560 0028 5DF8047B 		ldr	r7, [sp], #4
 561              		.cfi_restore 7
 562              		.cfi_def_cfa_offset 0
 563 002c 7047     		bx	lr
 564              		.cfi_endproc
 565              	.LFE69:
 566              		.size	initializeScope, .-initializeScope
 567 002e 00BF     		.section	.text.initializeState,"ax",%progbits
ARM GAS  C:\Users\jthem\AppData\Local\Temp\ccflPXLw.s 			page 16


 568              		.align	2
 569              		.global	initializeState
 570              		.thumb
 571              		.thumb_func
 572              		.type	initializeState, %function
 573              	initializeState:
 574              	.LFB70:
 288:.\main.c      **** 
 289:.\main.c      **** void initializeState(SlaveState *state) {
 575              		.loc 1 289 0
 576              		.cfi_startproc
 577              		@ args = 0, pretend = 0, frame = 8
 578              		@ frame_needed = 1, uses_anonymous_args = 0
 579 0000 80B5     		push	{r7, lr}
 580              		.cfi_def_cfa_offset 8
 581              		.cfi_offset 7, -8
 582              		.cfi_offset 14, -4
 583 0002 82B0     		sub	sp, sp, #8
 584              		.cfi_def_cfa_offset 16
 585 0004 00AF     		add	r7, sp, #0
 586              		.cfi_def_cfa_register 7
 587 0006 7860     		str	r0, [r7, #4]
 290:.\main.c      ****     initializeFng(0, &state->fng0);
 588              		.loc 1 290 0
 589 0008 7B68     		ldr	r3, [r7, #4]
 590 000a 0020     		movs	r0, #0
 591 000c 1946     		mov	r1, r3
 592 000e FFF7FEFF 		bl	initializeFng
 291:.\main.c      ****     initializeFng(1, &state->fng1);
 593              		.loc 1 291 0
 594 0012 7B68     		ldr	r3, [r7, #4]
 595 0014 0A33     		adds	r3, r3, #10
 596 0016 0120     		movs	r0, #1
 597 0018 1946     		mov	r1, r3
 598 001a FFF7FEFF 		bl	initializeFng
 292:.\main.c      ****     initializeScope(0, &state->osc0);
 599              		.loc 1 292 0
 600 001e 7B68     		ldr	r3, [r7, #4]
 601 0020 1433     		adds	r3, r3, #20
 602 0022 0020     		movs	r0, #0
 603 0024 1946     		mov	r1, r3
 604 0026 FFF7FEFF 		bl	initializeScope
 293:.\main.c      ****     initializeScope(1, &state->osc1);
 605              		.loc 1 293 0
 606 002a 7B68     		ldr	r3, [r7, #4]
 607 002c 1833     		adds	r3, r3, #24
 608 002e 0120     		movs	r0, #1
 609 0030 1946     		mov	r1, r3
 610 0032 FFF7FEFF 		bl	initializeScope
 294:.\main.c      **** }
 611              		.loc 1 294 0
 612 0036 0837     		adds	r7, r7, #8
 613              		.cfi_def_cfa_offset 8
 614 0038 BD46     		mov	sp, r7
 615              		.cfi_def_cfa_register 13
 616              		@ sp needed
 617 003a 80BD     		pop	{r7, pc}
ARM GAS  C:\Users\jthem\AppData\Local\Temp\ccflPXLw.s 			page 17


 618              		.cfi_endproc
 619              	.LFE70:
 620              		.size	initializeState, .-initializeState
 621              		.section	.text.getFngCommand,"ax",%progbits
 622              		.align	2
 623              		.global	getFngCommand
 624              		.thumb
 625              		.thumb_func
 626              		.type	getFngCommand, %function
 627              	getFngCommand:
 628              	.LFB71:
 295:.\main.c      **** 
 296:.\main.c      **** SlaveCommand getFngCommand(uint16 dataFromMaster) {
 629              		.loc 1 296 0
 630              		.cfi_startproc
 631              		@ args = 0, pretend = 0, frame = 16
 632              		@ frame_needed = 1, uses_anonymous_args = 0
 633              		@ link register save eliminated.
 634 0000 80B4     		push	{r7}
 635              		.cfi_def_cfa_offset 4
 636              		.cfi_offset 7, -4
 637 0002 85B0     		sub	sp, sp, #20
 638              		.cfi_def_cfa_offset 24
 639 0004 00AF     		add	r7, sp, #0
 640              		.cfi_def_cfa_register 7
 641 0006 0346     		mov	r3, r0
 642 0008 FB80     		strh	r3, [r7, #6]	@ movhi
 297:.\main.c      ****     uint8 command = dataFromMaster & 0x000F;
 643              		.loc 1 297 0
 644 000a FB88     		ldrh	r3, [r7, #6]	@ movhi
 645 000c DBB2     		uxtb	r3, r3
 646 000e 03F00F03 		and	r3, r3, #15
 647 0012 FB73     		strb	r3, [r7, #15]
 298:.\main.c      ****     switch (command) {
 648              		.loc 1 298 0
 649 0014 FB7B     		ldrb	r3, [r7, #15]	@ zero_extendqisi2
 650 0016 0A3B     		subs	r3, r3, #10
 651 0018 032B     		cmp	r3, #3
 652 001a 13D8     		bhi	.L21
 653 001c 01A2     		adr	r2, .L23
 654 001e 52F823F0 		ldr	pc, [r2, r3, lsl #2]
 655 0022 00BF     		.p2align 2
 656              	.L23:
 657 0024 35000000 		.word	.L22+1
 658 0028 39000000 		.word	.L24+1
 659 002c 3D000000 		.word	.L25+1
 660 0030 41000000 		.word	.L26+1
 661              		.p2align 1
 662              	.L22:
 299:.\main.c      ****         case 0x000A: // pin
 300:.\main.c      ****             return FNG_PIN;
 663              		.loc 1 300 0
 664 0034 0423     		movs	r3, #4
 665 0036 06E0     		b	.L27
 666              	.L24:
 301:.\main.c      ****         case 0x000B: // voltage
 302:.\main.c      ****             return FNG_VOLTAGE;
ARM GAS  C:\Users\jthem\AppData\Local\Temp\ccflPXLw.s 			page 18


 667              		.loc 1 302 0
 668 0038 0223     		movs	r3, #2
 669 003a 04E0     		b	.L27
 670              	.L25:
 303:.\main.c      ****         case 0x000C: // frequency
 304:.\main.c      ****             return FNG_FREQUENCY;
 671              		.loc 1 304 0
 672 003c 0323     		movs	r3, #3
 673 003e 02E0     		b	.L27
 674              	.L26:
 305:.\main.c      ****         case 0x000D: // shape
 306:.\main.c      ****             return FNG_SHAPE;
 675              		.loc 1 306 0
 676 0040 0123     		movs	r3, #1
 677 0042 00E0     		b	.L27
 678              	.L21:
 307:.\main.c      ****         default: // invalid command
 308:.\main.c      ****             return INVALID_COMMAND;
 679              		.loc 1 308 0
 680 0044 0823     		movs	r3, #8
 681              	.L27:
 309:.\main.c      ****     }
 310:.\main.c      **** }
 682              		.loc 1 310 0
 683 0046 1846     		mov	r0, r3
 684 0048 1437     		adds	r7, r7, #20
 685              		.cfi_def_cfa_offset 4
 686 004a BD46     		mov	sp, r7
 687              		.cfi_def_cfa_register 13
 688              		@ sp needed
 689 004c 5DF8047B 		ldr	r7, [sp], #4
 690              		.cfi_restore 7
 691              		.cfi_def_cfa_offset 0
 692 0050 7047     		bx	lr
 693              		.cfi_endproc
 694              	.LFE71:
 695              		.size	getFngCommand, .-getFngCommand
 696 0052 00BF     		.section	.text.getFng,"ax",%progbits
 697              		.align	2
 698              		.global	getFng
 699              		.thumb
 700              		.thumb_func
 701              		.type	getFng, %function
 702              	getFng:
 703              	.LFB72:
 311:.\main.c      **** 
 312:.\main.c      **** FunctionGenerator *getFng(uint8 id, SlaveState *state) {
 704              		.loc 1 312 0
 705              		.cfi_startproc
 706              		@ args = 0, pretend = 0, frame = 8
 707              		@ frame_needed = 1, uses_anonymous_args = 0
 708              		@ link register save eliminated.
 709 0000 80B4     		push	{r7}
 710              		.cfi_def_cfa_offset 4
 711              		.cfi_offset 7, -4
 712 0002 83B0     		sub	sp, sp, #12
 713              		.cfi_def_cfa_offset 16
ARM GAS  C:\Users\jthem\AppData\Local\Temp\ccflPXLw.s 			page 19


 714 0004 00AF     		add	r7, sp, #0
 715              		.cfi_def_cfa_register 7
 716 0006 0346     		mov	r3, r0
 717 0008 3960     		str	r1, [r7]
 718 000a FB71     		strb	r3, [r7, #7]
 313:.\main.c      ****     switch (id) {
 719              		.loc 1 313 0
 720 000c FB79     		ldrb	r3, [r7, #7]	@ zero_extendqisi2
 721 000e 002B     		cmp	r3, #0
 722 0010 02D0     		beq	.L30
 723 0012 012B     		cmp	r3, #1
 724 0014 02D0     		beq	.L31
 725 0016 04E0     		b	.L33
 726              	.L30:
 314:.\main.c      ****         case 0: return &state->fng0;
 727              		.loc 1 314 0
 728 0018 3B68     		ldr	r3, [r7]
 729 001a 03E0     		b	.L32
 730              	.L31:
 315:.\main.c      ****         case 1: return &state->fng1;
 731              		.loc 1 315 0
 732 001c 3B68     		ldr	r3, [r7]
 733 001e 0A33     		adds	r3, r3, #10
 734 0020 00E0     		b	.L32
 735              	.L33:
 316:.\main.c      ****         default: return NULL;
 736              		.loc 1 316 0
 737 0022 0023     		movs	r3, #0
 738              	.L32:
 317:.\main.c      ****     }
 318:.\main.c      **** }
 739              		.loc 1 318 0
 740 0024 1846     		mov	r0, r3
 741 0026 0C37     		adds	r7, r7, #12
 742              		.cfi_def_cfa_offset 4
 743 0028 BD46     		mov	sp, r7
 744              		.cfi_def_cfa_register 13
 745              		@ sp needed
 746 002a 5DF8047B 		ldr	r7, [sp], #4
 747              		.cfi_restore 7
 748              		.cfi_def_cfa_offset 0
 749 002e 7047     		bx	lr
 750              		.cfi_endproc
 751              	.LFE72:
 752              		.size	getFng, .-getFng
 753              		.section	.text.getOsc,"ax",%progbits
 754              		.align	2
 755              		.global	getOsc
 756              		.thumb
 757              		.thumb_func
 758              		.type	getOsc, %function
 759              	getOsc:
 760              	.LFB73:
 319:.\main.c      **** 
 320:.\main.c      **** Oscilloscope *getOsc(uint8 id, SlaveState *state) {
 761              		.loc 1 320 0
 762              		.cfi_startproc
ARM GAS  C:\Users\jthem\AppData\Local\Temp\ccflPXLw.s 			page 20


 763              		@ args = 0, pretend = 0, frame = 8
 764              		@ frame_needed = 1, uses_anonymous_args = 0
 765              		@ link register save eliminated.
 766 0000 80B4     		push	{r7}
 767              		.cfi_def_cfa_offset 4
 768              		.cfi_offset 7, -4
 769 0002 83B0     		sub	sp, sp, #12
 770              		.cfi_def_cfa_offset 16
 771 0004 00AF     		add	r7, sp, #0
 772              		.cfi_def_cfa_register 7
 773 0006 0346     		mov	r3, r0
 774 0008 3960     		str	r1, [r7]
 775 000a FB71     		strb	r3, [r7, #7]
 321:.\main.c      ****     switch (id) {
 776              		.loc 1 321 0
 777 000c FB79     		ldrb	r3, [r7, #7]	@ zero_extendqisi2
 778 000e 022B     		cmp	r3, #2
 779 0010 02D0     		beq	.L36
 780 0012 032B     		cmp	r3, #3
 781 0014 03D0     		beq	.L37
 782 0016 05E0     		b	.L39
 783              	.L36:
 322:.\main.c      ****         case 2: return &state->osc0;
 784              		.loc 1 322 0
 785 0018 3B68     		ldr	r3, [r7]
 786 001a 1433     		adds	r3, r3, #20
 787 001c 03E0     		b	.L38
 788              	.L37:
 323:.\main.c      ****         case 3: return &state->osc1;
 789              		.loc 1 323 0
 790 001e 3B68     		ldr	r3, [r7]
 791 0020 1833     		adds	r3, r3, #24
 792 0022 00E0     		b	.L38
 793              	.L39:
 324:.\main.c      ****         default: return NULL;
 794              		.loc 1 324 0
 795 0024 0023     		movs	r3, #0
 796              	.L38:
 325:.\main.c      ****     }
 326:.\main.c      **** }
 797              		.loc 1 326 0
 798 0026 1846     		mov	r0, r3
 799 0028 0C37     		adds	r7, r7, #12
 800              		.cfi_def_cfa_offset 4
 801 002a BD46     		mov	sp, r7
 802              		.cfi_def_cfa_register 13
 803              		@ sp needed
 804 002c 5DF8047B 		ldr	r7, [sp], #4
 805              		.cfi_restore 7
 806              		.cfi_def_cfa_offset 0
 807 0030 7047     		bx	lr
 808              		.cfi_endproc
 809              	.LFE73:
 810              		.size	getOsc, .-getOsc
 811 0032 00BF     		.section	.text.disableFng,"ax",%progbits
 812              		.align	2
 813              		.global	disableFng
ARM GAS  C:\Users\jthem\AppData\Local\Temp\ccflPXLw.s 			page 21


 814              		.thumb
 815              		.thumb_func
 816              		.type	disableFng, %function
 817              	disableFng:
 818              	.LFB74:
 327:.\main.c      **** 
 328:.\main.c      **** void disableFng(FunctionGenerator *fng) {
 819              		.loc 1 328 0
 820              		.cfi_startproc
 821              		@ args = 0, pretend = 0, frame = 8
 822              		@ frame_needed = 1, uses_anonymous_args = 0
 823 0000 80B5     		push	{r7, lr}
 824              		.cfi_def_cfa_offset 8
 825              		.cfi_offset 7, -8
 826              		.cfi_offset 14, -4
 827 0002 82B0     		sub	sp, sp, #8
 828              		.cfi_def_cfa_offset 16
 829 0004 00AF     		add	r7, sp, #0
 830              		.cfi_def_cfa_register 7
 831 0006 7860     		str	r0, [r7, #4]
 329:.\main.c      ****     if (fng == NULL) return;
 832              		.loc 1 329 0
 833 0008 7B68     		ldr	r3, [r7, #4]
 834 000a 002B     		cmp	r3, #0
 835 000c 00D1     		bne	.L41
 836 000e 07E0     		b	.L40
 837              	.L41:
 330:.\main.c      ****     fng->running = 0;
 838              		.loc 1 330 0
 839 0010 7B68     		ldr	r3, [r7, #4]
 840 0012 0022     		movs	r2, #0
 841 0014 5A70     		strb	r2, [r3, #1]
 331:.\main.c      ****     StopWaveDac(fng->id);
 842              		.loc 1 331 0
 843 0016 7B68     		ldr	r3, [r7, #4]
 844 0018 1B78     		ldrb	r3, [r3]	@ zero_extendqisi2
 845 001a 1846     		mov	r0, r3
 846 001c FFF7FEFF 		bl	StopWaveDac
 847              	.L40:
 332:.\main.c      **** }
 848              		.loc 1 332 0
 849 0020 0837     		adds	r7, r7, #8
 850              		.cfi_def_cfa_offset 8
 851 0022 BD46     		mov	sp, r7
 852              		.cfi_def_cfa_register 13
 853              		@ sp needed
 854 0024 80BD     		pop	{r7, pc}
 855              		.cfi_endproc
 856              	.LFE74:
 857              		.size	disableFng, .-disableFng
 858 0026 00BF     		.section	.text.setFngFreq,"ax",%progbits
 859              		.align	2
 860              		.global	setFngFreq
 861              		.thumb
 862              		.thumb_func
 863              		.type	setFngFreq, %function
 864              	setFngFreq:
ARM GAS  C:\Users\jthem\AppData\Local\Temp\ccflPXLw.s 			page 22


 865              	.LFB75:
 333:.\main.c      **** 
 334:.\main.c      **** void setFngFreq(int newFreq, FunctionGenerator *fng) {
 866              		.loc 1 334 0
 867              		.cfi_startproc
 868              		@ args = 0, pretend = 0, frame = 8
 869              		@ frame_needed = 1, uses_anonymous_args = 0
 870 0000 80B5     		push	{r7, lr}
 871              		.cfi_def_cfa_offset 8
 872              		.cfi_offset 7, -8
 873              		.cfi_offset 14, -4
 874 0002 82B0     		sub	sp, sp, #8
 875              		.cfi_def_cfa_offset 16
 876 0004 00AF     		add	r7, sp, #0
 877              		.cfi_def_cfa_register 7
 878 0006 7860     		str	r0, [r7, #4]
 879 0008 3960     		str	r1, [r7]
 335:.\main.c      ****     if (fng == NULL) return;
 880              		.loc 1 335 0
 881 000a 3B68     		ldr	r3, [r7]
 882 000c 002B     		cmp	r3, #0
 883 000e 00D1     		bne	.L44
 884 0010 0DE0     		b	.L43
 885              	.L44:
 336:.\main.c      ****     fng->freq = newFreq;
 886              		.loc 1 336 0
 887 0012 7B68     		ldr	r3, [r7, #4]
 888 0014 9AB2     		uxth	r2, r3
 889 0016 3B68     		ldr	r3, [r7]
 890 0018 9A80     		strh	r2, [r3, #4]	@ movhi
 337:.\main.c      ****     ChangeFrequency(newFreq, fng->shape, fng->voltage, fng->id);
 891              		.loc 1 337 0
 892 001a 3B68     		ldr	r3, [r7]
 893 001c DB79     		ldrb	r3, [r3, #7]	@ zero_extendqisi2
 894 001e 1946     		mov	r1, r3
 895 0020 3B68     		ldr	r3, [r7]
 896 0022 9A79     		ldrb	r2, [r3, #6]	@ zero_extendqisi2
 897 0024 3B68     		ldr	r3, [r7]
 898 0026 1B78     		ldrb	r3, [r3]	@ zero_extendqisi2
 899 0028 7868     		ldr	r0, [r7, #4]
 900 002a FFF7FEFF 		bl	ChangeFrequency
 901              	.L43:
 338:.\main.c      **** }
 902              		.loc 1 338 0
 903 002e 0837     		adds	r7, r7, #8
 904              		.cfi_def_cfa_offset 8
 905 0030 BD46     		mov	sp, r7
 906              		.cfi_def_cfa_register 13
 907              		@ sp needed
 908 0032 80BD     		pop	{r7, pc}
 909              		.cfi_endproc
 910              	.LFE75:
 911              		.size	setFngFreq, .-setFngFreq
 912              		.section	.text.setFngShape,"ax",%progbits
 913              		.align	2
 914              		.global	setFngShape
 915              		.thumb
ARM GAS  C:\Users\jthem\AppData\Local\Temp\ccflPXLw.s 			page 23


 916              		.thumb_func
 917              		.type	setFngShape, %function
 918              	setFngShape:
 919              	.LFB76:
 339:.\main.c      **** 
 340:.\main.c      **** void setFngShape(FngShape newShape, FunctionGenerator *fng) {
 920              		.loc 1 340 0
 921              		.cfi_startproc
 922              		@ args = 0, pretend = 0, frame = 8
 923              		@ frame_needed = 1, uses_anonymous_args = 0
 924 0000 80B5     		push	{r7, lr}
 925              		.cfi_def_cfa_offset 8
 926              		.cfi_offset 7, -8
 927              		.cfi_offset 14, -4
 928 0002 82B0     		sub	sp, sp, #8
 929              		.cfi_def_cfa_offset 16
 930 0004 00AF     		add	r7, sp, #0
 931              		.cfi_def_cfa_register 7
 932 0006 0346     		mov	r3, r0
 933 0008 3960     		str	r1, [r7]
 934 000a FB71     		strb	r3, [r7, #7]
 341:.\main.c      ****     if (fng == NULL) return;
 935              		.loc 1 341 0
 936 000c 3B68     		ldr	r3, [r7]
 937 000e 002B     		cmp	r3, #0
 938 0010 00D1     		bne	.L47
 939 0012 0CE0     		b	.L46
 940              	.L47:
 342:.\main.c      ****     fng->shape = newShape;
 941              		.loc 1 342 0
 942 0014 3B68     		ldr	r3, [r7]
 943 0016 FA79     		ldrb	r2, [r7, #7]
 944 0018 DA71     		strb	r2, [r3, #7]
 343:.\main.c      ****     ChangeFrequency(fng->freq, newShape, fng->voltage, fng->id);
 945              		.loc 1 343 0
 946 001a 3B68     		ldr	r3, [r7]
 947 001c 9B88     		ldrh	r3, [r3, #4]
 948 001e 1846     		mov	r0, r3
 949 0020 F979     		ldrb	r1, [r7, #7]	@ zero_extendqisi2
 950 0022 3B68     		ldr	r3, [r7]
 951 0024 9A79     		ldrb	r2, [r3, #6]	@ zero_extendqisi2
 952 0026 3B68     		ldr	r3, [r7]
 953 0028 1B78     		ldrb	r3, [r3]	@ zero_extendqisi2
 954 002a FFF7FEFF 		bl	ChangeFrequency
 955              	.L46:
 344:.\main.c      **** }
 956              		.loc 1 344 0
 957 002e 0837     		adds	r7, r7, #8
 958              		.cfi_def_cfa_offset 8
 959 0030 BD46     		mov	sp, r7
 960              		.cfi_def_cfa_register 13
 961              		@ sp needed
 962 0032 80BD     		pop	{r7, pc}
 963              		.cfi_endproc
 964              	.LFE76:
 965              		.size	setFngShape, .-setFngShape
 966              		.section	.text.setFngVoltage,"ax",%progbits
ARM GAS  C:\Users\jthem\AppData\Local\Temp\ccflPXLw.s 			page 24


 967              		.align	2
 968              		.global	setFngVoltage
 969              		.thumb
 970              		.thumb_func
 971              		.type	setFngVoltage, %function
 972              	setFngVoltage:
 973              	.LFB77:
 345:.\main.c      **** 
 346:.\main.c      **** void setFngVoltage(uint8 newVoltage, FunctionGenerator *fng) {
 974              		.loc 1 346 0
 975              		.cfi_startproc
 976              		@ args = 0, pretend = 0, frame = 8
 977              		@ frame_needed = 1, uses_anonymous_args = 0
 978 0000 90B5     		push	{r4, r7, lr}
 979              		.cfi_def_cfa_offset 12
 980              		.cfi_offset 4, -12
 981              		.cfi_offset 7, -8
 982              		.cfi_offset 14, -4
 983 0002 83B0     		sub	sp, sp, #12
 984              		.cfi_def_cfa_offset 24
 985 0004 00AF     		add	r7, sp, #0
 986              		.cfi_def_cfa_register 7
 987 0006 0346     		mov	r3, r0
 988 0008 3960     		str	r1, [r7]
 989 000a FB71     		strb	r3, [r7, #7]
 347:.\main.c      ****     if (fng == NULL) return;
 990              		.loc 1 347 0
 991 000c 3B68     		ldr	r3, [r7]
 992 000e 002B     		cmp	r3, #0
 993 0010 00D1     		bne	.L50
 994 0012 16E0     		b	.L49
 995              	.L50:
 348:.\main.c      ****     if (newVoltage > 100) return;
 996              		.loc 1 348 0
 997 0014 FB79     		ldrb	r3, [r7, #7]	@ zero_extendqisi2
 998 0016 642B     		cmp	r3, #100
 999 0018 00D9     		bls	.L52
 1000              		.loc 1 348 0 is_stmt 0 discriminator 2
 1001 001a 12E0     		b	.L49
 1002              	.L52:
 349:.\main.c      ****     fng->voltage = newVoltage;
 1003              		.loc 1 349 0 is_stmt 1
 1004 001c 3B68     		ldr	r3, [r7]
 1005 001e FA79     		ldrb	r2, [r7, #7]
 1006 0020 9A71     		strb	r2, [r3, #6]
 350:.\main.c      ****     ChangeFrequency(fng->freq, fng->shape, newVoltage, fng->id);
 1007              		.loc 1 350 0
 1008 0022 3B68     		ldr	r3, [r7]
 1009 0024 9B88     		ldrh	r3, [r3, #4]
 1010 0026 1946     		mov	r1, r3
 1011 0028 3B68     		ldr	r3, [r7]
 1012 002a DB79     		ldrb	r3, [r3, #7]	@ zero_extendqisi2
 1013 002c 1A46     		mov	r2, r3
 1014 002e 3B68     		ldr	r3, [r7]
 1015 0030 1B78     		ldrb	r3, [r3]	@ zero_extendqisi2
 1016 0032 1C46     		mov	r4, r3
 1017 0034 FB79     		ldrb	r3, [r7, #7]	@ zero_extendqisi2
ARM GAS  C:\Users\jthem\AppData\Local\Temp\ccflPXLw.s 			page 25


 1018 0036 0846     		mov	r0, r1
 1019 0038 1146     		mov	r1, r2
 1020 003a 1A46     		mov	r2, r3
 1021 003c 2346     		mov	r3, r4
 1022 003e FFF7FEFF 		bl	ChangeFrequency
 1023              	.L49:
 351:.\main.c      **** }
 1024              		.loc 1 351 0
 1025 0042 0C37     		adds	r7, r7, #12
 1026              		.cfi_def_cfa_offset 12
 1027 0044 BD46     		mov	sp, r7
 1028              		.cfi_def_cfa_register 13
 1029              		@ sp needed
 1030 0046 90BD     		pop	{r4, r7, pc}
 1031              		.cfi_endproc
 1032              	.LFE77:
 1033              		.size	setFngVoltage, .-setFngVoltage
 1034              		.section	.text.setFngChannel,"ax",%progbits
 1035              		.align	2
 1036              		.global	setFngChannel
 1037              		.thumb
 1038              		.thumb_func
 1039              		.type	setFngChannel, %function
 1040              	setFngChannel:
 1041              	.LFB78:
 352:.\main.c      **** 
 353:.\main.c      **** void setFngChannel(uint8 newChannel, FunctionGenerator *fng) {
 1042              		.loc 1 353 0
 1043              		.cfi_startproc
 1044              		@ args = 0, pretend = 0, frame = 8
 1045              		@ frame_needed = 1, uses_anonymous_args = 0
 1046 0000 80B5     		push	{r7, lr}
 1047              		.cfi_def_cfa_offset 8
 1048              		.cfi_offset 7, -8
 1049              		.cfi_offset 14, -4
 1050 0002 82B0     		sub	sp, sp, #8
 1051              		.cfi_def_cfa_offset 16
 1052 0004 00AF     		add	r7, sp, #0
 1053              		.cfi_def_cfa_register 7
 1054 0006 0346     		mov	r3, r0
 1055 0008 3960     		str	r1, [r7]
 1056 000a FB71     		strb	r3, [r7, #7]
 354:.\main.c      ****     if (fng == NULL) return;
 1057              		.loc 1 354 0
 1058 000c 3B68     		ldr	r3, [r7]
 1059 000e 002B     		cmp	r3, #0
 1060 0010 00D1     		bne	.L54
 1061 0012 17E0     		b	.L53
 1062              	.L54:
 355:.\main.c      ****     if (newChannel >= 32) return;
 1063              		.loc 1 355 0
 1064 0014 FB79     		ldrb	r3, [r7, #7]	@ zero_extendqisi2
 1065 0016 1F2B     		cmp	r3, #31
 1066 0018 00D9     		bls	.L56
 1067              		.loc 1 355 0 is_stmt 0 discriminator 2
 1068 001a 13E0     		b	.L53
 1069              	.L56:
ARM GAS  C:\Users\jthem\AppData\Local\Temp\ccflPXLw.s 			page 26


 356:.\main.c      ****     fng->channel = newChannel;
 1070              		.loc 1 356 0 is_stmt 1
 1071 001c 3B68     		ldr	r3, [r7]
 1072 001e FA79     		ldrb	r2, [r7, #7]
 1073 0020 1A72     		strb	r2, [r3, #8]
 357:.\main.c      ****     if (fng->id == 0) {
 1074              		.loc 1 357 0
 1075 0022 3B68     		ldr	r3, [r7]
 1076 0024 1B78     		ldrb	r3, [r3]	@ zero_extendqisi2
 1077 0026 002B     		cmp	r3, #0
 1078 0028 04D1     		bne	.L57
 358:.\main.c      ****         WaveDAC_0_Mux_FastSelect(newChannel);
 1079              		.loc 1 358 0
 1080 002a FB79     		ldrb	r3, [r7, #7]	@ zero_extendqisi2
 1081 002c 1846     		mov	r0, r3
 1082 002e FFF7FEFF 		bl	WaveDAC_0_Mux_FastSelect
 1083 0032 07E0     		b	.L53
 1084              	.L57:
 359:.\main.c      ****     } else if (fng->id == 1) {
 1085              		.loc 1 359 0
 1086 0034 3B68     		ldr	r3, [r7]
 1087 0036 1B78     		ldrb	r3, [r3]	@ zero_extendqisi2
 1088 0038 012B     		cmp	r3, #1
 1089 003a 03D1     		bne	.L53
 360:.\main.c      ****         WaveDAC_1_Mux_FastSelect(newChannel);
 1090              		.loc 1 360 0
 1091 003c FB79     		ldrb	r3, [r7, #7]	@ zero_extendqisi2
 1092 003e 1846     		mov	r0, r3
 1093 0040 FFF7FEFF 		bl	WaveDAC_1_Mux_FastSelect
 1094              	.L53:
 361:.\main.c      ****     }
 362:.\main.c      ****     
 363:.\main.c      **** }
 1095              		.loc 1 363 0
 1096 0044 0837     		adds	r7, r7, #8
 1097              		.cfi_def_cfa_offset 8
 1098 0046 BD46     		mov	sp, r7
 1099              		.cfi_def_cfa_register 13
 1100              		@ sp needed
 1101 0048 80BD     		pop	{r7, pc}
 1102              		.cfi_endproc
 1103              	.LFE78:
 1104              		.size	setFngChannel, .-setFngChannel
 1105 004a 00BF     		.section	.rodata
 1106              		.align	2
 1107              	.LC0:
 1108 0000 4D6F6465 		.ascii	"Mode: \000"
 1108      3A2000
 1109 0007 00       		.align	2
 1110              	.LC1:
 1111 0008 416D706C 		.ascii	"Ampl: \000"
 1111      3A2000
 1112 000f 00       		.align	2
 1113              	.LC2:
 1114 0010 25732C20 		.ascii	"%s, %d\000"
 1114      256400
 1115 0017 00       		.align	2
ARM GAS  C:\Users\jthem\AppData\Local\Temp\ccflPXLw.s 			page 27


 1116              	.LC3:
 1117 0018 53717561 		.ascii	"Square\000"
 1117      726500
 1118 001f 00       		.align	2
 1119              	.LC4:
 1120 0020 53696E65 		.ascii	"Sine\000"
 1120      00
 1121 0025 000000   		.align	2
 1122              	.LC5:
 1123 0028 54726961 		.ascii	"Triangle\000"
 1123      6E676C65 
 1123      00
 1124 0031 000000   		.align	2
 1125              	.LC6:
 1126 0034 53617774 		.ascii	"Sawtooth\000"
 1126      6F6F7468 
 1126      00
 1127 003d 000000   		.align	2
 1128              	.LC7:
 1129 0040 444300   		.ascii	"DC\000"
 1130 0043 00       		.align	2
 1131              	.LC8:
 1132 0044 256400   		.ascii	"%d\000"
 1133 0047 00       		.section	.text.main,"ax",%progbits
 1134              		.align	2
 1135              		.global	main
 1136              		.thumb
 1137              		.thumb_func
 1138              		.type	main, %function
 1139              	main:
 1140              	.LFB79:
 364:.\main.c      **** 
 365:.\main.c      **** /*******************************************************************************
 366:.\main.c      **** * Function Name: main
 367:.\main.c      **** ********************************************************************************
 368:.\main.c      **** *
 369:.\main.c      **** * Parameters:
 370:.\main.c      **** *  None.
 371:.\main.c      **** *
 372:.\main.c      **** * Return:
 373:.\main.c      **** *  None.
 374:.\main.c      **** *
 375:.\main.c      **** *******************************************************************************/
 376:.\main.c      **** int main()
 377:.\main.c      **** {
 1141              		.loc 1 377 0
 1142              		.cfi_startproc
 1143              		@ args = 0, pretend = 0, frame = 2512
 1144              		@ frame_needed = 1, uses_anonymous_args = 0
 1145 0000 90B5     		push	{r4, r7, lr}
 1146              		.cfi_def_cfa_offset 12
 1147              		.cfi_offset 4, -12
 1148              		.cfi_offset 7, -8
 1149              		.cfi_offset 14, -4
 1150 0002 ADF6D41D 		subw	sp, sp, #2516
 1151              		.cfi_def_cfa_offset 2528
 1152 0006 00AF     		add	r7, sp, #0
ARM GAS  C:\Users\jthem\AppData\Local\Temp\ccflPXLw.s 			page 28


 1153              		.cfi_def_cfa_register 7
 378:.\main.c      ****     SlaveState state;
 379:.\main.c      ****     SlaveCommand currentCommand;
 380:.\main.c      ****     
 381:.\main.c      ****     uint16 newFreq, newVoltage, newShape, newPin, newFngOrScopeId, 
 382:.\main.c      ****       newFngOrScopeOn, newFngCommand, newOscCommand;
 383:.\main.c      ****     uint16 dataFromMaster;
 384:.\main.c      ****     uint8 wasDataReceived;
 385:.\main.c      ****     
 386:.\main.c      ****     char scope0RawBuffer[1200] = {0};
 1154              		.loc 1 386 0
 1155 0008 07F2D443 		addw	r3, r7, #1236
 1156 000c 1A46     		mov	r2, r3
 1157 000e 4FF49663 		mov	r3, #1200
 1158 0012 1046     		mov	r0, r2
 1159 0014 0021     		movs	r1, #0
 1160 0016 1A46     		mov	r2, r3
 1161 0018 FFF7FEFF 		bl	memset
 387:.\main.c      ****     char scope0SerialBuffer[1200] = {0};
 1162              		.loc 1 387 0
 1163 001c 07F12403 		add	r3, r7, #36
 1164 0020 1A46     		mov	r2, r3
 1165 0022 4FF49663 		mov	r3, #1200
 1166 0026 1046     		mov	r0, r2
 1167 0028 0021     		movs	r1, #0
 1168 002a 1A46     		mov	r2, r3
 1169 002c FFF7FEFF 		bl	memset
 388:.\main.c      ****     int scope0RawBufferPtr = 0, scope0RawBufferStartPtr = 0;
 1170              		.loc 1 388 0
 1171 0030 0023     		movs	r3, #0
 1172 0032 C7F8B439 		str	r3, [r7, #2484]
 1173 0036 0023     		movs	r3, #0
 1174 0038 C7F8B039 		str	r3, [r7, #2480]
 389:.\main.c      ****     PSOC5_Init();
 1175              		.loc 1 389 0
 1176 003c FFF7FEFF 		bl	PSOC5_Init
 390:.\main.c      ****     
 391:.\main.c      ****     FunctionGenerator *currentFng;
 392:.\main.c      ****     Oscilloscope *currentOsc;
 393:.\main.c      ****     
 394:.\main.c      ****     initializeState(&state);
 1177              		.loc 1 394 0
 1178 0040 07F68413 		addw	r3, r7, #2436
 1179 0044 1846     		mov	r0, r3
 1180 0046 FFF7FEFF 		bl	initializeState
 395:.\main.c      ****     newFreq = 0;
 1181              		.loc 1 395 0
 1182 004a 0023     		movs	r3, #0
 1183 004c A7F8CC39 		strh	r3, [r7, #2508]	@ movhi
 396:.\main.c      ****     newVoltage = 0;
 1184              		.loc 1 396 0
 1185 0050 0023     		movs	r3, #0
 1186 0052 A7F8CA39 		strh	r3, [r7, #2506]	@ movhi
 397:.\main.c      ****     newShape = SQUARE;
 1187              		.loc 1 397 0
 1188 0056 0023     		movs	r3, #0
 1189 0058 A7F8C839 		strh	r3, [r7, #2504]	@ movhi
ARM GAS  C:\Users\jthem\AppData\Local\Temp\ccflPXLw.s 			page 29


 398:.\main.c      ****     newPin = 0;
 1190              		.loc 1 398 0
 1191 005c 0023     		movs	r3, #0
 1192 005e A7F8C639 		strh	r3, [r7, #2502]	@ movhi
 399:.\main.c      ****     newFngOrScopeId = 0;
 1193              		.loc 1 399 0
 1194 0062 0023     		movs	r3, #0
 1195 0064 A7F8AE39 		strh	r3, [r7, #2478]	@ movhi
 400:.\main.c      ****     newFngOrScopeOn = 0;
 1196              		.loc 1 400 0
 1197 0068 0023     		movs	r3, #0
 1198 006a A7F8AC39 		strh	r3, [r7, #2476]	@ movhi
 401:.\main.c      ****     newFngCommand = 0;
 1199              		.loc 1 401 0
 1200 006e 0023     		movs	r3, #0
 1201 0070 A7F8AA39 		strh	r3, [r7, #2474]	@ movhi
 402:.\main.c      ****     newOscCommand = 0;
 1202              		.loc 1 402 0
 1203 0074 0023     		movs	r3, #0
 1204 0076 A7F8A839 		strh	r3, [r7, #2472]	@ movhi
 403:.\main.c      ****     
 404:.\main.c      ****     uint8 freqChanged = 0;
 1205              		.loc 1 404 0
 1206 007a 0023     		movs	r3, #0
 1207 007c 87F8BB39 		strb	r3, [r7, #2491]
 405:.\main.c      ****     uint8 shapeChanged = 0;
 1208              		.loc 1 405 0
 1209 0080 0023     		movs	r3, #0
 1210 0082 87F8BA39 		strb	r3, [r7, #2490]
 406:.\main.c      ****     uint8 voltageChanged = 0;
 1211              		.loc 1 406 0
 1212 0086 0023     		movs	r3, #0
 1213 0088 87F8B939 		strb	r3, [r7, #2489]
 407:.\main.c      ****     uint8 pinChanged = 0;
 1214              		.loc 1 407 0
 1215 008c 0023     		movs	r3, #0
 1216 008e 87F8B839 		strb	r3, [r7, #2488]
 408:.\main.c      ****     
 409:.\main.c      ****     currentFng = NULL;
 1217              		.loc 1 409 0
 1218 0092 0023     		movs	r3, #0
 1219 0094 C7F8BC39 		str	r3, [r7, #2492]
 410:.\main.c      ****     currentOsc = NULL;
 1220              		.loc 1 410 0
 1221 0098 0023     		movs	r3, #0
 1222 009a C7F8A439 		str	r3, [r7, #2468]
 411:.\main.c      ****     
 412:.\main.c      ****     currentCommand = ALERT;
 1223              		.loc 1 412 0
 1224 009e 0023     		movs	r3, #0
 1225 00a0 87F8CF39 		strb	r3, [r7, #2511]
 413:.\main.c      ****     wasDataReceived = 0;
 1226              		.loc 1 413 0
 1227 00a4 0023     		movs	r3, #0
 1228 00a6 87F8C339 		strb	r3, [r7, #2499]
 414:.\main.c      ****     
 415:.\main.c      ****     uint8 channel = 0;
ARM GAS  C:\Users\jthem\AppData\Local\Temp\ccflPXLw.s 			page 30


 1229              		.loc 1 415 0
 1230 00aa 0023     		movs	r3, #0
 1231 00ac 87F8A339 		strb	r3, [r7, #2467]
 416:.\main.c      ****     uint8 channelInc = 0;
 1232              		.loc 1 416 0
 1233 00b0 0023     		movs	r3, #0
 1234 00b2 87F8A239 		strb	r3, [r7, #2466]
 417:.\main.c      ****     
 418:.\main.c      ****     
 419:.\main.c      ****     /*
 420:.\main.c      ****     setFngFreq(853, &state.fng0);
 421:.\main.c      ****     setFngFreq(960, &state.fng1);
 422:.\main.c      ****     
 423:.\main.c      ****     setFngShape(SINE, &state.fng0);
 424:.\main.c      ****     setFngShape(SINE, &state.fng1);
 425:.\main.c      ****     
 426:.\main.c      ****     setFngVoltage(100, &state.fng0);
 427:.\main.c      ****     setFngVoltage(100, &state.fng1);
 428:.\main.c      ****     */
 429:.\main.c      ****     
 430:.\main.c      ****     setFngChannel(0, &state.fng0);
 1235              		.loc 1 430 0
 1236 00b6 07F68413 		addw	r3, r7, #2436
 1237 00ba 0020     		movs	r0, #0
 1238 00bc 1946     		mov	r1, r3
 1239 00be FFF7FEFF 		bl	setFngChannel
 431:.\main.c      ****     setFngChannel(1, &state.fng1);
 1240              		.loc 1 431 0
 1241 00c2 07F68413 		addw	r3, r7, #2436
 1242 00c6 0A33     		adds	r3, r3, #10
 1243 00c8 0120     		movs	r0, #1
 1244 00ca 1946     		mov	r1, r3
 1245 00cc FFF7FEFF 		bl	setFngChannel
 432:.\main.c      ****     
 433:.\main.c      ****     disableFng(&state.fng0);
 1246              		.loc 1 433 0
 1247 00d0 07F68413 		addw	r3, r7, #2436
 1248 00d4 1846     		mov	r0, r3
 1249 00d6 FFF7FEFF 		bl	disableFng
 434:.\main.c      ****     disableFng(&state.fng1);
 1250              		.loc 1 434 0
 1251 00da 07F68413 		addw	r3, r7, #2436
 1252 00de 0A33     		adds	r3, r3, #10
 1253 00e0 1846     		mov	r0, r3
 1254 00e2 FFF7FEFF 		bl	disableFng
 1255              	.L102:
 435:.\main.c      ****     
 436:.\main.c      **** 
 437:.\main.c      ****     while (1) {        
 438:.\main.c      ****         if (SPIS_ReadRxStatus()) {
 1256              		.loc 1 438 0
 1257 00e6 FFF7FEFF 		bl	SPIS_ReadRxStatus
 1258 00ea 0346     		mov	r3, r0
 1259 00ec 002B     		cmp	r3, #0
 1260 00ee 17D0     		beq	.L59
 1261              	.LBB3:
 439:.\main.c      ****             uint16 newData = SPIS_ReadRxData();
ARM GAS  C:\Users\jthem\AppData\Local\Temp\ccflPXLw.s 			page 31


 1262              		.loc 1 439 0
 1263 00f0 FFF7FEFF 		bl	SPIS_ReadRxData
 1264 00f4 0346     		mov	r3, r0
 1265 00f6 A7F8A039 		strh	r3, [r7, #2464]	@ movhi
 440:.\main.c      ****             if (newData != dataFromMaster) {
 1266              		.loc 1 440 0
 1267 00fa B7F8A029 		ldrh	r2, [r7, #2464]
 1268 00fe B7F8C439 		ldrh	r3, [r7, #2500]
 1269 0102 9A42     		cmp	r2, r3
 1270 0104 07D0     		beq	.L60
 441:.\main.c      ****                 dataFromMaster = newData;
 1271              		.loc 1 441 0
 1272 0106 B7F8A039 		ldrh	r3, [r7, #2464]	@ movhi
 1273 010a A7F8C439 		strh	r3, [r7, #2500]	@ movhi
 442:.\main.c      ****                 wasDataReceived = 1;
 1274              		.loc 1 442 0
 1275 010e 0123     		movs	r3, #1
 1276 0110 87F8C339 		strb	r3, [r7, #2499]
 1277 0114 02E0     		b	.L61
 1278              	.L60:
 443:.\main.c      ****             } else {
 444:.\main.c      ****                 wasDataReceived = 0;   
 1279              		.loc 1 444 0
 1280 0116 0023     		movs	r3, #0
 1281 0118 87F8C339 		strb	r3, [r7, #2499]
 1282              	.L61:
 445:.\main.c      ****             }
 446:.\main.c      ****             SPIS_ClearRxBuffer();
 1283              		.loc 1 446 0
 1284 011c FFF7FEFF 		bl	SPIS_ClearRxBuffer
 1285              	.L59:
 1286              	.LBE3:
 447:.\main.c      ****         }
 448:.\main.c      ****         
 449:.\main.c      ****         LED_0_Write(wasDataReceived);
 1287              		.loc 1 449 0
 1288 0120 97F8C339 		ldrb	r3, [r7, #2499]	@ zero_extendqisi2
 1289 0124 1846     		mov	r0, r3
 1290 0126 FFF7FEFF 		bl	LED_0_Write
 450:.\main.c      ****         
 451:.\main.c      ****         LCD_Position(0, 0);
 1291              		.loc 1 451 0
 1292 012a 0020     		movs	r0, #0
 1293 012c 0021     		movs	r1, #0
 1294 012e FFF7FEFF 		bl	LCD_Position
 452:.\main.c      ****         LCD_PrintString("Mode: ");
 1295              		.loc 1 452 0
 1296 0132 B448     		ldr	r0, .L104
 1297 0134 FFF7FEFF 		bl	LCD_PrintString
 453:.\main.c      ****         LCD_Position(1, 0);
 1298              		.loc 1 453 0
 1299 0138 0120     		movs	r0, #1
 1300 013a 0021     		movs	r1, #0
 1301 013c FFF7FEFF 		bl	LCD_Position
 454:.\main.c      ****         LCD_PrintString("Ampl: ");
 1302              		.loc 1 454 0
 1303 0140 B148     		ldr	r0, .L104+4
ARM GAS  C:\Users\jthem\AppData\Local\Temp\ccflPXLw.s 			page 32


 1304 0142 FFF7FEFF 		bl	LCD_PrintString
 455:.\main.c      ****         
 456:.\main.c      ****         switch (currentCommand) {
 1305              		.loc 1 456 0
 1306 0146 97F8CF39 		ldrb	r3, [r7, #2511]	@ zero_extendqisi2
 1307 014a 082B     		cmp	r3, #8
 1308 014c 00F2DB81 		bhi	.L62
 1309 0150 01A2     		adr	r2, .L64
 1310 0152 52F823F0 		ldr	pc, [r2, r3, lsl #2]
 1311 0156 00BF     		.p2align 2
 1312              	.L64:
 1313 0158 7D010000 		.word	.L63+1
 1314 015c 53020000 		.word	.L65+1
 1315 0160 87020000 		.word	.L66+1
 1316 0164 B9020000 		.word	.L67+1
 1317 0168 21020000 		.word	.L68+1
 1318 016c F5020000 		.word	.L69+1
 1319 0170 21030000 		.word	.L70+1
 1320 0174 FD020000 		.word	.L71+1
 1321 0178 AD040000 		.word	.L72+1
 1322              		.p2align 1
 1323              	.L63:
 457:.\main.c      ****             case ALERT:
 458:.\main.c      ****                 if (wasDataReceived && (dataFromMaster >> 12) == 0x000A) { 
 1324              		.loc 1 458 0
 1325 017c 97F8C339 		ldrb	r3, [r7, #2499]	@ zero_extendqisi2
 1326 0180 002B     		cmp	r3, #0
 1327 0182 4CD0     		beq	.L73
 1328              		.loc 1 458 0 is_stmt 0 discriminator 1
 1329 0184 B7F8C439 		ldrh	r3, [r7, #2500]
 1330 0188 1B0B     		lsrs	r3, r3, #12
 1331 018a 9BB2     		uxth	r3, r3
 1332 018c 0A2B     		cmp	r3, #10
 1333 018e 46D1     		bne	.L73
 459:.\main.c      ****                     newFngOrScopeId = (dataFromMaster & 0x00F0) >> 4;
 1334              		.loc 1 459 0 is_stmt 1
 1335 0190 B7F8C439 		ldrh	r3, [r7, #2500]
 1336 0194 03F0F003 		and	r3, r3, #240
 1337 0198 1B11     		asrs	r3, r3, #4
 1338 019a A7F8AE39 		strh	r3, [r7, #2478]	@ movhi
 460:.\main.c      ****                     newFngOrScopeOn = (dataFromMaster & 0x0F00) >> 8;
 1339              		.loc 1 460 0
 1340 019e B7F8C439 		ldrh	r3, [r7, #2500]
 1341 01a2 03F47063 		and	r3, r3, #3840
 1342 01a6 1B12     		asrs	r3, r3, #8
 1343 01a8 A7F8AC39 		strh	r3, [r7, #2476]	@ movhi
 461:.\main.c      ****                     
 462:.\main.c      ****                     if (newFngOrScopeId == 0 || newFngOrScopeId == 1) {
 1344              		.loc 1 462 0
 1345 01ac B7F8AE39 		ldrh	r3, [r7, #2478]
 1346 01b0 002B     		cmp	r3, #0
 1347 01b2 03D0     		beq	.L74
 1348              		.loc 1 462 0 is_stmt 0 discriminator 1
 1349 01b4 B7F8AE39 		ldrh	r3, [r7, #2478]
 1350 01b8 012B     		cmp	r3, #1
 1351 01ba 0FD1     		bne	.L75
 1352              	.L74:
ARM GAS  C:\Users\jthem\AppData\Local\Temp\ccflPXLw.s 			page 33


 463:.\main.c      ****                         currentFng = getFng(newFngOrScopeId, &state);
 1353              		.loc 1 463 0 is_stmt 1
 1354 01bc B7F8AE39 		ldrh	r3, [r7, #2478]	@ movhi
 1355 01c0 DAB2     		uxtb	r2, r3
 1356 01c2 07F68413 		addw	r3, r7, #2436
 1357 01c6 1046     		mov	r0, r2
 1358 01c8 1946     		mov	r1, r3
 1359 01ca FFF7FEFF 		bl	getFng
 1360 01ce C7F8BC09 		str	r0, [r7, #2492]
 464:.\main.c      ****                     } else if (newFngOrScopeId == 2 || newFngOrScopeId == 3) {
 465:.\main.c      ****                         // TODO: implement oscope control
 466:.\main.c      ****                         currentCommand = INVALID_COMMAND;
 467:.\main.c      ****                         break;
 468:.\main.c      ****                     } else { // invalid fng/scope ID
 469:.\main.c      ****                         currentCommand = INVALID_COMMAND;
 470:.\main.c      ****                         break;
 471:.\main.c      ****                     }
 472:.\main.c      ****                     
 473:.\main.c      ****                     if (!newFngOrScopeOn) {
 1361              		.loc 1 473 0
 1362 01d2 B7F8AC39 		ldrh	r3, [r7, #2476]
 1363 01d6 002B     		cmp	r3, #0
 1364 01d8 10D0     		beq	.L76
 1365 01da 17E0     		b	.L103
 1366              	.L75:
 464:.\main.c      ****                     } else if (newFngOrScopeId == 2 || newFngOrScopeId == 3) {
 1367              		.loc 1 464 0
 1368 01dc B7F8AE39 		ldrh	r3, [r7, #2478]
 1369 01e0 022B     		cmp	r3, #2
 1370 01e2 03D0     		beq	.L78
 464:.\main.c      ****                     } else if (newFngOrScopeId == 2 || newFngOrScopeId == 3) {
 1371              		.loc 1 464 0 is_stmt 0 discriminator 1
 1372 01e4 B7F8AE39 		ldrh	r3, [r7, #2478]
 1373 01e8 032B     		cmp	r3, #3
 1374 01ea 03D1     		bne	.L79
 1375              	.L78:
 466:.\main.c      ****                         break;
 1376              		.loc 1 466 0 is_stmt 1
 1377 01ec 0823     		movs	r3, #8
 1378 01ee 87F8CF39 		strb	r3, [r7, #2511]
 467:.\main.c      ****                     } else { // invalid fng/scope ID
 1379              		.loc 1 467 0
 1380 01f2 88E1     		b	.L62
 1381              	.L79:
 469:.\main.c      ****                         break;
 1382              		.loc 1 469 0
 1383 01f4 0823     		movs	r3, #8
 1384 01f6 87F8CF39 		strb	r3, [r7, #2511]
 470:.\main.c      ****                     }
 1385              		.loc 1 470 0
 1386 01fa 84E1     		b	.L62
 1387              	.L76:
 474:.\main.c      ****                         disableFng(currentFng);
 1388              		.loc 1 474 0
 1389 01fc D7F8BC09 		ldr	r0, [r7, #2492]
 1390 0200 FFF7FEFF 		bl	disableFng
 475:.\main.c      ****                         currentCommand = WAIT_FINISH;
ARM GAS  C:\Users\jthem\AppData\Local\Temp\ccflPXLw.s 			page 34


 1391              		.loc 1 475 0
 1392 0204 0723     		movs	r3, #7
 1393 0206 87F8CF39 		strb	r3, [r7, #2511]
 1394 020a 08E0     		b	.L73
 1395              	.L103:
 476:.\main.c      ****                     } else {
 477:.\main.c      ****                         currentCommand = getFngCommand(dataFromMaster);
 1396              		.loc 1 477 0
 1397 020c B7F8C439 		ldrh	r3, [r7, #2500]
 1398 0210 1846     		mov	r0, r3
 1399 0212 FFF7FEFF 		bl	getFngCommand
 1400 0216 0346     		mov	r3, r0
 1401 0218 87F8CF39 		strb	r3, [r7, #2511]
 478:.\main.c      ****                     }
 479:.\main.c      ****                 }
 480:.\main.c      ****                 break;
 1402              		.loc 1 480 0
 1403 021c 73E1     		b	.L62
 1404              	.L73:
 1405 021e 72E1     		b	.L62
 1406              	.L68:
 481:.\main.c      ****             case FNG_PIN:
 482:.\main.c      ****                 if (wasDataReceived) {
 1407              		.loc 1 482 0
 1408 0220 97F8C339 		ldrb	r3, [r7, #2499]	@ zero_extendqisi2
 1409 0224 002B     		cmp	r3, #0
 1410 0226 13D0     		beq	.L80
 483:.\main.c      ****                     newPin = (dataFromMaster & 0x00FF);
 1411              		.loc 1 483 0
 1412 0228 B7F8C439 		ldrh	r3, [r7, #2500]	@ movhi
 1413 022c DBB2     		uxtb	r3, r3
 1414 022e A7F8C639 		strh	r3, [r7, #2502]	@ movhi
 484:.\main.c      ****                     if (newPin >= 32) {
 1415              		.loc 1 484 0
 1416 0232 B7F8C639 		ldrh	r3, [r7, #2502]
 1417 0236 1F2B     		cmp	r3, #31
 1418 0238 03D9     		bls	.L81
 485:.\main.c      ****                         currentCommand = INVALID_COMMAND;
 1419              		.loc 1 485 0
 1420 023a 0823     		movs	r3, #8
 1421 023c 87F8CF39 		strb	r3, [r7, #2511]
 1422 0240 06E0     		b	.L80
 1423              	.L81:
 486:.\main.c      ****                     } else {
 487:.\main.c      ****                         currentCommand = WAIT_FINISH;
 1424              		.loc 1 487 0
 1425 0242 0723     		movs	r3, #7
 1426 0244 87F8CF39 		strb	r3, [r7, #2511]
 488:.\main.c      ****                         pinChanged = 1;
 1427              		.loc 1 488 0
 1428 0248 0123     		movs	r3, #1
 1429 024a 87F8B839 		strb	r3, [r7, #2488]
 489:.\main.c      ****                     }
 490:.\main.c      ****                 }
 491:.\main.c      ****                 break;
 1430              		.loc 1 491 0
 1431 024e 5AE1     		b	.L62
ARM GAS  C:\Users\jthem\AppData\Local\Temp\ccflPXLw.s 			page 35


 1432              	.L80:
 1433 0250 59E1     		b	.L62
 1434              	.L65:
 492:.\main.c      ****             case FNG_SHAPE:
 493:.\main.c      ****                 if (wasDataReceived) {
 1435              		.loc 1 493 0
 1436 0252 97F8C339 		ldrb	r3, [r7, #2499]	@ zero_extendqisi2
 1437 0256 002B     		cmp	r3, #0
 1438 0258 14D0     		beq	.L82
 494:.\main.c      ****                     newShape = (dataFromMaster & 0x000F);
 1439              		.loc 1 494 0
 1440 025a B7F8C439 		ldrh	r3, [r7, #2500]	@ movhi
 1441 025e 03F00F03 		and	r3, r3, #15
 1442 0262 A7F8C839 		strh	r3, [r7, #2504]	@ movhi
 495:.\main.c      ****                     if (newShape >= 5) {
 1443              		.loc 1 495 0
 1444 0266 B7F8C839 		ldrh	r3, [r7, #2504]
 1445 026a 042B     		cmp	r3, #4
 1446 026c 03D9     		bls	.L83
 496:.\main.c      ****                         currentCommand = INVALID_COMMAND;
 1447              		.loc 1 496 0
 1448 026e 0823     		movs	r3, #8
 1449 0270 87F8CF39 		strb	r3, [r7, #2511]
 1450 0274 06E0     		b	.L82
 1451              	.L83:
 497:.\main.c      ****                     } else {
 498:.\main.c      ****                         
 499:.\main.c      ****                         currentCommand = WAIT_FINISH;  
 1452              		.loc 1 499 0
 1453 0276 0723     		movs	r3, #7
 1454 0278 87F8CF39 		strb	r3, [r7, #2511]
 500:.\main.c      ****                         shapeChanged = 1;
 1455              		.loc 1 500 0
 1456 027c 0123     		movs	r3, #1
 1457 027e 87F8BA39 		strb	r3, [r7, #2490]
 501:.\main.c      ****                     }
 502:.\main.c      ****                 }
 503:.\main.c      ****                 break;
 1458              		.loc 1 503 0
 1459 0282 40E1     		b	.L62
 1460              	.L82:
 1461 0284 3FE1     		b	.L62
 1462              	.L66:
 504:.\main.c      ****             case FNG_VOLTAGE:
 505:.\main.c      ****                 if (wasDataReceived) {
 1463              		.loc 1 505 0
 1464 0286 97F8C339 		ldrb	r3, [r7, #2499]	@ zero_extendqisi2
 1465 028a 002B     		cmp	r3, #0
 1466 028c 13D0     		beq	.L84
 506:.\main.c      ****                     newVoltage = (dataFromMaster & 0x00FF);
 1467              		.loc 1 506 0
 1468 028e B7F8C439 		ldrh	r3, [r7, #2500]	@ movhi
 1469 0292 DBB2     		uxtb	r3, r3
 1470 0294 A7F8CA39 		strh	r3, [r7, #2506]	@ movhi
 507:.\main.c      ****                     if (newVoltage > 100) {
 1471              		.loc 1 507 0
 1472 0298 B7F8CA39 		ldrh	r3, [r7, #2506]
ARM GAS  C:\Users\jthem\AppData\Local\Temp\ccflPXLw.s 			page 36


 1473 029c 642B     		cmp	r3, #100
 1474 029e 03D9     		bls	.L85
 508:.\main.c      ****                         currentCommand = INVALID_COMMAND;   
 1475              		.loc 1 508 0
 1476 02a0 0823     		movs	r3, #8
 1477 02a2 87F8CF39 		strb	r3, [r7, #2511]
 1478 02a6 06E0     		b	.L84
 1479              	.L85:
 509:.\main.c      ****                     } else {
 510:.\main.c      ****                         currentCommand = WAIT_FINISH;
 1480              		.loc 1 510 0
 1481 02a8 0723     		movs	r3, #7
 1482 02aa 87F8CF39 		strb	r3, [r7, #2511]
 511:.\main.c      ****                         voltageChanged = 1;
 1483              		.loc 1 511 0
 1484 02ae 0123     		movs	r3, #1
 1485 02b0 87F8B939 		strb	r3, [r7, #2489]
 512:.\main.c      ****                     }
 513:.\main.c      ****                 }
 514:.\main.c      ****                 break;
 1486              		.loc 1 514 0
 1487 02b4 27E1     		b	.L62
 1488              	.L84:
 1489 02b6 26E1     		b	.L62
 1490              	.L67:
 515:.\main.c      ****             case FNG_FREQUENCY:
 516:.\main.c      ****                 if (wasDataReceived) {
 1491              		.loc 1 516 0
 1492 02b8 97F8C339 		ldrb	r3, [r7, #2499]	@ zero_extendqisi2
 1493 02bc 002B     		cmp	r3, #0
 1494 02be 18D0     		beq	.L86
 517:.\main.c      ****                     newFreq = dataFromMaster;
 1495              		.loc 1 517 0
 1496 02c0 B7F8C439 		ldrh	r3, [r7, #2500]	@ movhi
 1497 02c4 A7F8CC39 		strh	r3, [r7, #2508]	@ movhi
 518:.\main.c      ****                     if (newFreq > 50000 || newFreq < 50) {
 1498              		.loc 1 518 0
 1499 02c8 B7F8CC39 		ldrh	r3, [r7, #2508]
 1500 02cc 4CF25032 		movw	r2, #50000
 1501 02d0 9342     		cmp	r3, r2
 1502 02d2 03D8     		bhi	.L87
 1503              		.loc 1 518 0 is_stmt 0 discriminator 1
 1504 02d4 B7F8CC39 		ldrh	r3, [r7, #2508]
 1505 02d8 312B     		cmp	r3, #49
 1506 02da 03D8     		bhi	.L88
 1507              	.L87:
 519:.\main.c      ****                         currentCommand = INVALID_COMMAND;
 1508              		.loc 1 519 0 is_stmt 1
 1509 02dc 0823     		movs	r3, #8
 1510 02de 87F8CF39 		strb	r3, [r7, #2511]
 1511 02e2 06E0     		b	.L86
 1512              	.L88:
 520:.\main.c      ****                     } else {
 521:.\main.c      ****                         currentCommand = WAIT_FINISH;   
 1513              		.loc 1 521 0
 1514 02e4 0723     		movs	r3, #7
 1515 02e6 87F8CF39 		strb	r3, [r7, #2511]
ARM GAS  C:\Users\jthem\AppData\Local\Temp\ccflPXLw.s 			page 37


 522:.\main.c      ****                         freqChanged = 1;
 1516              		.loc 1 522 0
 1517 02ea 0123     		movs	r3, #1
 1518 02ec 87F8BB39 		strb	r3, [r7, #2491]
 523:.\main.c      ****                     }
 524:.\main.c      ****                 }
 525:.\main.c      ****                 break;
 1519              		.loc 1 525 0
 1520 02f0 09E1     		b	.L62
 1521              	.L86:
 1522 02f2 08E1     		b	.L62
 1523              	.L69:
 526:.\main.c      ****             case OSC_PIN:
 527:.\main.c      ****                 // TODO: implement oscilloscope pin selection
 528:.\main.c      ****                 currentCommand = INVALID_COMMAND;
 1524              		.loc 1 528 0
 1525 02f4 0823     		movs	r3, #8
 1526 02f6 87F8CF39 		strb	r3, [r7, #2511]
 529:.\main.c      ****                 break;
 1527              		.loc 1 529 0
 1528 02fa 04E1     		b	.L62
 1529              	.L71:
 530:.\main.c      ****             case WAIT_FINISH:
 531:.\main.c      ****                 if (wasDataReceived) {
 1530              		.loc 1 531 0
 1531 02fc 97F8C339 		ldrb	r3, [r7, #2499]	@ zero_extendqisi2
 1532 0300 002B     		cmp	r3, #0
 1533 0302 0CD0     		beq	.L89
 532:.\main.c      ****                     if (dataFromMaster == 0xF000) {
 1534              		.loc 1 532 0
 1535 0304 B7F8C439 		ldrh	r3, [r7, #2500]
 1536 0308 B3F5704F 		cmp	r3, #61440
 1537 030c 03D1     		bne	.L90
 533:.\main.c      ****                         currentCommand = COMMIT_CHANGES;
 1538              		.loc 1 533 0
 1539 030e 0623     		movs	r3, #6
 1540 0310 87F8CF39 		strb	r3, [r7, #2511]
 1541 0314 03E0     		b	.L89
 1542              	.L90:
 534:.\main.c      ****                     } else {
 535:.\main.c      ****                         currentCommand = INVALID_COMMAND;   
 1543              		.loc 1 535 0
 1544 0316 0823     		movs	r3, #8
 1545 0318 87F8CF39 		strb	r3, [r7, #2511]
 536:.\main.c      ****                     }
 537:.\main.c      ****                 }
 538:.\main.c      ****                 break;
 1546              		.loc 1 538 0
 1547 031c F3E0     		b	.L62
 1548              	.L89:
 1549 031e F2E0     		b	.L62
 1550              	.L70:
 539:.\main.c      ****             case COMMIT_CHANGES:
 540:.\main.c      ****                 
 541:.\main.c      ****                 LCD_ClearDisplay();
 1551              		.loc 1 541 0
 1552 0320 0120     		movs	r0, #1
ARM GAS  C:\Users\jthem\AppData\Local\Temp\ccflPXLw.s 			page 38


 1553 0322 FFF7FEFF 		bl	LCD_WriteControl
 542:.\main.c      ****                 LCD_Position(0, 0);
 1554              		.loc 1 542 0
 1555 0326 0020     		movs	r0, #0
 1556 0328 0021     		movs	r1, #0
 1557 032a FFF7FEFF 		bl	LCD_Position
 543:.\main.c      ****                 LCD_PrintString("Mode: ");
 1558              		.loc 1 543 0
 1559 032e 3548     		ldr	r0, .L104
 1560 0330 FFF7FEFF 		bl	LCD_PrintString
 544:.\main.c      ****                 LCD_Position(1, 0);
 1561              		.loc 1 544 0
 1562 0334 0120     		movs	r0, #1
 1563 0336 0021     		movs	r1, #0
 1564 0338 FFF7FEFF 		bl	LCD_Position
 545:.\main.c      ****                 LCD_PrintString("Ampl: ");
 1565              		.loc 1 545 0
 1566 033c 3248     		ldr	r0, .L104+4
 1567 033e FFF7FEFF 		bl	LCD_PrintString
 546:.\main.c      ****                 
 547:.\main.c      ****                 if (freqChanged) setFngFreq(newFreq, currentFng);
 1568              		.loc 1 547 0
 1569 0342 97F8BB39 		ldrb	r3, [r7, #2491]	@ zero_extendqisi2
 1570 0346 002B     		cmp	r3, #0
 1571 0348 06D0     		beq	.L91
 1572              		.loc 1 547 0 is_stmt 0 discriminator 1
 1573 034a B7F8CC39 		ldrh	r3, [r7, #2508]
 1574 034e 1846     		mov	r0, r3
 1575 0350 D7F8BC19 		ldr	r1, [r7, #2492]
 1576 0354 FFF7FEFF 		bl	setFngFreq
 1577              	.L91:
 548:.\main.c      ****                 if (shapeChanged) 
 1578              		.loc 1 548 0 is_stmt 1
 1579 0358 97F8BA39 		ldrb	r3, [r7, #2490]	@ zero_extendqisi2
 1580 035c 002B     		cmp	r3, #0
 1581 035e 71D0     		beq	.L92
 1582              	.LBB4:
 549:.\main.c      ****                 {
 550:.\main.c      ****                     char lcdBuffer[16];
 551:.\main.c      ****                     setFngShape(newShape, currentFng);
 1583              		.loc 1 551 0
 1584 0360 B7F8C839 		ldrh	r3, [r7, #2504]	@ movhi
 1585 0364 DBB2     		uxtb	r3, r3
 1586 0366 1846     		mov	r0, r3
 1587 0368 D7F8BC19 		ldr	r1, [r7, #2492]
 1588 036c FFF7FEFF 		bl	setFngShape
 552:.\main.c      ****                     LCD_Position(0, 6);
 1589              		.loc 1 552 0
 1590 0370 0020     		movs	r0, #0
 1591 0372 0621     		movs	r1, #6
 1592 0374 FFF7FEFF 		bl	LCD_Position
 553:.\main.c      ****                     switch (newShape) {
 1593              		.loc 1 553 0
 1594 0378 B7F8C839 		ldrh	r3, [r7, #2504]
 1595 037c 042B     		cmp	r3, #4
 1596 037e 5CD8     		bhi	.L93
 1597 0380 01A2     		adr	r2, .L95
ARM GAS  C:\Users\jthem\AppData\Local\Temp\ccflPXLw.s 			page 39


 1598 0382 52F823F0 		ldr	pc, [r2, r3, lsl #2]
 1599 0386 00BF     		.p2align 2
 1600              	.L95:
 1601 0388 9D030000 		.word	.L94+1
 1602 038c B7030000 		.word	.L96+1
 1603 0390 D1030000 		.word	.L97+1
 1604 0394 EB030000 		.word	.L98+1
 1605 0398 21040000 		.word	.L99+1
 1606              		.p2align 1
 1607              	.L94:
 554:.\main.c      ****                     case SQUARE:
 555:.\main.c      ****                         sprintf(lcdBuffer, "%s, %d", "Square", currentFng->id);
 1608              		.loc 1 555 0
 1609 039c D7F8BC39 		ldr	r3, [r7, #2492]
 1610 03a0 1B78     		ldrb	r3, [r3]	@ zero_extendqisi2
 1611 03a2 1C46     		mov	r4, r3
 1612 03a4 07F11403 		add	r3, r7, #20
 1613 03a8 1846     		mov	r0, r3
 1614 03aa 1849     		ldr	r1, .L104+8
 1615 03ac 184A     		ldr	r2, .L104+12
 1616 03ae 2346     		mov	r3, r4
 1617 03b0 FFF7FEFF 		bl	sprintf
 556:.\main.c      ****                         break;
 1618              		.loc 1 556 0
 1619 03b4 41E0     		b	.L93
 1620              	.L96:
 557:.\main.c      ****                     case SINE:
 558:.\main.c      ****                         sprintf(lcdBuffer, "%s, %d", "Sine", currentFng->id);
 1621              		.loc 1 558 0
 1622 03b6 D7F8BC39 		ldr	r3, [r7, #2492]
 1623 03ba 1B78     		ldrb	r3, [r3]	@ zero_extendqisi2
 1624 03bc 1C46     		mov	r4, r3
 1625 03be 07F11403 		add	r3, r7, #20
 1626 03c2 1846     		mov	r0, r3
 1627 03c4 1149     		ldr	r1, .L104+8
 1628 03c6 134A     		ldr	r2, .L104+16
 1629 03c8 2346     		mov	r3, r4
 1630 03ca FFF7FEFF 		bl	sprintf
 559:.\main.c      ****                         break;
 1631              		.loc 1 559 0
 1632 03ce 34E0     		b	.L93
 1633              	.L97:
 560:.\main.c      ****                     case TRIANGLE:
 561:.\main.c      ****                         sprintf(lcdBuffer, "%s, %d", "Triangle", currentFng->id);
 1634              		.loc 1 561 0
 1635 03d0 D7F8BC39 		ldr	r3, [r7, #2492]
 1636 03d4 1B78     		ldrb	r3, [r3]	@ zero_extendqisi2
 1637 03d6 1C46     		mov	r4, r3
 1638 03d8 07F11403 		add	r3, r7, #20
 1639 03dc 1846     		mov	r0, r3
 1640 03de 0B49     		ldr	r1, .L104+8
 1641 03e0 0D4A     		ldr	r2, .L104+20
 1642 03e2 2346     		mov	r3, r4
 1643 03e4 FFF7FEFF 		bl	sprintf
 562:.\main.c      ****                         break;
 1644              		.loc 1 562 0
 1645 03e8 27E0     		b	.L93
ARM GAS  C:\Users\jthem\AppData\Local\Temp\ccflPXLw.s 			page 40


 1646              	.L98:
 563:.\main.c      ****                     case SAWTOOTH:
 564:.\main.c      ****                         sprintf(lcdBuffer, "%s, %d", "Sawtooth", currentFng->id);
 1647              		.loc 1 564 0
 1648 03ea D7F8BC39 		ldr	r3, [r7, #2492]
 1649 03ee 1B78     		ldrb	r3, [r3]	@ zero_extendqisi2
 1650 03f0 1C46     		mov	r4, r3
 1651 03f2 07F11403 		add	r3, r7, #20
 1652 03f6 1846     		mov	r0, r3
 1653 03f8 0449     		ldr	r1, .L104+8
 1654 03fa 084A     		ldr	r2, .L104+24
 1655 03fc 2346     		mov	r3, r4
 1656 03fe FFF7FEFF 		bl	sprintf
 565:.\main.c      ****                         break;
 1657              		.loc 1 565 0
 1658 0402 1AE0     		b	.L93
 1659              	.L105:
 1660              		.align	2
 1661              	.L104:
 1662 0404 00000000 		.word	.LC0
 1663 0408 08000000 		.word	.LC1
 1664 040c 10000000 		.word	.LC2
 1665 0410 18000000 		.word	.LC3
 1666 0414 20000000 		.word	.LC4
 1667 0418 28000000 		.word	.LC5
 1668 041c 34000000 		.word	.LC6
 1669              	.L99:
 566:.\main.c      ****                     case DC:
 567:.\main.c      ****                         sprintf(lcdBuffer, "%s, %d", "DC", currentFng->id);
 1670              		.loc 1 567 0
 1671 0420 D7F8BC39 		ldr	r3, [r7, #2492]
 1672 0424 1B78     		ldrb	r3, [r3]	@ zero_extendqisi2
 1673 0426 1C46     		mov	r4, r3
 1674 0428 07F11403 		add	r3, r7, #20
 1675 042c 1846     		mov	r0, r3
 1676 042e 3849     		ldr	r1, .L106
 1677 0430 384A     		ldr	r2, .L106+4
 1678 0432 2346     		mov	r3, r4
 1679 0434 FFF7FEFF 		bl	sprintf
 568:.\main.c      ****                         break;
 1680              		.loc 1 568 0
 1681 0438 00BF     		nop
 1682              	.L93:
 569:.\main.c      ****                     }
 570:.\main.c      ****                     
 571:.\main.c      ****                     LCD_PrintString(lcdBuffer);
 1683              		.loc 1 571 0
 1684 043a 07F11403 		add	r3, r7, #20
 1685 043e 1846     		mov	r0, r3
 1686 0440 FFF7FEFF 		bl	LCD_PrintString
 1687              	.L92:
 1688              	.LBE4:
 572:.\main.c      ****                 }
 573:.\main.c      ****                 if (voltageChanged) {
 1689              		.loc 1 573 0
 1690 0444 97F8B939 		ldrb	r3, [r7, #2489]	@ zero_extendqisi2
 1691 0448 002B     		cmp	r3, #0
ARM GAS  C:\Users\jthem\AppData\Local\Temp\ccflPXLw.s 			page 41


 1692 044a 13D0     		beq	.L100
 1693              	.LBB5:
 574:.\main.c      ****                     char lcdBuffer[16];
 575:.\main.c      ****                     setFngVoltage(newVoltage, currentFng);
 1694              		.loc 1 575 0
 1695 044c B7F8CA39 		ldrh	r3, [r7, #2506]	@ movhi
 1696 0450 DBB2     		uxtb	r3, r3
 1697 0452 1846     		mov	r0, r3
 1698 0454 D7F8BC19 		ldr	r1, [r7, #2492]
 1699 0458 FFF7FEFF 		bl	setFngVoltage
 576:.\main.c      ****                     
 577:.\main.c      ****                     sprintf(lcdBuffer, "%d", newVoltage);
 1700              		.loc 1 577 0
 1701 045c B7F8CA39 		ldrh	r3, [r7, #2506]
 1702 0460 3A1D     		adds	r2, r7, #4
 1703 0462 1046     		mov	r0, r2
 1704 0464 2C49     		ldr	r1, .L106+8
 1705 0466 1A46     		mov	r2, r3
 1706 0468 FFF7FEFF 		bl	sprintf
 578:.\main.c      ****                     LCD_PrintString(lcdBuffer);
 1707              		.loc 1 578 0
 1708 046c 3B1D     		adds	r3, r7, #4
 1709 046e 1846     		mov	r0, r3
 1710 0470 FFF7FEFF 		bl	LCD_PrintString
 1711              	.L100:
 1712              	.LBE5:
 579:.\main.c      ****                     
 580:.\main.c      ****                 }
 581:.\main.c      ****                 if (pinChanged) setFngChannel(newPin, currentFng);
 1713              		.loc 1 581 0
 1714 0474 97F8B839 		ldrb	r3, [r7, #2488]	@ zero_extendqisi2
 1715 0478 002B     		cmp	r3, #0
 1716 047a 07D0     		beq	.L101
 1717              		.loc 1 581 0 is_stmt 0 discriminator 1
 1718 047c B7F8C639 		ldrh	r3, [r7, #2502]	@ movhi
 1719 0480 DBB2     		uxtb	r3, r3
 1720 0482 1846     		mov	r0, r3
 1721 0484 D7F8BC19 		ldr	r1, [r7, #2492]
 1722 0488 FFF7FEFF 		bl	setFngChannel
 1723              	.L101:
 582:.\main.c      ****                 currentCommand = ALERT;
 1724              		.loc 1 582 0 is_stmt 1
 1725 048c 0023     		movs	r3, #0
 1726 048e 87F8CF39 		strb	r3, [r7, #2511]
 583:.\main.c      ****                 
 584:.\main.c      ****                 freqChanged = 0;
 1727              		.loc 1 584 0
 1728 0492 0023     		movs	r3, #0
 1729 0494 87F8BB39 		strb	r3, [r7, #2491]
 585:.\main.c      ****                 shapeChanged = 0;
 1730              		.loc 1 585 0
 1731 0498 0023     		movs	r3, #0
 1732 049a 87F8BA39 		strb	r3, [r7, #2490]
 586:.\main.c      ****                 voltageChanged = 0;
 1733              		.loc 1 586 0
 1734 049e 0023     		movs	r3, #0
 1735 04a0 87F8B939 		strb	r3, [r7, #2489]
ARM GAS  C:\Users\jthem\AppData\Local\Temp\ccflPXLw.s 			page 42


 587:.\main.c      ****                 pinChanged = 0;
 1736              		.loc 1 587 0
 1737 04a4 0023     		movs	r3, #0
 1738 04a6 87F8B839 		strb	r3, [r7, #2488]
 588:.\main.c      **** 
 589:.\main.c      ****                 break;
 1739              		.loc 1 589 0
 1740 04aa 2CE0     		b	.L62
 1741              	.L72:
 590:.\main.c      ****             case INVALID_COMMAND:
 591:.\main.c      ****                 newFreq = 0;
 1742              		.loc 1 591 0
 1743 04ac 0023     		movs	r3, #0
 1744 04ae A7F8CC39 		strh	r3, [r7, #2508]	@ movhi
 592:.\main.c      ****                 newVoltage = 0;
 1745              		.loc 1 592 0
 1746 04b2 0023     		movs	r3, #0
 1747 04b4 A7F8CA39 		strh	r3, [r7, #2506]	@ movhi
 593:.\main.c      ****                 newShape = SQUARE;
 1748              		.loc 1 593 0
 1749 04b8 0023     		movs	r3, #0
 1750 04ba A7F8C839 		strh	r3, [r7, #2504]	@ movhi
 594:.\main.c      ****                 newPin = 0;
 1751              		.loc 1 594 0
 1752 04be 0023     		movs	r3, #0
 1753 04c0 A7F8C639 		strh	r3, [r7, #2502]	@ movhi
 595:.\main.c      ****                 newFngOrScopeId = 0;
 1754              		.loc 1 595 0
 1755 04c4 0023     		movs	r3, #0
 1756 04c6 A7F8AE39 		strh	r3, [r7, #2478]	@ movhi
 596:.\main.c      ****                 newFngOrScopeOn = 0;
 1757              		.loc 1 596 0
 1758 04ca 0023     		movs	r3, #0
 1759 04cc A7F8AC39 		strh	r3, [r7, #2476]	@ movhi
 597:.\main.c      ****                 newFngCommand = 0;
 1760              		.loc 1 597 0
 1761 04d0 0023     		movs	r3, #0
 1762 04d2 A7F8AA39 		strh	r3, [r7, #2474]	@ movhi
 598:.\main.c      ****                 newOscCommand = 0;
 1763              		.loc 1 598 0
 1764 04d6 0023     		movs	r3, #0
 1765 04d8 A7F8A839 		strh	r3, [r7, #2472]	@ movhi
 599:.\main.c      ****                 
 600:.\main.c      ****                 currentFng = NULL;
 1766              		.loc 1 600 0
 1767 04dc 0023     		movs	r3, #0
 1768 04de C7F8BC39 		str	r3, [r7, #2492]
 601:.\main.c      ****                 currentOsc = NULL;
 1769              		.loc 1 601 0
 1770 04e2 0023     		movs	r3, #0
 1771 04e4 C7F8A439 		str	r3, [r7, #2468]
 602:.\main.c      ****                 
 603:.\main.c      ****                 LED_1_Write(!LED_1_Read());
 1772              		.loc 1 603 0
 1773 04e8 FFF7FEFF 		bl	LED_1_Read
 1774 04ec 0346     		mov	r3, r0
 1775 04ee 002B     		cmp	r3, #0
ARM GAS  C:\Users\jthem\AppData\Local\Temp\ccflPXLw.s 			page 43


 1776 04f0 0CBF     		ite	eq
 1777 04f2 0123     		moveq	r3, #1
 1778 04f4 0023     		movne	r3, #0
 1779 04f6 DBB2     		uxtb	r3, r3
 1780 04f8 1846     		mov	r0, r3
 1781 04fa FFF7FEFF 		bl	LED_1_Write
 604:.\main.c      ****                 currentCommand = ALERT;
 1782              		.loc 1 604 0
 1783 04fe 0023     		movs	r3, #0
 1784 0500 87F8CF39 		strb	r3, [r7, #2511]
 605:.\main.c      ****                 break;
 1785              		.loc 1 605 0
 1786 0504 00BF     		nop
 1787              	.L62:
 606:.\main.c      ****         }
 607:.\main.c      ****         
 608:.\main.c      ****         wasDataReceived = 0;
 1788              		.loc 1 608 0
 1789 0506 0023     		movs	r3, #0
 1790 0508 87F8C339 		strb	r3, [r7, #2499]
 609:.\main.c      ****         
 610:.\main.c      ****         
 611:.\main.c      ****         
 612:.\main.c      ****         /*
 613:.\main.c      ****         // SCOPE DATA
 614:.\main.c      ****         // COMMENT THIS OUT
 615:.\main.c      **** 
 616:.\main.c      **** 
 617:.\main.c      ****         LCD_Position(0, 0);
 618:.\main.c      ****         LCD_PrintString("scope0State: ");
 619:.\main.c      ****         LCD_Position(0, 13);
 620:.\main.c      ****         LCD_PrintNumber(scope0State);
 621:.\main.c      ****         
 622:.\main.c      ****         LCD_Position(1, 0);
 623:.\main.c      ****         LCD_PrintString("Vwiper: ");
 624:.\main.c      ****         LCD_Position(1, 8);
 625:.\main.c      ****         //LCD_PrintNumber(scope0State);
 626:.\main.c      ****         
 627:.\main.c      ****          
 628:.\main.c      ****         switch (scope0State) {
 629:.\main.c      ****         case 0: break;
 630:.\main.c      ****         case 1:
 631:.\main.c      ****             scope0RawBufferStartPtr = scope0RawBufferPtr++;
 632:.\main.c      ****             scope0State = 2;
 633:.\main.c      ****             break;
 634:.\main.c      ****         case 2:
 635:.\main.c      ****             // start over again if we're going to overflow the buffer
 636:.\main.c      ****             if (scope0RawBufferPtr == scope0RawBufferStartPtr) {
 637:.\main.c      ****                 scope0State = 0;
 638:.\main.c      ****             } else {
 639:.\main.c      ****                 if (Scope0_ADC_IsEndConversion(Scope0_ADC_RETURN_STATUS)) {
 640:.\main.c      ****                     scope0RawBuffer[scope0RawBufferPtr] = Scope0_ADC_GetResult8();
 641:.\main.c      ****                     scope0RawBufferPtr++;
 642:.\main.c      ****                     if (scope0RawBufferPtr == 1200) {
 643:.\main.c      ****                         scope0RawBufferPtr = 0;   
 644:.\main.c      ****                     }
 645:.\main.c      ****                 }
ARM GAS  C:\Users\jthem\AppData\Local\Temp\ccflPXLw.s 			page 44


 646:.\main.c      ****             }
 647:.\main.c      ****             break;
 648:.\main.c      ****         case 3: {
 649:.\main.c      ****             ISR_Scope0_Comp_Disable();
 650:.\main.c      ****             int i;
 651:.\main.c      ****             int bufSize;
 652:.\main.c      ****             if (scope0RawBufferPtr < scope0RawBufferStartPtr) {
 653:.\main.c      ****                 bufSize = 1200 - (scope0RawBufferStartPtr -
 654:.\main.c      ****                                     scope0RawBufferPtr);
 655:.\main.c      ****             } else {
 656:.\main.c      ****                 bufSize = scope0RawBufferPtr - scope0RawBufferStartPtr;   
 657:.\main.c      ****             }
 658:.\main.c      ****             
 659:.\main.c      ****             scope0RawBufferPtr = scope0RawBufferStartPtr;
 660:.\main.c      ****             for (i = 0; i < bufSize; i++) {
 661:.\main.c      ****                 scope0SerialBuffer[i] = scope0RawBuffer[scope0RawBufferPtr];
 662:.\main.c      ****                 scope0RawBufferPtr++;
 663:.\main.c      ****                 if (scope0RawBufferPtr == 1200) {
 664:.\main.c      ****                     scope0RawBufferPtr = 0;   
 665:.\main.c      ****                 }
 666:.\main.c      ****             }
 667:.\main.c      ****             
 668:.\main.c      ****             scope0SerialBuffer[bufSize] = '\0';
 669:.\main.c      ****             if (USBUART_GetConfiguration()) {
 670:.\main.c      ****                 if (USBUART_CDCIsReady()) {
 671:.\main.c      ****                     char txBuf[50];
 672:.\main.c      ****                     sprintf(txBuf, "%d\r\n", bufSize);
 673:.\main.c      ****                     Serial_PutString(txBuf);
 674:.\main.c      ****                     
 675:.\main.c      ****                     Serial_PutString("Sending some ADC data...\r\n");
 676:.\main.c      ****                     USBUART_PutData((uint8*)scope0SerialBuffer, bufSize);
 677:.\main.c      ****                     Serial_PutString("Finished sending ADC data.\r\n\r\n");
 678:.\main.c      ****                     
 679:.\main.c      ****                 }
 680:.\main.c      ****             }
 681:.\main.c      ****             scope0State = 0;
 682:.\main.c      ****             ISR_Scope0_Comp_Enable();
 683:.\main.c      ****         }
 684:.\main.c      ****         }   
 685:.\main.c      ****         
 686:.\main.c      ****         */
 687:.\main.c      ****         
 688:.\main.c      ****     }
 1791              		.loc 1 688 0
 1792 050c EBE5     		b	.L102
 1793              	.L107:
 1794 050e 00BF     		.align	2
 1795              	.L106:
 1796 0510 10000000 		.word	.LC2
 1797 0514 40000000 		.word	.LC7
 1798 0518 44000000 		.word	.LC8
 1799              		.cfi_endproc
 1800              	.LFE79:
 1801              		.size	main, .-main
 1802              		.text
 1803              	.Letext0:
 1804              		.file 2 "c:\\program files (x86)\\cypress\\psoc creator\\3.3\\psoc creator\\import\\gnu\\arm\\4.9.
ARM GAS  C:\Users\jthem\AppData\Local\Temp\ccflPXLw.s 			page 45


 1805              		.file 3 "c:\\program files (x86)\\cypress\\psoc creator\\3.3\\psoc creator\\import\\gnu\\arm\\4.9.
 1806              		.file 4 "Generated_Source\\PSoC5/cytypes.h"
 1807              		.file 5 ".\\FunctionGenerator.h"
 1808              		.file 6 "Generated_Source\\PSoC5/core_cm3.h"