ARM GAS  C:\Users\jthem\AppData\Local\Temp\ccH0P0Z5.s 			page 1


   1              		.syntax unified
   2              		.cpu cortex-m3
   3              		.fpu softvfp
   4              		.eabi_attribute 20, 1
   5              		.eabi_attribute 21, 1
   6              		.eabi_attribute 23, 3
   7              		.eabi_attribute 24, 1
   8              		.eabi_attribute 25, 1
   9              		.eabi_attribute 26, 1
  10              		.eabi_attribute 30, 6
  11              		.eabi_attribute 34, 1
  12              		.eabi_attribute 18, 4
  13              		.thumb
  14              		.file	"PrISM.c"
  15              		.text
  16              	.Ltext0:
  17              		.cfi_sections	.debug_frame
  18              		.global	PrISM_initVar
  19              		.bss
  20              		.type	PrISM_initVar, %object
  21              		.size	PrISM_initVar, 1
  22              	PrISM_initVar:
  23 0000 00       		.space	1
  24              		.section	.text.PrISM_Start,"ax",%progbits
  25              		.align	2
  26              		.global	PrISM_Start
  27              		.thumb
  28              		.thumb_func
  29              		.type	PrISM_Start, %function
  30              	PrISM_Start:
  31              	.LFB0:
  32              		.file 1 ".\\Generated_Source\\PSoC5\\PrISM.c"
   1:.\Generated_Source\PSoC5/PrISM.c **** /*******************************************************************************
   2:.\Generated_Source\PSoC5/PrISM.c **** * File Name: PrISM.c
   3:.\Generated_Source\PSoC5/PrISM.c **** * Version 2.20
   4:.\Generated_Source\PSoC5/PrISM.c **** *
   5:.\Generated_Source\PSoC5/PrISM.c **** * Description:
   6:.\Generated_Source\PSoC5/PrISM.c **** *  This file provides the source code of the API for the PrISM Component.
   7:.\Generated_Source\PSoC5/PrISM.c **** *
   8:.\Generated_Source\PSoC5/PrISM.c **** * Note:
   9:.\Generated_Source\PSoC5/PrISM.c **** *  The PRiSM Component consists of a 8, 16, 24, 32 - bit PrISM, it
  10:.\Generated_Source\PSoC5/PrISM.c **** *  depends on length Polynomial value and user selected Seed Value. 
  11:.\Generated_Source\PSoC5/PrISM.c **** *
  12:.\Generated_Source\PSoC5/PrISM.c **** ********************************************************************************
  13:.\Generated_Source\PSoC5/PrISM.c **** * Copyright 2008-2012, Cypress Semiconductor Corporation.  All rights reserved.
  14:.\Generated_Source\PSoC5/PrISM.c **** * You may use this file only in accordance with the license, terms, conditions, 
  15:.\Generated_Source\PSoC5/PrISM.c **** * disclaimers, and limitations in the end user license agreement accompanying 
  16:.\Generated_Source\PSoC5/PrISM.c **** * the software package with which this file was provided.
  17:.\Generated_Source\PSoC5/PrISM.c **** *******************************************************************************/
  18:.\Generated_Source\PSoC5/PrISM.c **** 
  19:.\Generated_Source\PSoC5/PrISM.c **** #include "PrISM.h"
  20:.\Generated_Source\PSoC5/PrISM.c **** 
  21:.\Generated_Source\PSoC5/PrISM.c **** 
  22:.\Generated_Source\PSoC5/PrISM.c **** /***************************************
  23:.\Generated_Source\PSoC5/PrISM.c **** * Local data allocation
  24:.\Generated_Source\PSoC5/PrISM.c **** ***************************************/
  25:.\Generated_Source\PSoC5/PrISM.c **** 
ARM GAS  C:\Users\jthem\AppData\Local\Temp\ccH0P0Z5.s 			page 2


  26:.\Generated_Source\PSoC5/PrISM.c **** uint8 PrISM_initVar = 0u;
  27:.\Generated_Source\PSoC5/PrISM.c **** 
  28:.\Generated_Source\PSoC5/PrISM.c **** 
  29:.\Generated_Source\PSoC5/PrISM.c **** /*******************************************************************************
  30:.\Generated_Source\PSoC5/PrISM.c **** * FUNCTION NAME:   PrISM_Start
  31:.\Generated_Source\PSoC5/PrISM.c **** ********************************************************************************
  32:.\Generated_Source\PSoC5/PrISM.c **** *
  33:.\Generated_Source\PSoC5/PrISM.c **** * Summary:
  34:.\Generated_Source\PSoC5/PrISM.c **** *  The start function sets Polynomial, Seed and Pulse Density registers provided
  35:.\Generated_Source\PSoC5/PrISM.c **** *  by customizer. PrISM computation starts on rising edge of input clock.
  36:.\Generated_Source\PSoC5/PrISM.c **** *
  37:.\Generated_Source\PSoC5/PrISM.c **** * Parameters:  
  38:.\Generated_Source\PSoC5/PrISM.c **** *  None.
  39:.\Generated_Source\PSoC5/PrISM.c **** *
  40:.\Generated_Source\PSoC5/PrISM.c **** * Return:  
  41:.\Generated_Source\PSoC5/PrISM.c **** *  None.
  42:.\Generated_Source\PSoC5/PrISM.c **** *
  43:.\Generated_Source\PSoC5/PrISM.c **** * Global variables:
  44:.\Generated_Source\PSoC5/PrISM.c **** *  The PrISM_initVar variable is used to indicate initial
  45:.\Generated_Source\PSoC5/PrISM.c **** *  configuration of this component.  The variable is initialized to zero and
  46:.\Generated_Source\PSoC5/PrISM.c **** *  set to 1 the first time PrISM_Start() is called. This allows for
  47:.\Generated_Source\PSoC5/PrISM.c **** *  component initialization without re-initialization in all subsequent calls
  48:.\Generated_Source\PSoC5/PrISM.c **** *  to the PrISM_Start() routine. 
  49:.\Generated_Source\PSoC5/PrISM.c **** 
  50:.\Generated_Source\PSoC5/PrISM.c **** * Reentrant:
  51:.\Generated_Source\PSoC5/PrISM.c **** *  No.
  52:.\Generated_Source\PSoC5/PrISM.c **** *
  53:.\Generated_Source\PSoC5/PrISM.c **** *******************************************************************************/
  54:.\Generated_Source\PSoC5/PrISM.c **** void PrISM_Start(void) 
  55:.\Generated_Source\PSoC5/PrISM.c **** {
  33              		.loc 1 55 0
  34              		.cfi_startproc
  35              		@ args = 0, pretend = 0, frame = 0
  36              		@ frame_needed = 1, uses_anonymous_args = 0
  37 0000 80B5     		push	{r7, lr}
  38              		.cfi_def_cfa_offset 8
  39              		.cfi_offset 7, -8
  40              		.cfi_offset 14, -4
  41 0002 00AF     		add	r7, sp, #0
  42              		.cfi_def_cfa_register 7
  56:.\Generated_Source\PSoC5/PrISM.c ****     /* If not Initialized then initialize all required hardware and software */
  57:.\Generated_Source\PSoC5/PrISM.c ****     if(PrISM_initVar == 0u)
  43              		.loc 1 57 0
  44 0004 054B     		ldr	r3, .L3
  45 0006 1B78     		ldrb	r3, [r3]	@ zero_extendqisi2
  46 0008 002B     		cmp	r3, #0
  47 000a 04D1     		bne	.L2
  58:.\Generated_Source\PSoC5/PrISM.c ****     {
  59:.\Generated_Source\PSoC5/PrISM.c ****         PrISM_Init();
  48              		.loc 1 59 0
  49 000c FFF7FEFF 		bl	PrISM_Init
  60:.\Generated_Source\PSoC5/PrISM.c ****         PrISM_initVar = 1u;
  50              		.loc 1 60 0
  51 0010 024B     		ldr	r3, .L3
  52 0012 0122     		movs	r2, #1
  53 0014 1A70     		strb	r2, [r3]
  54              	.L2:
ARM GAS  C:\Users\jthem\AppData\Local\Temp\ccH0P0Z5.s 			page 3


  61:.\Generated_Source\PSoC5/PrISM.c ****     }
  62:.\Generated_Source\PSoC5/PrISM.c ****     PrISM_Enable();
  55              		.loc 1 62 0
  56 0016 FFF7FEFF 		bl	PrISM_Enable
  63:.\Generated_Source\PSoC5/PrISM.c **** }
  57              		.loc 1 63 0
  58 001a 80BD     		pop	{r7, pc}
  59              	.L4:
  60              		.align	2
  61              	.L3:
  62 001c 00000000 		.word	PrISM_initVar
  63              		.cfi_endproc
  64              	.LFE0:
  65              		.size	PrISM_Start, .-PrISM_Start
  66              		.section	.text.PrISM_Init,"ax",%progbits
  67              		.align	2
  68              		.global	PrISM_Init
  69              		.thumb
  70              		.thumb_func
  71              		.type	PrISM_Init, %function
  72              	PrISM_Init:
  73              	.LFB1:
  64:.\Generated_Source\PSoC5/PrISM.c **** 
  65:.\Generated_Source\PSoC5/PrISM.c **** 
  66:.\Generated_Source\PSoC5/PrISM.c **** /*******************************************************************************
  67:.\Generated_Source\PSoC5/PrISM.c **** * Function Name: PrISM_Init
  68:.\Generated_Source\PSoC5/PrISM.c **** ********************************************************************************
  69:.\Generated_Source\PSoC5/PrISM.c **** *
  70:.\Generated_Source\PSoC5/PrISM.c **** * Summary:
  71:.\Generated_Source\PSoC5/PrISM.c **** *  Initialize component's parameters to the parameters set by user in the 
  72:.\Generated_Source\PSoC5/PrISM.c **** *  customizer of the component placed onto schematic. Usually called in 
  73:.\Generated_Source\PSoC5/PrISM.c **** *  PrISM_Start().
  74:.\Generated_Source\PSoC5/PrISM.c **** *
  75:.\Generated_Source\PSoC5/PrISM.c **** * Parameters:  
  76:.\Generated_Source\PSoC5/PrISM.c **** *  None.
  77:.\Generated_Source\PSoC5/PrISM.c **** *
  78:.\Generated_Source\PSoC5/PrISM.c **** * Return: 
  79:.\Generated_Source\PSoC5/PrISM.c **** *  None.
  80:.\Generated_Source\PSoC5/PrISM.c **** *
  81:.\Generated_Source\PSoC5/PrISM.c **** *******************************************************************************/
  82:.\Generated_Source\PSoC5/PrISM.c **** void PrISM_Init(void) 
  83:.\Generated_Source\PSoC5/PrISM.c **** {
  74              		.loc 1 83 0
  75              		.cfi_startproc
  76              		@ args = 0, pretend = 0, frame = 8
  77              		@ frame_needed = 1, uses_anonymous_args = 0
  78 0000 80B5     		push	{r7, lr}
  79              		.cfi_def_cfa_offset 8
  80              		.cfi_offset 7, -8
  81              		.cfi_offset 14, -4
  82 0002 82B0     		sub	sp, sp, #8
  83              		.cfi_def_cfa_offset 16
  84 0004 00AF     		add	r7, sp, #0
  85              		.cfi_def_cfa_register 7
  84:.\Generated_Source\PSoC5/PrISM.c ****     uint8 enableInterrupts;
  85:.\Generated_Source\PSoC5/PrISM.c ****     
  86:.\Generated_Source\PSoC5/PrISM.c ****     /* Writes Seed value, polynom value and density provided by customizer */
ARM GAS  C:\Users\jthem\AppData\Local\Temp\ccH0P0Z5.s 			page 4


  87:.\Generated_Source\PSoC5/PrISM.c ****     PrISM_WriteSeed(PrISM_SEED);
  86              		.loc 1 87 0
  87 0006 40F6FF70 		movw	r0, #4095
  88 000a FFF7FEFF 		bl	PrISM_WriteSeed
  88:.\Generated_Source\PSoC5/PrISM.c ****     PrISM_WritePolynomial(PrISM_POLYNOM);
  89              		.loc 1 88 0
  90 000e 4FF44A60 		mov	r0, #3232
  91 0012 FFF7FEFF 		bl	PrISM_WritePolynomial
  89:.\Generated_Source\PSoC5/PrISM.c ****     PrISM_WritePulse0(PrISM_DENSITY0);
  92              		.loc 1 89 0
  93 0016 0120     		movs	r0, #1
  94 0018 FFF7FEFF 		bl	PrISM_WritePulse0
  90:.\Generated_Source\PSoC5/PrISM.c ****     PrISM_WritePulse1(PrISM_DENSITY1);
  95              		.loc 1 90 0
  96 001c 0120     		movs	r0, #1
  97 001e FFF7FEFF 		bl	PrISM_WritePulse1
  91:.\Generated_Source\PSoC5/PrISM.c ****     
  92:.\Generated_Source\PSoC5/PrISM.c ****     enableInterrupts = CyEnterCriticalSection();
  98              		.loc 1 92 0
  99 0022 FFF7FEFF 		bl	CyEnterCriticalSection
 100 0026 0346     		mov	r3, r0
 101 0028 FB71     		strb	r3, [r7, #7]
  93:.\Generated_Source\PSoC5/PrISM.c ****     /* Set FIFO0_CLR bit to use FIFO0 as a simple one-byte buffer*/
  94:.\Generated_Source\PSoC5/PrISM.c ****     CY_SET_REG16(PrISM_AUX_CONTROL_PTR, 
 102              		.loc 1 94 0
 103 002a 104A     		ldr	r2, .L6
 104 002c 0F4B     		ldr	r3, .L6
 105 002e 1B88     		ldrh	r3, [r3]	@ movhi
 106 0030 9BB2     		uxth	r3, r3
 107 0032 43F48073 		orr	r3, r3, #256
 108 0036 43F00103 		orr	r3, r3, #1
 109 003a 9BB2     		uxth	r3, r3
 110 003c 1380     		strh	r3, [r2]	@ movhi
  95:.\Generated_Source\PSoC5/PrISM.c ****                         CY_GET_REG16(PrISM_AUX_CONTROL_PTR) | PrISM_FIFO0_CLR);
  96:.\Generated_Source\PSoC5/PrISM.c ****     CyExitCriticalSection(enableInterrupts);
 111              		.loc 1 96 0
 112 003e FB79     		ldrb	r3, [r7, #7]	@ zero_extendqisi2
 113 0040 1846     		mov	r0, r3
 114 0042 FFF7FEFF 		bl	CyExitCriticalSection
  97:.\Generated_Source\PSoC5/PrISM.c ****     
  98:.\Generated_Source\PSoC5/PrISM.c ****     #if(!PrISM_PULSE_TYPE_HARDCODED)
  99:.\Generated_Source\PSoC5/PrISM.c ****         /* Writes density type provided by customizer */
 100:.\Generated_Source\PSoC5/PrISM.c ****         #if(PrISM_GREATERTHAN_OR_EQUAL == PrISM_COMPARE0)
 101:.\Generated_Source\PSoC5/PrISM.c ****             PrISM_CONTROL_REG |= PrISM_CTRL_COMPARE_TYPE0_GREATER_THAN_OR_EQUAL;
 102:.\Generated_Source\PSoC5/PrISM.c ****         #else
 103:.\Generated_Source\PSoC5/PrISM.c ****             PrISM_CONTROL_REG &= (uint8)~PrISM_CTRL_COMPARE_TYPE0_GREATER_THAN_OR_EQUAL;
 115              		.loc 1 103 0
 116 0046 0A4A     		ldr	r2, .L6+4
 117 0048 094B     		ldr	r3, .L6+4
 118 004a 1B78     		ldrb	r3, [r3]
 119 004c DBB2     		uxtb	r3, r3
 120 004e 23F00203 		bic	r3, r3, #2
 121 0052 DBB2     		uxtb	r3, r3
 122 0054 1370     		strb	r3, [r2]
 104:.\Generated_Source\PSoC5/PrISM.c ****         #endif /* End PrISM_COMPARE0 */    
 105:.\Generated_Source\PSoC5/PrISM.c ****     
 106:.\Generated_Source\PSoC5/PrISM.c ****         #if(PrISM_GREATERTHAN_OR_EQUAL == PrISM_COMPARE1)
ARM GAS  C:\Users\jthem\AppData\Local\Temp\ccH0P0Z5.s 			page 5


 107:.\Generated_Source\PSoC5/PrISM.c ****             PrISM_CONTROL_REG |= PrISM_CTRL_COMPARE_TYPE1_GREATER_THAN_OR_EQUAL;
 108:.\Generated_Source\PSoC5/PrISM.c ****         #else
 109:.\Generated_Source\PSoC5/PrISM.c ****             PrISM_CONTROL_REG &= (uint8)~PrISM_CTRL_COMPARE_TYPE1_GREATER_THAN_OR_EQUAL;
 123              		.loc 1 109 0
 124 0056 064A     		ldr	r2, .L6+4
 125 0058 054B     		ldr	r3, .L6+4
 126 005a 1B78     		ldrb	r3, [r3]
 127 005c DBB2     		uxtb	r3, r3
 128 005e 23F00403 		bic	r3, r3, #4
 129 0062 DBB2     		uxtb	r3, r3
 130 0064 1370     		strb	r3, [r2]
 110:.\Generated_Source\PSoC5/PrISM.c ****         #endif /* End PrISM_COMPARE1 */    
 111:.\Generated_Source\PSoC5/PrISM.c ****     #endif /* End PrISM_PULSE_TYPE_HARDCODED */
 112:.\Generated_Source\PSoC5/PrISM.c **** }
 131              		.loc 1 112 0
 132 0066 0837     		adds	r7, r7, #8
 133              		.cfi_def_cfa_offset 8
 134 0068 BD46     		mov	sp, r7
 135              		.cfi_def_cfa_register 13
 136              		@ sp needed
 137 006a 80BD     		pop	{r7, pc}
 138              	.L7:
 139              		.align	2
 140              	.L6:
 141 006c 34690040 		.word	1073768756
 142 0070 7B640040 		.word	1073767547
 143              		.cfi_endproc
 144              	.LFE1:
 145              		.size	PrISM_Init, .-PrISM_Init
 146              		.section	.text.PrISM_Enable,"ax",%progbits
 147              		.align	2
 148              		.global	PrISM_Enable
 149              		.thumb
 150              		.thumb_func
 151              		.type	PrISM_Enable, %function
 152              	PrISM_Enable:
 153              	.LFB2:
 113:.\Generated_Source\PSoC5/PrISM.c **** 
 114:.\Generated_Source\PSoC5/PrISM.c **** 
 115:.\Generated_Source\PSoC5/PrISM.c **** /*******************************************************************************
 116:.\Generated_Source\PSoC5/PrISM.c **** * Function Name: PrISM_Enable
 117:.\Generated_Source\PSoC5/PrISM.c **** ********************************************************************************
 118:.\Generated_Source\PSoC5/PrISM.c **** *  
 119:.\Generated_Source\PSoC5/PrISM.c **** * Summary: 
 120:.\Generated_Source\PSoC5/PrISM.c **** *  Enables the PrISM block operation
 121:.\Generated_Source\PSoC5/PrISM.c **** *
 122:.\Generated_Source\PSoC5/PrISM.c **** * Parameters:  
 123:.\Generated_Source\PSoC5/PrISM.c **** *  None.
 124:.\Generated_Source\PSoC5/PrISM.c **** *
 125:.\Generated_Source\PSoC5/PrISM.c **** * Return: 
 126:.\Generated_Source\PSoC5/PrISM.c **** *  None.
 127:.\Generated_Source\PSoC5/PrISM.c **** *
 128:.\Generated_Source\PSoC5/PrISM.c **** *******************************************************************************/
 129:.\Generated_Source\PSoC5/PrISM.c **** void PrISM_Enable(void) 
 130:.\Generated_Source\PSoC5/PrISM.c **** {
 154              		.loc 1 130 0
 155              		.cfi_startproc
ARM GAS  C:\Users\jthem\AppData\Local\Temp\ccH0P0Z5.s 			page 6


 156              		@ args = 0, pretend = 0, frame = 0
 157              		@ frame_needed = 1, uses_anonymous_args = 0
 158              		@ link register save eliminated.
 159 0000 80B4     		push	{r7}
 160              		.cfi_def_cfa_offset 4
 161              		.cfi_offset 7, -4
 162 0002 00AF     		add	r7, sp, #0
 163              		.cfi_def_cfa_register 7
 131:.\Generated_Source\PSoC5/PrISM.c ****     #if(!PrISM_PULSE_TYPE_HARDCODED)
 132:.\Generated_Source\PSoC5/PrISM.c ****         /* Enable the PrISM computation */
 133:.\Generated_Source\PSoC5/PrISM.c ****         PrISM_CONTROL_REG |= PrISM_CTRL_ENABLE;
 164              		.loc 1 133 0
 165 0004 054A     		ldr	r2, .L9
 166 0006 054B     		ldr	r3, .L9
 167 0008 1B78     		ldrb	r3, [r3]
 168 000a DBB2     		uxtb	r3, r3
 169 000c 43F00103 		orr	r3, r3, #1
 170 0010 DBB2     		uxtb	r3, r3
 171 0012 1370     		strb	r3, [r2]
 134:.\Generated_Source\PSoC5/PrISM.c ****     #endif /* End PrISM_PULSE_TYPE_HARDCODED */
 135:.\Generated_Source\PSoC5/PrISM.c **** }
 172              		.loc 1 135 0
 173 0014 BD46     		mov	sp, r7
 174              		.cfi_def_cfa_register 13
 175              		@ sp needed
 176 0016 5DF8047B 		ldr	r7, [sp], #4
 177              		.cfi_restore 7
 178              		.cfi_def_cfa_offset 0
 179 001a 7047     		bx	lr
 180              	.L10:
 181              		.align	2
 182              	.L9:
 183 001c 7B640040 		.word	1073767547
 184              		.cfi_endproc
 185              	.LFE2:
 186              		.size	PrISM_Enable, .-PrISM_Enable
 187              		.section	.text.PrISM_Stop,"ax",%progbits
 188              		.align	2
 189              		.global	PrISM_Stop
 190              		.thumb
 191              		.thumb_func
 192              		.type	PrISM_Stop, %function
 193              	PrISM_Stop:
 194              	.LFB3:
 136:.\Generated_Source\PSoC5/PrISM.c **** 
 137:.\Generated_Source\PSoC5/PrISM.c **** 
 138:.\Generated_Source\PSoC5/PrISM.c **** /*******************************************************************************
 139:.\Generated_Source\PSoC5/PrISM.c **** * FUNCTION NAME:   PrISM_Stop
 140:.\Generated_Source\PSoC5/PrISM.c **** ********************************************************************************
 141:.\Generated_Source\PSoC5/PrISM.c **** *
 142:.\Generated_Source\PSoC5/PrISM.c **** * Summary:
 143:.\Generated_Source\PSoC5/PrISM.c **** *  Stops PrISM computation. Outputs remain constant.
 144:.\Generated_Source\PSoC5/PrISM.c **** *
 145:.\Generated_Source\PSoC5/PrISM.c **** * Parameters:  
 146:.\Generated_Source\PSoC5/PrISM.c **** *  None.
 147:.\Generated_Source\PSoC5/PrISM.c **** *
 148:.\Generated_Source\PSoC5/PrISM.c **** * Return: 
ARM GAS  C:\Users\jthem\AppData\Local\Temp\ccH0P0Z5.s 			page 7


 149:.\Generated_Source\PSoC5/PrISM.c **** *  None.
 150:.\Generated_Source\PSoC5/PrISM.c **** *
 151:.\Generated_Source\PSoC5/PrISM.c **** *******************************************************************************/
 152:.\Generated_Source\PSoC5/PrISM.c **** void PrISM_Stop(void) 
 153:.\Generated_Source\PSoC5/PrISM.c **** {
 195              		.loc 1 153 0
 196              		.cfi_startproc
 197              		@ args = 0, pretend = 0, frame = 0
 198              		@ frame_needed = 1, uses_anonymous_args = 0
 199              		@ link register save eliminated.
 200 0000 80B4     		push	{r7}
 201              		.cfi_def_cfa_offset 4
 202              		.cfi_offset 7, -4
 203 0002 00AF     		add	r7, sp, #0
 204              		.cfi_def_cfa_register 7
 154:.\Generated_Source\PSoC5/PrISM.c ****     #if(!PrISM_PULSE_TYPE_HARDCODED)
 155:.\Generated_Source\PSoC5/PrISM.c ****         PrISM_CONTROL_REG &= (uint8)~PrISM_CTRL_ENABLE;
 205              		.loc 1 155 0
 206 0004 054A     		ldr	r2, .L12
 207 0006 054B     		ldr	r3, .L12
 208 0008 1B78     		ldrb	r3, [r3]
 209 000a DBB2     		uxtb	r3, r3
 210 000c 23F00103 		bic	r3, r3, #1
 211 0010 DBB2     		uxtb	r3, r3
 212 0012 1370     		strb	r3, [r2]
 156:.\Generated_Source\PSoC5/PrISM.c ****     #else
 157:.\Generated_Source\PSoC5/PrISM.c ****         /* PulseTypeHardoded option enabled - to stop PrISM use enable input */
 158:.\Generated_Source\PSoC5/PrISM.c ****     #endif /* End $INSTANCE_NAME`_PULSE_TYPE_HARDCODED */
 159:.\Generated_Source\PSoC5/PrISM.c **** }
 213              		.loc 1 159 0
 214 0014 BD46     		mov	sp, r7
 215              		.cfi_def_cfa_register 13
 216              		@ sp needed
 217 0016 5DF8047B 		ldr	r7, [sp], #4
 218              		.cfi_restore 7
 219              		.cfi_def_cfa_offset 0
 220 001a 7047     		bx	lr
 221              	.L13:
 222              		.align	2
 223              	.L12:
 224 001c 7B640040 		.word	1073767547
 225              		.cfi_endproc
 226              	.LFE3:
 227              		.size	PrISM_Stop, .-PrISM_Stop
 228              		.section	.text.PrISM_SetPulse0Mode,"ax",%progbits
 229              		.align	2
 230              		.global	PrISM_SetPulse0Mode
 231              		.thumb
 232              		.thumb_func
 233              		.type	PrISM_SetPulse0Mode, %function
 234              	PrISM_SetPulse0Mode:
 235              	.LFB4:
 160:.\Generated_Source\PSoC5/PrISM.c **** 
 161:.\Generated_Source\PSoC5/PrISM.c **** #if(!PrISM_PULSE_TYPE_HARDCODED)
 162:.\Generated_Source\PSoC5/PrISM.c **** 
 163:.\Generated_Source\PSoC5/PrISM.c **** 
 164:.\Generated_Source\PSoC5/PrISM.c ****     /***************************************************************************
ARM GAS  C:\Users\jthem\AppData\Local\Temp\ccH0P0Z5.s 			page 8


 165:.\Generated_Source\PSoC5/PrISM.c ****     * FUNCTION NAME:     PrISM_SetPulse0Mode
 166:.\Generated_Source\PSoC5/PrISM.c ****     ****************************************************************************
 167:.\Generated_Source\PSoC5/PrISM.c ****     *
 168:.\Generated_Source\PSoC5/PrISM.c ****     * Summary:
 169:.\Generated_Source\PSoC5/PrISM.c ****     *  Sets the pulse density type for Density0. Less than or Equal(<=) or 
 170:.\Generated_Source\PSoC5/PrISM.c ****     *  Greater than or Equal(>=).
 171:.\Generated_Source\PSoC5/PrISM.c ****     *
 172:.\Generated_Source\PSoC5/PrISM.c ****     * Parameters:
 173:.\Generated_Source\PSoC5/PrISM.c ****     *  pulse0Type: Selected pulse density type.
 174:.\Generated_Source\PSoC5/PrISM.c ****     *
 175:.\Generated_Source\PSoC5/PrISM.c ****     * Return:
 176:.\Generated_Source\PSoC5/PrISM.c ****     *  None.
 177:.\Generated_Source\PSoC5/PrISM.c ****     *
 178:.\Generated_Source\PSoC5/PrISM.c ****     ***************************************************************************/
 179:.\Generated_Source\PSoC5/PrISM.c ****     void PrISM_SetPulse0Mode(uint8 pulse0Type) 
 180:.\Generated_Source\PSoC5/PrISM.c ****     {
 236              		.loc 1 180 0
 237              		.cfi_startproc
 238              		@ args = 0, pretend = 0, frame = 8
 239              		@ frame_needed = 1, uses_anonymous_args = 0
 240              		@ link register save eliminated.
 241 0000 80B4     		push	{r7}
 242              		.cfi_def_cfa_offset 4
 243              		.cfi_offset 7, -4
 244 0002 83B0     		sub	sp, sp, #12
 245              		.cfi_def_cfa_offset 16
 246 0004 00AF     		add	r7, sp, #0
 247              		.cfi_def_cfa_register 7
 248 0006 0346     		mov	r3, r0
 249 0008 FB71     		strb	r3, [r7, #7]
 181:.\Generated_Source\PSoC5/PrISM.c ****         if(pulse0Type == PrISM_GREATERTHAN_OR_EQUAL)
 250              		.loc 1 181 0
 251 000a FB79     		ldrb	r3, [r7, #7]	@ zero_extendqisi2
 252 000c 012B     		cmp	r3, #1
 253 000e 08D1     		bne	.L15
 182:.\Generated_Source\PSoC5/PrISM.c ****         {
 183:.\Generated_Source\PSoC5/PrISM.c ****             PrISM_CONTROL_REG |= PrISM_CTRL_COMPARE_TYPE0_GREATER_THAN_OR_EQUAL;
 254              		.loc 1 183 0
 255 0010 0A4A     		ldr	r2, .L17
 256 0012 0A4B     		ldr	r3, .L17
 257 0014 1B78     		ldrb	r3, [r3]
 258 0016 DBB2     		uxtb	r3, r3
 259 0018 43F00203 		orr	r3, r3, #2
 260 001c DBB2     		uxtb	r3, r3
 261 001e 1370     		strb	r3, [r2]
 262 0020 07E0     		b	.L14
 263              	.L15:
 184:.\Generated_Source\PSoC5/PrISM.c ****         }
 185:.\Generated_Source\PSoC5/PrISM.c ****         else
 186:.\Generated_Source\PSoC5/PrISM.c ****         {
 187:.\Generated_Source\PSoC5/PrISM.c ****             PrISM_CONTROL_REG &= (uint8)~PrISM_CTRL_COMPARE_TYPE0_GREATER_THAN_OR_EQUAL;
 264              		.loc 1 187 0
 265 0022 064A     		ldr	r2, .L17
 266 0024 054B     		ldr	r3, .L17
 267 0026 1B78     		ldrb	r3, [r3]
 268 0028 DBB2     		uxtb	r3, r3
 269 002a 23F00203 		bic	r3, r3, #2
ARM GAS  C:\Users\jthem\AppData\Local\Temp\ccH0P0Z5.s 			page 9


 270 002e DBB2     		uxtb	r3, r3
 271 0030 1370     		strb	r3, [r2]
 272              	.L14:
 188:.\Generated_Source\PSoC5/PrISM.c ****         }
 189:.\Generated_Source\PSoC5/PrISM.c ****     }
 273              		.loc 1 189 0
 274 0032 0C37     		adds	r7, r7, #12
 275              		.cfi_def_cfa_offset 4
 276 0034 BD46     		mov	sp, r7
 277              		.cfi_def_cfa_register 13
 278              		@ sp needed
 279 0036 5DF8047B 		ldr	r7, [sp], #4
 280              		.cfi_restore 7
 281              		.cfi_def_cfa_offset 0
 282 003a 7047     		bx	lr
 283              	.L18:
 284              		.align	2
 285              	.L17:
 286 003c 7B640040 		.word	1073767547
 287              		.cfi_endproc
 288              	.LFE4:
 289              		.size	PrISM_SetPulse0Mode, .-PrISM_SetPulse0Mode
 290              		.section	.text.PrISM_SetPulse1Mode,"ax",%progbits
 291              		.align	2
 292              		.global	PrISM_SetPulse1Mode
 293              		.thumb
 294              		.thumb_func
 295              		.type	PrISM_SetPulse1Mode, %function
 296              	PrISM_SetPulse1Mode:
 297              	.LFB5:
 190:.\Generated_Source\PSoC5/PrISM.c ****     
 191:.\Generated_Source\PSoC5/PrISM.c ****     
 192:.\Generated_Source\PSoC5/PrISM.c ****     /***************************************************************************
 193:.\Generated_Source\PSoC5/PrISM.c ****     * FUNCTION NAME:   PrISM_SetPulse1Mode
 194:.\Generated_Source\PSoC5/PrISM.c ****     ****************************************************************************
 195:.\Generated_Source\PSoC5/PrISM.c ****     *
 196:.\Generated_Source\PSoC5/PrISM.c ****     * Summary:
 197:.\Generated_Source\PSoC5/PrISM.c ****     *  Sets the pulse density type for Density1. Less than or Equal(<=) or 
 198:.\Generated_Source\PSoC5/PrISM.c ****     *  Greater than or Equal(>=).
 199:.\Generated_Source\PSoC5/PrISM.c ****     *
 200:.\Generated_Source\PSoC5/PrISM.c ****     * Parameters:  
 201:.\Generated_Source\PSoC5/PrISM.c ****     *  pulse1Type: Selected pulse density type.
 202:.\Generated_Source\PSoC5/PrISM.c ****     *
 203:.\Generated_Source\PSoC5/PrISM.c ****     * Return:
 204:.\Generated_Source\PSoC5/PrISM.c ****     *  None.
 205:.\Generated_Source\PSoC5/PrISM.c ****     *
 206:.\Generated_Source\PSoC5/PrISM.c ****     ***************************************************************************/
 207:.\Generated_Source\PSoC5/PrISM.c ****     void PrISM_SetPulse1Mode(uint8 pulse1Type) 
 208:.\Generated_Source\PSoC5/PrISM.c ****     {
 298              		.loc 1 208 0
 299              		.cfi_startproc
 300              		@ args = 0, pretend = 0, frame = 8
 301              		@ frame_needed = 1, uses_anonymous_args = 0
 302              		@ link register save eliminated.
 303 0000 80B4     		push	{r7}
 304              		.cfi_def_cfa_offset 4
 305              		.cfi_offset 7, -4
ARM GAS  C:\Users\jthem\AppData\Local\Temp\ccH0P0Z5.s 			page 10


 306 0002 83B0     		sub	sp, sp, #12
 307              		.cfi_def_cfa_offset 16
 308 0004 00AF     		add	r7, sp, #0
 309              		.cfi_def_cfa_register 7
 310 0006 0346     		mov	r3, r0
 311 0008 FB71     		strb	r3, [r7, #7]
 209:.\Generated_Source\PSoC5/PrISM.c ****         if(pulse1Type == PrISM_GREATERTHAN_OR_EQUAL)
 312              		.loc 1 209 0
 313 000a FB79     		ldrb	r3, [r7, #7]	@ zero_extendqisi2
 314 000c 012B     		cmp	r3, #1
 315 000e 08D1     		bne	.L20
 210:.\Generated_Source\PSoC5/PrISM.c ****         {
 211:.\Generated_Source\PSoC5/PrISM.c ****             PrISM_CONTROL_REG |= PrISM_CTRL_COMPARE_TYPE1_GREATER_THAN_OR_EQUAL;
 316              		.loc 1 211 0
 317 0010 0A4A     		ldr	r2, .L22
 318 0012 0A4B     		ldr	r3, .L22
 319 0014 1B78     		ldrb	r3, [r3]
 320 0016 DBB2     		uxtb	r3, r3
 321 0018 43F00403 		orr	r3, r3, #4
 322 001c DBB2     		uxtb	r3, r3
 323 001e 1370     		strb	r3, [r2]
 324 0020 07E0     		b	.L19
 325              	.L20:
 212:.\Generated_Source\PSoC5/PrISM.c ****         }
 213:.\Generated_Source\PSoC5/PrISM.c ****         else
 214:.\Generated_Source\PSoC5/PrISM.c ****         {
 215:.\Generated_Source\PSoC5/PrISM.c ****             PrISM_CONTROL_REG &= (uint8)~PrISM_CTRL_COMPARE_TYPE1_GREATER_THAN_OR_EQUAL;
 326              		.loc 1 215 0
 327 0022 064A     		ldr	r2, .L22
 328 0024 054B     		ldr	r3, .L22
 329 0026 1B78     		ldrb	r3, [r3]
 330 0028 DBB2     		uxtb	r3, r3
 331 002a 23F00403 		bic	r3, r3, #4
 332 002e DBB2     		uxtb	r3, r3
 333 0030 1370     		strb	r3, [r2]
 334              	.L19:
 216:.\Generated_Source\PSoC5/PrISM.c ****         }
 217:.\Generated_Source\PSoC5/PrISM.c ****     }
 335              		.loc 1 217 0
 336 0032 0C37     		adds	r7, r7, #12
 337              		.cfi_def_cfa_offset 4
 338 0034 BD46     		mov	sp, r7
 339              		.cfi_def_cfa_register 13
 340              		@ sp needed
 341 0036 5DF8047B 		ldr	r7, [sp], #4
 342              		.cfi_restore 7
 343              		.cfi_def_cfa_offset 0
 344 003a 7047     		bx	lr
 345              	.L23:
 346              		.align	2
 347              	.L22:
 348 003c 7B640040 		.word	1073767547
 349              		.cfi_endproc
 350              	.LFE5:
 351              		.size	PrISM_SetPulse1Mode, .-PrISM_SetPulse1Mode
 352              		.section	.text.PrISM_ReadSeed,"ax",%progbits
 353              		.align	2
ARM GAS  C:\Users\jthem\AppData\Local\Temp\ccH0P0Z5.s 			page 11


 354              		.global	PrISM_ReadSeed
 355              		.thumb
 356              		.thumb_func
 357              		.type	PrISM_ReadSeed, %function
 358              	PrISM_ReadSeed:
 359              	.LFB6:
 218:.\Generated_Source\PSoC5/PrISM.c **** 
 219:.\Generated_Source\PSoC5/PrISM.c **** #endif /* End PrISM_PULSE_TYPE_HARDCODED == 0 */
 220:.\Generated_Source\PSoC5/PrISM.c **** 
 221:.\Generated_Source\PSoC5/PrISM.c **** 
 222:.\Generated_Source\PSoC5/PrISM.c **** /*******************************************************************************
 223:.\Generated_Source\PSoC5/PrISM.c **** * FUNCTION NAME:   PrISM_ReadSeed
 224:.\Generated_Source\PSoC5/PrISM.c **** ********************************************************************************
 225:.\Generated_Source\PSoC5/PrISM.c **** *
 226:.\Generated_Source\PSoC5/PrISM.c **** * Summary:
 227:.\Generated_Source\PSoC5/PrISM.c **** *  Reads the PrISM Seed register.
 228:.\Generated_Source\PSoC5/PrISM.c **** *
 229:.\Generated_Source\PSoC5/PrISM.c **** * Parameters:
 230:.\Generated_Source\PSoC5/PrISM.c **** *  None.
 231:.\Generated_Source\PSoC5/PrISM.c **** *
 232:.\Generated_Source\PSoC5/PrISM.c **** * Return:
 233:.\Generated_Source\PSoC5/PrISM.c **** *  Current Period register value.
 234:.\Generated_Source\PSoC5/PrISM.c **** *
 235:.\Generated_Source\PSoC5/PrISM.c **** *******************************************************************************/
 236:.\Generated_Source\PSoC5/PrISM.c **** uint16 PrISM_ReadSeed(void) 
 237:.\Generated_Source\PSoC5/PrISM.c **** {
 360              		.loc 1 237 0
 361              		.cfi_startproc
 362              		@ args = 0, pretend = 0, frame = 0
 363              		@ frame_needed = 1, uses_anonymous_args = 0
 364              		@ link register save eliminated.
 365 0000 80B4     		push	{r7}
 366              		.cfi_def_cfa_offset 4
 367              		.cfi_offset 7, -4
 368 0002 00AF     		add	r7, sp, #0
 369              		.cfi_def_cfa_register 7
 238:.\Generated_Source\PSoC5/PrISM.c ****     return( CY_GET_REG16(PrISM_SEED_PTR) );
 370              		.loc 1 238 0
 371 0004 034B     		ldr	r3, .L26
 372 0006 1B88     		ldrh	r3, [r3]	@ movhi
 373 0008 9BB2     		uxth	r3, r3
 239:.\Generated_Source\PSoC5/PrISM.c **** }
 374              		.loc 1 239 0
 375 000a 1846     		mov	r0, r3
 376 000c BD46     		mov	sp, r7
 377              		.cfi_def_cfa_register 13
 378              		@ sp needed
 379 000e 5DF8047B 		ldr	r7, [sp], #4
 380              		.cfi_restore 7
 381              		.cfi_def_cfa_offset 0
 382 0012 7047     		bx	lr
 383              	.L27:
 384              		.align	2
 385              	.L26:
 386 0014 14680040 		.word	1073768468
 387              		.cfi_endproc
 388              	.LFE6:
ARM GAS  C:\Users\jthem\AppData\Local\Temp\ccH0P0Z5.s 			page 12


 389              		.size	PrISM_ReadSeed, .-PrISM_ReadSeed
 390              		.section	.text.PrISM_WriteSeed,"ax",%progbits
 391              		.align	2
 392              		.global	PrISM_WriteSeed
 393              		.thumb
 394              		.thumb_func
 395              		.type	PrISM_WriteSeed, %function
 396              	PrISM_WriteSeed:
 397              	.LFB7:
 240:.\Generated_Source\PSoC5/PrISM.c **** 
 241:.\Generated_Source\PSoC5/PrISM.c **** 
 242:.\Generated_Source\PSoC5/PrISM.c **** /*******************************************************************************
 243:.\Generated_Source\PSoC5/PrISM.c **** * FUNCTION NAME:   PrISM_WriteSeed
 244:.\Generated_Source\PSoC5/PrISM.c **** ********************************************************************************
 245:.\Generated_Source\PSoC5/PrISM.c **** *
 246:.\Generated_Source\PSoC5/PrISM.c **** * Summary:
 247:.\Generated_Source\PSoC5/PrISM.c **** *  Writes the PrISM Seed register with the start value.
 248:.\Generated_Source\PSoC5/PrISM.c **** *
 249:.\Generated_Source\PSoC5/PrISM.c **** * Parameters:
 250:.\Generated_Source\PSoC5/PrISM.c **** *  seed: Seed register value.
 251:.\Generated_Source\PSoC5/PrISM.c **** *
 252:.\Generated_Source\PSoC5/PrISM.c **** * Return:
 253:.\Generated_Source\PSoC5/PrISM.c **** *  None.
 254:.\Generated_Source\PSoC5/PrISM.c **** *
 255:.\Generated_Source\PSoC5/PrISM.c **** *******************************************************************************/
 256:.\Generated_Source\PSoC5/PrISM.c **** void PrISM_WriteSeed(uint16 seed) 
 257:.\Generated_Source\PSoC5/PrISM.c **** {
 398              		.loc 1 257 0
 399              		.cfi_startproc
 400              		@ args = 0, pretend = 0, frame = 8
 401              		@ frame_needed = 1, uses_anonymous_args = 0
 402              		@ link register save eliminated.
 403 0000 80B4     		push	{r7}
 404              		.cfi_def_cfa_offset 4
 405              		.cfi_offset 7, -4
 406 0002 83B0     		sub	sp, sp, #12
 407              		.cfi_def_cfa_offset 16
 408 0004 00AF     		add	r7, sp, #0
 409              		.cfi_def_cfa_register 7
 410 0006 0346     		mov	r3, r0
 411 0008 FB80     		strh	r3, [r7, #6]	@ movhi
 258:.\Generated_Source\PSoC5/PrISM.c ****     if(seed != 0u)
 412              		.loc 1 258 0
 413 000a FB88     		ldrh	r3, [r7, #6]
 414 000c 002B     		cmp	r3, #0
 415 000e 05D0     		beq	.L28
 259:.\Generated_Source\PSoC5/PrISM.c ****     {
 260:.\Generated_Source\PSoC5/PrISM.c ****         CY_SET_REG16(PrISM_SEED_COPY_PTR, seed);
 416              		.loc 1 260 0
 417 0010 054A     		ldr	r2, .L30
 418 0012 FB88     		ldrh	r3, [r7, #6]	@ movhi
 419 0014 1380     		strh	r3, [r2]	@ movhi
 261:.\Generated_Source\PSoC5/PrISM.c ****         CY_SET_REG16(PrISM_SEED_PTR, seed);
 420              		.loc 1 261 0
 421 0016 054A     		ldr	r2, .L30+4
 422 0018 FB88     		ldrh	r3, [r7, #6]	@ movhi
 423 001a 1380     		strh	r3, [r2]	@ movhi
ARM GAS  C:\Users\jthem\AppData\Local\Temp\ccH0P0Z5.s 			page 13


 424              	.L28:
 262:.\Generated_Source\PSoC5/PrISM.c ****     }
 263:.\Generated_Source\PSoC5/PrISM.c **** }
 425              		.loc 1 263 0
 426 001c 0C37     		adds	r7, r7, #12
 427              		.cfi_def_cfa_offset 4
 428 001e BD46     		mov	sp, r7
 429              		.cfi_def_cfa_register 13
 430              		@ sp needed
 431 0020 5DF8047B 		ldr	r7, [sp], #4
 432              		.cfi_restore 7
 433              		.cfi_def_cfa_offset 0
 434 0024 7047     		bx	lr
 435              	.L31:
 436 0026 00BF     		.align	2
 437              	.L30:
 438 0028 94680040 		.word	1073768596
 439 002c 14680040 		.word	1073768468
 440              		.cfi_endproc
 441              	.LFE7:
 442              		.size	PrISM_WriteSeed, .-PrISM_WriteSeed
 443              		.section	.text.PrISM_ReadPolynomial,"ax",%progbits
 444              		.align	2
 445              		.global	PrISM_ReadPolynomial
 446              		.thumb
 447              		.thumb_func
 448              		.type	PrISM_ReadPolynomial, %function
 449              	PrISM_ReadPolynomial:
 450              	.LFB8:
 264:.\Generated_Source\PSoC5/PrISM.c **** 
 265:.\Generated_Source\PSoC5/PrISM.c **** 
 266:.\Generated_Source\PSoC5/PrISM.c **** /*******************************************************************************
 267:.\Generated_Source\PSoC5/PrISM.c **** * FUNCTION NAME:   PrISM_ReadPolynomial
 268:.\Generated_Source\PSoC5/PrISM.c **** ********************************************************************************
 269:.\Generated_Source\PSoC5/PrISM.c **** *
 270:.\Generated_Source\PSoC5/PrISM.c **** * Summary:
 271:.\Generated_Source\PSoC5/PrISM.c **** *  Reads the PrISM polynomial.
 272:.\Generated_Source\PSoC5/PrISM.c **** *
 273:.\Generated_Source\PSoC5/PrISM.c **** * Parameters:
 274:.\Generated_Source\PSoC5/PrISM.c **** *  None.
 275:.\Generated_Source\PSoC5/PrISM.c **** *
 276:.\Generated_Source\PSoC5/PrISM.c **** * Return:
 277:.\Generated_Source\PSoC5/PrISM.c **** *  PrISM polynomial.
 278:.\Generated_Source\PSoC5/PrISM.c **** *
 279:.\Generated_Source\PSoC5/PrISM.c **** *******************************************************************************/
 280:.\Generated_Source\PSoC5/PrISM.c **** uint16 PrISM_ReadPolynomial(void) 
 281:.\Generated_Source\PSoC5/PrISM.c **** {
 451              		.loc 1 281 0
 452              		.cfi_startproc
 453              		@ args = 0, pretend = 0, frame = 0
 454              		@ frame_needed = 1, uses_anonymous_args = 0
 455              		@ link register save eliminated.
 456 0000 80B4     		push	{r7}
 457              		.cfi_def_cfa_offset 4
 458              		.cfi_offset 7, -4
 459 0002 00AF     		add	r7, sp, #0
 460              		.cfi_def_cfa_register 7
ARM GAS  C:\Users\jthem\AppData\Local\Temp\ccH0P0Z5.s 			page 14


 282:.\Generated_Source\PSoC5/PrISM.c ****     return( CY_GET_REG16(PrISM_POLYNOM_PTR) );
 461              		.loc 1 282 0
 462 0004 034B     		ldr	r3, .L34
 463 0006 1B88     		ldrh	r3, [r3]	@ movhi
 464 0008 9BB2     		uxth	r3, r3
 283:.\Generated_Source\PSoC5/PrISM.c **** }
 465              		.loc 1 283 0
 466 000a 1846     		mov	r0, r3
 467 000c BD46     		mov	sp, r7
 468              		.cfi_def_cfa_register 13
 469              		@ sp needed
 470 000e 5DF8047B 		ldr	r7, [sp], #4
 471              		.cfi_restore 7
 472              		.cfi_def_cfa_offset 0
 473 0012 7047     		bx	lr
 474              	.L35:
 475              		.align	2
 476              	.L34:
 477 0014 34680040 		.word	1073768500
 478              		.cfi_endproc
 479              	.LFE8:
 480              		.size	PrISM_ReadPolynomial, .-PrISM_ReadPolynomial
 481              		.section	.text.PrISM_WritePolynomial,"ax",%progbits
 482              		.align	2
 483              		.global	PrISM_WritePolynomial
 484              		.thumb
 485              		.thumb_func
 486              		.type	PrISM_WritePolynomial, %function
 487              	PrISM_WritePolynomial:
 488              	.LFB9:
 284:.\Generated_Source\PSoC5/PrISM.c **** 
 285:.\Generated_Source\PSoC5/PrISM.c **** 
 286:.\Generated_Source\PSoC5/PrISM.c **** /*******************************************************************************
 287:.\Generated_Source\PSoC5/PrISM.c **** * FUNCTION NAME:   PrISM_WritePolynomial
 288:.\Generated_Source\PSoC5/PrISM.c **** ********************************************************************************
 289:.\Generated_Source\PSoC5/PrISM.c **** *
 290:.\Generated_Source\PSoC5/PrISM.c **** * Summary:
 291:.\Generated_Source\PSoC5/PrISM.c **** *  Writes the PrISM polynomial.
 292:.\Generated_Source\PSoC5/PrISM.c **** *
 293:.\Generated_Source\PSoC5/PrISM.c **** * Parameters:
 294:.\Generated_Source\PSoC5/PrISM.c **** *  polynomial: PrISM polynomial.
 295:.\Generated_Source\PSoC5/PrISM.c **** *
 296:.\Generated_Source\PSoC5/PrISM.c **** * Return:
 297:.\Generated_Source\PSoC5/PrISM.c **** *  None.
 298:.\Generated_Source\PSoC5/PrISM.c **** *
 299:.\Generated_Source\PSoC5/PrISM.c **** *******************************************************************************/
 300:.\Generated_Source\PSoC5/PrISM.c **** void PrISM_WritePolynomial(uint16 polynomial) \
 301:.\Generated_Source\PSoC5/PrISM.c ****                                                                 
 302:.\Generated_Source\PSoC5/PrISM.c **** {
 489              		.loc 1 302 0
 490              		.cfi_startproc
 491              		@ args = 0, pretend = 0, frame = 8
 492              		@ frame_needed = 1, uses_anonymous_args = 0
 493              		@ link register save eliminated.
 494 0000 80B4     		push	{r7}
 495              		.cfi_def_cfa_offset 4
 496              		.cfi_offset 7, -4
ARM GAS  C:\Users\jthem\AppData\Local\Temp\ccH0P0Z5.s 			page 15


 497 0002 83B0     		sub	sp, sp, #12
 498              		.cfi_def_cfa_offset 16
 499 0004 00AF     		add	r7, sp, #0
 500              		.cfi_def_cfa_register 7
 501 0006 0346     		mov	r3, r0
 502 0008 FB80     		strh	r3, [r7, #6]	@ movhi
 303:.\Generated_Source\PSoC5/PrISM.c ****     CY_SET_REG16(PrISM_POLYNOM_PTR, polynomial);
 503              		.loc 1 303 0
 504 000a 044A     		ldr	r2, .L37
 505 000c FB88     		ldrh	r3, [r7, #6]	@ movhi
 506 000e 1380     		strh	r3, [r2]	@ movhi
 304:.\Generated_Source\PSoC5/PrISM.c ****     
 305:.\Generated_Source\PSoC5/PrISM.c **** }
 507              		.loc 1 305 0
 508 0010 0C37     		adds	r7, r7, #12
 509              		.cfi_def_cfa_offset 4
 510 0012 BD46     		mov	sp, r7
 511              		.cfi_def_cfa_register 13
 512              		@ sp needed
 513 0014 5DF8047B 		ldr	r7, [sp], #4
 514              		.cfi_restore 7
 515              		.cfi_def_cfa_offset 0
 516 0018 7047     		bx	lr
 517              	.L38:
 518 001a 00BF     		.align	2
 519              	.L37:
 520 001c 34680040 		.word	1073768500
 521              		.cfi_endproc
 522              	.LFE9:
 523              		.size	PrISM_WritePolynomial, .-PrISM_WritePolynomial
 524              		.section	.text.PrISM_ReadPulse0,"ax",%progbits
 525              		.align	2
 526              		.global	PrISM_ReadPulse0
 527              		.thumb
 528              		.thumb_func
 529              		.type	PrISM_ReadPulse0, %function
 530              	PrISM_ReadPulse0:
 531              	.LFB10:
 306:.\Generated_Source\PSoC5/PrISM.c **** 
 307:.\Generated_Source\PSoC5/PrISM.c **** 
 308:.\Generated_Source\PSoC5/PrISM.c **** /*******************************************************************************
 309:.\Generated_Source\PSoC5/PrISM.c **** * FUNCTION NAME:   PrISM_ReadPulse0
 310:.\Generated_Source\PSoC5/PrISM.c **** ********************************************************************************
 311:.\Generated_Source\PSoC5/PrISM.c **** *
 312:.\Generated_Source\PSoC5/PrISM.c **** * Summary:
 313:.\Generated_Source\PSoC5/PrISM.c **** *  Reads the PrISM Pulse Density0 register.
 314:.\Generated_Source\PSoC5/PrISM.c **** *
 315:.\Generated_Source\PSoC5/PrISM.c **** * Parameters:
 316:.\Generated_Source\PSoC5/PrISM.c **** *  None.
 317:.\Generated_Source\PSoC5/PrISM.c **** *
 318:.\Generated_Source\PSoC5/PrISM.c **** * Return:
 319:.\Generated_Source\PSoC5/PrISM.c **** *  Pulse Density0 register value.
 320:.\Generated_Source\PSoC5/PrISM.c **** *
 321:.\Generated_Source\PSoC5/PrISM.c **** *******************************************************************************/
 322:.\Generated_Source\PSoC5/PrISM.c **** uint16 PrISM_ReadPulse0(void) 
 323:.\Generated_Source\PSoC5/PrISM.c **** {
 532              		.loc 1 323 0
ARM GAS  C:\Users\jthem\AppData\Local\Temp\ccH0P0Z5.s 			page 16


 533              		.cfi_startproc
 534              		@ args = 0, pretend = 0, frame = 0
 535              		@ frame_needed = 1, uses_anonymous_args = 0
 536              		@ link register save eliminated.
 537 0000 80B4     		push	{r7}
 538              		.cfi_def_cfa_offset 4
 539              		.cfi_offset 7, -4
 540 0002 00AF     		add	r7, sp, #0
 541              		.cfi_def_cfa_register 7
 324:.\Generated_Source\PSoC5/PrISM.c ****     return( CY_GET_REG16(PrISM_DENSITY0_PTR) );
 542              		.loc 1 324 0
 543 0004 034B     		ldr	r3, .L41
 544 0006 1B88     		ldrh	r3, [r3]	@ movhi
 545 0008 9BB2     		uxth	r3, r3
 325:.\Generated_Source\PSoC5/PrISM.c **** }
 546              		.loc 1 325 0
 547 000a 1846     		mov	r0, r3
 548 000c BD46     		mov	sp, r7
 549              		.cfi_def_cfa_register 13
 550              		@ sp needed
 551 000e 5DF8047B 		ldr	r7, [sp], #4
 552              		.cfi_restore 7
 553              		.cfi_def_cfa_offset 0
 554 0012 7047     		bx	lr
 555              	.L42:
 556              		.align	2
 557              	.L41:
 558 0014 54680040 		.word	1073768532
 559              		.cfi_endproc
 560              	.LFE10:
 561              		.size	PrISM_ReadPulse0, .-PrISM_ReadPulse0
 562              		.section	.text.PrISM_WritePulse0,"ax",%progbits
 563              		.align	2
 564              		.global	PrISM_WritePulse0
 565              		.thumb
 566              		.thumb_func
 567              		.type	PrISM_WritePulse0, %function
 568              	PrISM_WritePulse0:
 569              	.LFB11:
 326:.\Generated_Source\PSoC5/PrISM.c **** 
 327:.\Generated_Source\PSoC5/PrISM.c **** 
 328:.\Generated_Source\PSoC5/PrISM.c **** /*******************************************************************************
 329:.\Generated_Source\PSoC5/PrISM.c **** * FUNCTION NAME:   PrISM_WritePulse0
 330:.\Generated_Source\PSoC5/PrISM.c **** ********************************************************************************
 331:.\Generated_Source\PSoC5/PrISM.c **** *
 332:.\Generated_Source\PSoC5/PrISM.c **** * Summary:
 333:.\Generated_Source\PSoC5/PrISM.c **** *  Writes the PrISM Pulse Density0 register with the Pulse Density value.
 334:.\Generated_Source\PSoC5/PrISM.c **** *
 335:.\Generated_Source\PSoC5/PrISM.c **** * Parameters:
 336:.\Generated_Source\PSoC5/PrISM.c **** *  pulseDensity0: Pulse Density value.
 337:.\Generated_Source\PSoC5/PrISM.c **** *
 338:.\Generated_Source\PSoC5/PrISM.c **** * Return:
 339:.\Generated_Source\PSoC5/PrISM.c **** *  None.
 340:.\Generated_Source\PSoC5/PrISM.c **** *
 341:.\Generated_Source\PSoC5/PrISM.c **** *******************************************************************************/
 342:.\Generated_Source\PSoC5/PrISM.c **** void PrISM_WritePulse0(uint16 pulseDensity0) \
 343:.\Generated_Source\PSoC5/PrISM.c ****                                                                 
ARM GAS  C:\Users\jthem\AppData\Local\Temp\ccH0P0Z5.s 			page 17


 344:.\Generated_Source\PSoC5/PrISM.c **** {
 570              		.loc 1 344 0
 571              		.cfi_startproc
 572              		@ args = 0, pretend = 0, frame = 8
 573              		@ frame_needed = 1, uses_anonymous_args = 0
 574              		@ link register save eliminated.
 575 0000 80B4     		push	{r7}
 576              		.cfi_def_cfa_offset 4
 577              		.cfi_offset 7, -4
 578 0002 83B0     		sub	sp, sp, #12
 579              		.cfi_def_cfa_offset 16
 580 0004 00AF     		add	r7, sp, #0
 581              		.cfi_def_cfa_register 7
 582 0006 0346     		mov	r3, r0
 583 0008 FB80     		strh	r3, [r7, #6]	@ movhi
 345:.\Generated_Source\PSoC5/PrISM.c ****     CY_SET_REG16(PrISM_DENSITY0_PTR, pulseDensity0);
 584              		.loc 1 345 0
 585 000a 044A     		ldr	r2, .L44
 586 000c FB88     		ldrh	r3, [r7, #6]	@ movhi
 587 000e 1380     		strh	r3, [r2]	@ movhi
 346:.\Generated_Source\PSoC5/PrISM.c **** }
 588              		.loc 1 346 0
 589 0010 0C37     		adds	r7, r7, #12
 590              		.cfi_def_cfa_offset 4
 591 0012 BD46     		mov	sp, r7
 592              		.cfi_def_cfa_register 13
 593              		@ sp needed
 594 0014 5DF8047B 		ldr	r7, [sp], #4
 595              		.cfi_restore 7
 596              		.cfi_def_cfa_offset 0
 597 0018 7047     		bx	lr
 598              	.L45:
 599 001a 00BF     		.align	2
 600              	.L44:
 601 001c 54680040 		.word	1073768532
 602              		.cfi_endproc
 603              	.LFE11:
 604              		.size	PrISM_WritePulse0, .-PrISM_WritePulse0
 605              		.section	.text.PrISM_ReadPulse1,"ax",%progbits
 606              		.align	2
 607              		.global	PrISM_ReadPulse1
 608              		.thumb
 609              		.thumb_func
 610              		.type	PrISM_ReadPulse1, %function
 611              	PrISM_ReadPulse1:
 612              	.LFB12:
 347:.\Generated_Source\PSoC5/PrISM.c **** 
 348:.\Generated_Source\PSoC5/PrISM.c **** 
 349:.\Generated_Source\PSoC5/PrISM.c **** /*******************************************************************************
 350:.\Generated_Source\PSoC5/PrISM.c **** * FUNCTION NAME:   PrISM_ReadPulse1
 351:.\Generated_Source\PSoC5/PrISM.c **** ********************************************************************************
 352:.\Generated_Source\PSoC5/PrISM.c **** *
 353:.\Generated_Source\PSoC5/PrISM.c **** * Summary:
 354:.\Generated_Source\PSoC5/PrISM.c **** *  Reads the PrISM Pulse Density1 register.
 355:.\Generated_Source\PSoC5/PrISM.c **** *
 356:.\Generated_Source\PSoC5/PrISM.c **** * Parameters:
 357:.\Generated_Source\PSoC5/PrISM.c **** *  None.
ARM GAS  C:\Users\jthem\AppData\Local\Temp\ccH0P0Z5.s 			page 18


 358:.\Generated_Source\PSoC5/PrISM.c **** *
 359:.\Generated_Source\PSoC5/PrISM.c **** * Return:
 360:.\Generated_Source\PSoC5/PrISM.c **** *  Pulse Density1 register value.
 361:.\Generated_Source\PSoC5/PrISM.c **** *
 362:.\Generated_Source\PSoC5/PrISM.c **** *******************************************************************************/
 363:.\Generated_Source\PSoC5/PrISM.c **** uint16 PrISM_ReadPulse1(void) 
 364:.\Generated_Source\PSoC5/PrISM.c **** {
 613              		.loc 1 364 0
 614              		.cfi_startproc
 615              		@ args = 0, pretend = 0, frame = 0
 616              		@ frame_needed = 1, uses_anonymous_args = 0
 617              		@ link register save eliminated.
 618 0000 80B4     		push	{r7}
 619              		.cfi_def_cfa_offset 4
 620              		.cfi_offset 7, -4
 621 0002 00AF     		add	r7, sp, #0
 622              		.cfi_def_cfa_register 7
 365:.\Generated_Source\PSoC5/PrISM.c ****     return( CY_GET_REG16(PrISM_DENSITY1_PTR) );
 623              		.loc 1 365 0
 624 0004 034B     		ldr	r3, .L48
 625 0006 1B88     		ldrh	r3, [r3]	@ movhi
 626 0008 9BB2     		uxth	r3, r3
 366:.\Generated_Source\PSoC5/PrISM.c **** }
 627              		.loc 1 366 0
 628 000a 1846     		mov	r0, r3
 629 000c BD46     		mov	sp, r7
 630              		.cfi_def_cfa_register 13
 631              		@ sp needed
 632 000e 5DF8047B 		ldr	r7, [sp], #4
 633              		.cfi_restore 7
 634              		.cfi_def_cfa_offset 0
 635 0012 7047     		bx	lr
 636              	.L49:
 637              		.align	2
 638              	.L48:
 639 0014 74680040 		.word	1073768564
 640              		.cfi_endproc
 641              	.LFE12:
 642              		.size	PrISM_ReadPulse1, .-PrISM_ReadPulse1
 643              		.section	.text.PrISM_WritePulse1,"ax",%progbits
 644              		.align	2
 645              		.global	PrISM_WritePulse1
 646              		.thumb
 647              		.thumb_func
 648              		.type	PrISM_WritePulse1, %function
 649              	PrISM_WritePulse1:
 650              	.LFB13:
 367:.\Generated_Source\PSoC5/PrISM.c **** 
 368:.\Generated_Source\PSoC5/PrISM.c **** 
 369:.\Generated_Source\PSoC5/PrISM.c **** /*******************************************************************************
 370:.\Generated_Source\PSoC5/PrISM.c **** * FUNCTION NAME:   PrISM_WritePulse1
 371:.\Generated_Source\PSoC5/PrISM.c **** ********************************************************************************
 372:.\Generated_Source\PSoC5/PrISM.c **** *
 373:.\Generated_Source\PSoC5/PrISM.c **** * Summary:
 374:.\Generated_Source\PSoC5/PrISM.c **** *  Writes the PrISM Pulse Density1 register with the Pulse Density value.
 375:.\Generated_Source\PSoC5/PrISM.c **** *
 376:.\Generated_Source\PSoC5/PrISM.c **** * Parameters:
ARM GAS  C:\Users\jthem\AppData\Local\Temp\ccH0P0Z5.s 			page 19


 377:.\Generated_Source\PSoC5/PrISM.c **** *  pulseDensity1: Pulse Density value.
 378:.\Generated_Source\PSoC5/PrISM.c **** *
 379:.\Generated_Source\PSoC5/PrISM.c **** * Return:
 380:.\Generated_Source\PSoC5/PrISM.c **** *  None.
 381:.\Generated_Source\PSoC5/PrISM.c **** *
 382:.\Generated_Source\PSoC5/PrISM.c **** *******************************************************************************/
 383:.\Generated_Source\PSoC5/PrISM.c **** void PrISM_WritePulse1(uint16 pulseDensity1) \
 384:.\Generated_Source\PSoC5/PrISM.c ****                                                                     
 385:.\Generated_Source\PSoC5/PrISM.c **** {
 651              		.loc 1 385 0
 652              		.cfi_startproc
 653              		@ args = 0, pretend = 0, frame = 8
 654              		@ frame_needed = 1, uses_anonymous_args = 0
 655              		@ link register save eliminated.
 656 0000 80B4     		push	{r7}
 657              		.cfi_def_cfa_offset 4
 658              		.cfi_offset 7, -4
 659 0002 83B0     		sub	sp, sp, #12
 660              		.cfi_def_cfa_offset 16
 661 0004 00AF     		add	r7, sp, #0
 662              		.cfi_def_cfa_register 7
 663 0006 0346     		mov	r3, r0
 664 0008 FB80     		strh	r3, [r7, #6]	@ movhi
 386:.\Generated_Source\PSoC5/PrISM.c ****     CY_SET_REG16(PrISM_DENSITY1_PTR, pulseDensity1);
 665              		.loc 1 386 0
 666 000a 044A     		ldr	r2, .L51
 667 000c FB88     		ldrh	r3, [r7, #6]	@ movhi
 668 000e 1380     		strh	r3, [r2]	@ movhi
 387:.\Generated_Source\PSoC5/PrISM.c **** }
 669              		.loc 1 387 0
 670 0010 0C37     		adds	r7, r7, #12
 671              		.cfi_def_cfa_offset 4
 672 0012 BD46     		mov	sp, r7
 673              		.cfi_def_cfa_register 13
 674              		@ sp needed
 675 0014 5DF8047B 		ldr	r7, [sp], #4
 676              		.cfi_restore 7
 677              		.cfi_def_cfa_offset 0
 678 0018 7047     		bx	lr
 679              	.L52:
 680 001a 00BF     		.align	2
 681              	.L51:
 682 001c 74680040 		.word	1073768564
 683              		.cfi_endproc
 684              	.LFE13:
 685              		.size	PrISM_WritePulse1, .-PrISM_WritePulse1
 686              		.text
 687              	.Letext0:
 688              		.file 2 ".\\Generated_Source\\PSoC5\\cytypes.h"