ARM GAS  C:\Users\jthem\AppData\Local\Temp\ccuWctOy.s 			page 1


   1              		.syntax unified
   2              		.cpu cortex-m3
   3              		.fpu softvfp
   4              		.eabi_attribute 20, 1
   5              		.eabi_attribute 21, 1
   6              		.eabi_attribute 23, 3
   7              		.eabi_attribute 24, 1
   8              		.eabi_attribute 25, 1
   9              		.eabi_attribute 26, 1
  10              		.eabi_attribute 30, 6
  11              		.eabi_attribute 34, 1
  12              		.eabi_attribute 18, 4
  13              		.thumb
  14              		.file	"Serial.c"
  15              		.text
  16              	.Ltext0:
  17              		.cfi_sections	.debug_frame
  18              		.section	.text.Serial_PutString,"ax",%progbits
  19              		.align	2
  20              		.global	Serial_PutString
  21              		.thumb
  22              		.thumb_func
  23              		.type	Serial_PutString, %function
  24              	Serial_PutString:
  25              	.LFB0:
  26              		.file 1 ".\\Serial.c"
   1:.\Serial.c    **** /* ========================================
   2:.\Serial.c    ****  *
   3:.\Serial.c    ****  * Copyright 2016 John Harkins and Li He
   4:.\Serial.c    ****  * All Rights Reserved
   5:.\Serial.c    ****  *
   6:.\Serial.c    ****  * ========================================
   7:.\Serial.c    **** */
   8:.\Serial.c    **** 
   9:.\Serial.c    **** #include "serial.h"
  10:.\Serial.c    **** 
  11:.\Serial.c    **** extern int USBUART_GetChar();
  12:.\Serial.c    **** extern void USBUART_PutString(char *str);
  13:.\Serial.c    **** extern int USBUART_DataIsReady();
  14:.\Serial.c    **** extern int USBUART_CDCIsReady();
  15:.\Serial.c    **** extern int USBUART_GetConfiguration();
  16:.\Serial.c    **** 
  17:.\Serial.c    **** 
  18:.\Serial.c    **** /*******************************************************************************
  19:.\Serial.c    **** * Function Name: Serial_PutString
  20:.\Serial.c    **** ********************************************************************************
  21:.\Serial.c    **** *
  22:.\Serial.c    **** * Summary
  23:.\Serial.c    **** *  Sends data from str via USB UART to the host.
  24:.\Serial.c    **** *
  25:.\Serial.c    **** * Parameters:
  26:.\Serial.c    **** *  str - a string to be sent
  27:.\Serial.c    **** *
  28:.\Serial.c    **** * Return:
  29:.\Serial.c    **** *  None.
  30:.\Serial.c    **** *
  31:.\Serial.c    **** *******************************************************************************/
ARM GAS  C:\Users\jthem\AppData\Local\Temp\ccuWctOy.s 			page 2


  32:.\Serial.c    **** void Serial_PutString(char *str)
  33:.\Serial.c    **** {
  27              		.loc 1 33 0
  28              		.cfi_startproc
  29              		@ args = 0, pretend = 0, frame = 8
  30              		@ frame_needed = 1, uses_anonymous_args = 0
  31 0000 80B5     		push	{r7, lr}
  32              		.cfi_def_cfa_offset 8
  33              		.cfi_offset 7, -8
  34              		.cfi_offset 14, -4
  35 0002 82B0     		sub	sp, sp, #8
  36              		.cfi_def_cfa_offset 16
  37 0004 00AF     		add	r7, sp, #0
  38              		.cfi_def_cfa_register 7
  39 0006 7860     		str	r0, [r7, #4]
  34:.\Serial.c    ****     while (!USBUART_CDCIsReady());
  40              		.loc 1 34 0
  41 0008 00BF     		nop
  42              	.L2:
  43              		.loc 1 34 0 is_stmt 0 discriminator 1
  44 000a FFF7FEFF 		bl	USBUART_CDCIsReady
  45 000e 0346     		mov	r3, r0
  46 0010 002B     		cmp	r3, #0
  47 0012 FAD0     		beq	.L2
  35:.\Serial.c    ****     USBUART_PutString(str);
  48              		.loc 1 35 0 is_stmt 1
  49 0014 7868     		ldr	r0, [r7, #4]
  50 0016 FFF7FEFF 		bl	USBUART_PutString
  36:.\Serial.c    **** }
  51              		.loc 1 36 0
  52 001a 0837     		adds	r7, r7, #8
  53              		.cfi_def_cfa_offset 8
  54 001c BD46     		mov	sp, r7
  55              		.cfi_def_cfa_register 13
  56              		@ sp needed
  57 001e 80BD     		pop	{r7, pc}
  58              		.cfi_endproc
  59              	.LFE0:
  60              		.size	Serial_PutString, .-Serial_PutString
  61              		.section	.text.Serial_GetString,"ax",%progbits
  62              		.align	2
  63              		.global	Serial_GetString
  64              		.thumb
  65              		.thumb_func
  66              		.type	Serial_GetString, %function
  67              	Serial_GetString:
  68              	.LFB1:
  37:.\Serial.c    **** 
  38:.\Serial.c    **** 
  39:.\Serial.c    **** /*******************************************************************************
  40:.\Serial.c    **** * Function Name: Serial_GetString
  41:.\Serial.c    **** ********************************************************************************
  42:.\Serial.c    **** *
  43:.\Serial.c    **** * Summary
  44:.\Serial.c    **** *  Reads data from USB UART into str
  45:.\Serial.c    **** *
  46:.\Serial.c    **** * Parameters:
ARM GAS  C:\Users\jthem\AppData\Local\Temp\ccuWctOy.s 			page 3


  47:.\Serial.c    **** *  str - the buffer to be read into
  48:.\Serial.c    **** *
  49:.\Serial.c    **** * Return:
  50:.\Serial.c    **** *  None.
  51:.\Serial.c    **** *
  52:.\Serial.c    **** *******************************************************************************/
  53:.\Serial.c    **** void Serial_GetString(char *str)
  54:.\Serial.c    **** {
  69              		.loc 1 54 0
  70              		.cfi_startproc
  71              		@ args = 0, pretend = 0, frame = 16
  72              		@ frame_needed = 1, uses_anonymous_args = 0
  73 0000 80B5     		push	{r7, lr}
  74              		.cfi_def_cfa_offset 8
  75              		.cfi_offset 7, -8
  76              		.cfi_offset 14, -4
  77 0002 84B0     		sub	sp, sp, #16
  78              		.cfi_def_cfa_offset 24
  79 0004 00AF     		add	r7, sp, #0
  80              		.cfi_def_cfa_register 7
  81 0006 7860     		str	r0, [r7, #4]
  55:.\Serial.c    ****     int count = 0;
  82              		.loc 1 55 0
  83 0008 0023     		movs	r3, #0
  84 000a FB60     		str	r3, [r7, #12]
  85              	.L7:
  86              	.LBB2:
  56:.\Serial.c    ****     while (1) {
  57:.\Serial.c    ****         while (!USBUART_DataIsReady());
  87              		.loc 1 57 0
  88 000c 00BF     		nop
  89              	.L4:
  90              		.loc 1 57 0 is_stmt 0 discriminator 1
  91 000e FFF7FEFF 		bl	USBUART_DataIsReady
  92 0012 0346     		mov	r3, r0
  93 0014 002B     		cmp	r3, #0
  94 0016 FAD0     		beq	.L4
  58:.\Serial.c    ****         char c = USBUART_GetChar();
  95              		.loc 1 58 0 is_stmt 1
  96 0018 FFF7FEFF 		bl	USBUART_GetChar
  97 001c 0346     		mov	r3, r0
  98 001e FB72     		strb	r3, [r7, #11]
  59:.\Serial.c    ****         str[count] = c;
  99              		.loc 1 59 0
 100 0020 FB68     		ldr	r3, [r7, #12]
 101 0022 7A68     		ldr	r2, [r7, #4]
 102 0024 1344     		add	r3, r3, r2
 103 0026 FA7A     		ldrb	r2, [r7, #11]
 104 0028 1A70     		strb	r2, [r3]
  60:.\Serial.c    ****         
  61:.\Serial.c    ****         if (c == '\r') { // hit newline
 105              		.loc 1 61 0
 106 002a FB7A     		ldrb	r3, [r7, #11]	@ zero_extendqisi2
 107 002c 0D2B     		cmp	r3, #13
 108 002e 06D1     		bne	.L5
  62:.\Serial.c    ****             str[count + 1] = '\0'; // add null terminator
 109              		.loc 1 62 0
ARM GAS  C:\Users\jthem\AppData\Local\Temp\ccuWctOy.s 			page 4


 110 0030 FB68     		ldr	r3, [r7, #12]
 111 0032 0133     		adds	r3, r3, #1
 112 0034 7A68     		ldr	r2, [r7, #4]
 113 0036 1344     		add	r3, r3, r2
 114 0038 0022     		movs	r2, #0
 115 003a 1A70     		strb	r2, [r3]
  63:.\Serial.c    ****             return;
 116              		.loc 1 63 0
 117 003c 03E0     		b	.L8
 118              	.L5:
  64:.\Serial.c    ****         }
  65:.\Serial.c    ****         count++;
 119              		.loc 1 65 0
 120 003e FB68     		ldr	r3, [r7, #12]
 121 0040 0133     		adds	r3, r3, #1
 122 0042 FB60     		str	r3, [r7, #12]
 123              	.LBE2:
  66:.\Serial.c    ****     }
 124              		.loc 1 66 0
 125 0044 E2E7     		b	.L7
 126              	.L8:
  67:.\Serial.c    **** }
 127              		.loc 1 67 0
 128 0046 1037     		adds	r7, r7, #16
 129              		.cfi_def_cfa_offset 8
 130 0048 BD46     		mov	sp, r7
 131              		.cfi_def_cfa_register 13
 132              		@ sp needed
 133 004a 80BD     		pop	{r7, pc}
 134              		.cfi_endproc
 135              	.LFE1:
 136              		.size	Serial_GetString, .-Serial_GetString
 137              		.text
 138              	.Letext0: