ARM GAS  C:\Users\jthem\AppData\Local\Temp\cccoUQnd.s 			page 1


   1              		.syntax unified
   2              		.cpu cortex-m3
   3              		.fpu softvfp
   4              		.eabi_attribute 20, 1
   5              		.eabi_attribute 21, 1
   6              		.eabi_attribute 23, 3
   7              		.eabi_attribute 24, 1
   8              		.eabi_attribute 25, 1
   9              		.eabi_attribute 26, 1
  10              		.eabi_attribute 30, 6
  11              		.eabi_attribute 34, 1
  12              		.eabi_attribute 18, 4
  13              		.thumb
  14              		.file	"WaveDAC_0_Low_IDAC8.c"
  15              		.text
  16              	.Ltext0:
  17              		.cfi_sections	.debug_frame
  18              		.global	WaveDAC_0_Low_IDAC8_initVar
  19              		.bss
  20              		.type	WaveDAC_0_Low_IDAC8_initVar, %object
  21              		.size	WaveDAC_0_Low_IDAC8_initVar, 1
  22              	WaveDAC_0_Low_IDAC8_initVar:
  23 0000 00       		.space	1
  24              		.section	.text.WaveDAC_0_Low_IDAC8_Init,"ax",%progbits
  25              		.align	2
  26              		.global	WaveDAC_0_Low_IDAC8_Init
  27              		.thumb
  28              		.thumb_func
  29              		.type	WaveDAC_0_Low_IDAC8_Init, %function
  30              	WaveDAC_0_Low_IDAC8_Init:
  31              	.LFB0:
  32              		.file 1 ".\\Generated_Source\\PSoC5\\WaveDAC_0_Low_IDAC8.c"
   1:.\Generated_Source\PSoC5/WaveDAC_0_Low_IDAC8.c **** /*******************************************************************************
   2:.\Generated_Source\PSoC5/WaveDAC_0_Low_IDAC8.c **** * File Name: WaveDAC_0_Low_IDAC8.c
   3:.\Generated_Source\PSoC5/WaveDAC_0_Low_IDAC8.c **** * Version 2.0
   4:.\Generated_Source\PSoC5/WaveDAC_0_Low_IDAC8.c **** *
   5:.\Generated_Source\PSoC5/WaveDAC_0_Low_IDAC8.c **** * Description:
   6:.\Generated_Source\PSoC5/WaveDAC_0_Low_IDAC8.c **** *  This file provides the source code to the API for the 8-bit Current 
   7:.\Generated_Source\PSoC5/WaveDAC_0_Low_IDAC8.c **** *  DAC (IDAC8) User Module.
   8:.\Generated_Source\PSoC5/WaveDAC_0_Low_IDAC8.c **** *
   9:.\Generated_Source\PSoC5/WaveDAC_0_Low_IDAC8.c **** * Note:
  10:.\Generated_Source\PSoC5/WaveDAC_0_Low_IDAC8.c **** *  None
  11:.\Generated_Source\PSoC5/WaveDAC_0_Low_IDAC8.c **** *
  12:.\Generated_Source\PSoC5/WaveDAC_0_Low_IDAC8.c **** ********************************************************************************
  13:.\Generated_Source\PSoC5/WaveDAC_0_Low_IDAC8.c **** * Copyright 2008-2012, Cypress Semiconductor Corporation.  All rights reserved.
  14:.\Generated_Source\PSoC5/WaveDAC_0_Low_IDAC8.c **** * You may use this file only in accordance with the license, terms, conditions, 
  15:.\Generated_Source\PSoC5/WaveDAC_0_Low_IDAC8.c **** * disclaimers, and limitations in the end user license agreement accompanying 
  16:.\Generated_Source\PSoC5/WaveDAC_0_Low_IDAC8.c **** * the software package with which this file was provided.
  17:.\Generated_Source\PSoC5/WaveDAC_0_Low_IDAC8.c **** *******************************************************************************/
  18:.\Generated_Source\PSoC5/WaveDAC_0_Low_IDAC8.c **** 
  19:.\Generated_Source\PSoC5/WaveDAC_0_Low_IDAC8.c **** #include "cytypes.h"
  20:.\Generated_Source\PSoC5/WaveDAC_0_Low_IDAC8.c **** #include "WaveDAC_0_Low_IDAC8.h"   
  21:.\Generated_Source\PSoC5/WaveDAC_0_Low_IDAC8.c **** 
  22:.\Generated_Source\PSoC5/WaveDAC_0_Low_IDAC8.c **** #if (CY_PSOC5A)
  23:.\Generated_Source\PSoC5/WaveDAC_0_Low_IDAC8.c ****     #include <CyLib.h>
  24:.\Generated_Source\PSoC5/WaveDAC_0_Low_IDAC8.c **** #endif /* CY_PSOC5A */
  25:.\Generated_Source\PSoC5/WaveDAC_0_Low_IDAC8.c **** 
ARM GAS  C:\Users\jthem\AppData\Local\Temp\cccoUQnd.s 			page 2


  26:.\Generated_Source\PSoC5/WaveDAC_0_Low_IDAC8.c **** 
  27:.\Generated_Source\PSoC5/WaveDAC_0_Low_IDAC8.c **** uint8 WaveDAC_0_Low_IDAC8_initVar = 0u;
  28:.\Generated_Source\PSoC5/WaveDAC_0_Low_IDAC8.c **** 
  29:.\Generated_Source\PSoC5/WaveDAC_0_Low_IDAC8.c **** 
  30:.\Generated_Source\PSoC5/WaveDAC_0_Low_IDAC8.c **** #if (CY_PSOC5A)
  31:.\Generated_Source\PSoC5/WaveDAC_0_Low_IDAC8.c ****     static WaveDAC_0_Low_IDAC8_LOWPOWER_BACKUP_STRUCT  WaveDAC_0_Low_IDAC8_lowPowerBackup;
  32:.\Generated_Source\PSoC5/WaveDAC_0_Low_IDAC8.c **** #endif /* CY_PSOC5A */
  33:.\Generated_Source\PSoC5/WaveDAC_0_Low_IDAC8.c **** 
  34:.\Generated_Source\PSoC5/WaveDAC_0_Low_IDAC8.c **** /* Variable to decide whether or not to restore control register in Enable()
  35:.\Generated_Source\PSoC5/WaveDAC_0_Low_IDAC8.c ****    API. This valid only for PSoC5A */
  36:.\Generated_Source\PSoC5/WaveDAC_0_Low_IDAC8.c **** #if (CY_PSOC5A)
  37:.\Generated_Source\PSoC5/WaveDAC_0_Low_IDAC8.c ****     static uint8 WaveDAC_0_Low_IDAC8_restoreReg = 0u;
  38:.\Generated_Source\PSoC5/WaveDAC_0_Low_IDAC8.c **** #endif /* CY_PSOC5A */
  39:.\Generated_Source\PSoC5/WaveDAC_0_Low_IDAC8.c **** 
  40:.\Generated_Source\PSoC5/WaveDAC_0_Low_IDAC8.c **** 
  41:.\Generated_Source\PSoC5/WaveDAC_0_Low_IDAC8.c **** /*******************************************************************************
  42:.\Generated_Source\PSoC5/WaveDAC_0_Low_IDAC8.c **** * Function Name: WaveDAC_0_Low_IDAC8_Init
  43:.\Generated_Source\PSoC5/WaveDAC_0_Low_IDAC8.c **** ********************************************************************************
  44:.\Generated_Source\PSoC5/WaveDAC_0_Low_IDAC8.c **** * Summary:
  45:.\Generated_Source\PSoC5/WaveDAC_0_Low_IDAC8.c **** *  Initialize to the schematic state.
  46:.\Generated_Source\PSoC5/WaveDAC_0_Low_IDAC8.c **** * 
  47:.\Generated_Source\PSoC5/WaveDAC_0_Low_IDAC8.c **** * Parameters:
  48:.\Generated_Source\PSoC5/WaveDAC_0_Low_IDAC8.c **** *  void:
  49:.\Generated_Source\PSoC5/WaveDAC_0_Low_IDAC8.c **** *
  50:.\Generated_Source\PSoC5/WaveDAC_0_Low_IDAC8.c **** * Return:
  51:.\Generated_Source\PSoC5/WaveDAC_0_Low_IDAC8.c **** *  (void)
  52:.\Generated_Source\PSoC5/WaveDAC_0_Low_IDAC8.c **** *
  53:.\Generated_Source\PSoC5/WaveDAC_0_Low_IDAC8.c **** * Theory:
  54:.\Generated_Source\PSoC5/WaveDAC_0_Low_IDAC8.c **** *
  55:.\Generated_Source\PSoC5/WaveDAC_0_Low_IDAC8.c **** * Side Effects:
  56:.\Generated_Source\PSoC5/WaveDAC_0_Low_IDAC8.c **** *
  57:.\Generated_Source\PSoC5/WaveDAC_0_Low_IDAC8.c **** *******************************************************************************/
  58:.\Generated_Source\PSoC5/WaveDAC_0_Low_IDAC8.c **** void WaveDAC_0_Low_IDAC8_Init(void) 
  59:.\Generated_Source\PSoC5/WaveDAC_0_Low_IDAC8.c **** {
  33              		.loc 1 59 0
  34              		.cfi_startproc
  35              		@ args = 0, pretend = 0, frame = 0
  36              		@ frame_needed = 1, uses_anonymous_args = 0
  37 0000 80B5     		push	{r7, lr}
  38              		.cfi_def_cfa_offset 8
  39              		.cfi_offset 7, -8
  40              		.cfi_offset 14, -4
  41 0002 00AF     		add	r7, sp, #0
  42              		.cfi_def_cfa_register 7
  60:.\Generated_Source\PSoC5/WaveDAC_0_Low_IDAC8.c ****     WaveDAC_0_Low_IDAC8_CR0 = (WaveDAC_0_Low_IDAC8_MODE_I | WaveDAC_0_Low_IDAC8_DEFAULT_RANGE );
  43              		.loc 1 60 0
  44 0004 0D4B     		ldr	r3, .L2
  45 0006 1022     		movs	r2, #16
  46 0008 1A70     		strb	r2, [r3]
  61:.\Generated_Source\PSoC5/WaveDAC_0_Low_IDAC8.c **** 
  62:.\Generated_Source\PSoC5/WaveDAC_0_Low_IDAC8.c ****     /* Set default data source */
  63:.\Generated_Source\PSoC5/WaveDAC_0_Low_IDAC8.c ****     #if(WaveDAC_0_Low_IDAC8_DEFAULT_DATA_SRC != 0u )    
  64:.\Generated_Source\PSoC5/WaveDAC_0_Low_IDAC8.c ****         WaveDAC_0_Low_IDAC8_CR1 = (WaveDAC_0_Low_IDAC8_DEFAULT_CNTL | WaveDAC_0_Low_IDAC8_DACBUS_EN
  65:.\Generated_Source\PSoC5/WaveDAC_0_Low_IDAC8.c ****     #else
  66:.\Generated_Source\PSoC5/WaveDAC_0_Low_IDAC8.c ****         WaveDAC_0_Low_IDAC8_CR1 = (WaveDAC_0_Low_IDAC8_DEFAULT_CNTL | WaveDAC_0_Low_IDAC8_DACBUS_DI
  47              		.loc 1 66 0
  48 000a 0D4B     		ldr	r3, .L2+4
ARM GAS  C:\Users\jthem\AppData\Local\Temp\cccoUQnd.s 			page 3


  49 000c 0022     		movs	r2, #0
  50 000e 1A70     		strb	r2, [r3]
  67:.\Generated_Source\PSoC5/WaveDAC_0_Low_IDAC8.c ****     #endif /* (WaveDAC_0_Low_IDAC8_DEFAULT_DATA_SRC != 0u ) */
  68:.\Generated_Source\PSoC5/WaveDAC_0_Low_IDAC8.c ****     
  69:.\Generated_Source\PSoC5/WaveDAC_0_Low_IDAC8.c ****     /*Controls polarity from UDB Control*/
  70:.\Generated_Source\PSoC5/WaveDAC_0_Low_IDAC8.c ****     #if(WaveDAC_0_Low_IDAC8_DEFAULT_POLARITY == WaveDAC_0_Low_IDAC8_HARDWARE_CONTROLLED)
  71:.\Generated_Source\PSoC5/WaveDAC_0_Low_IDAC8.c ****         WaveDAC_0_Low_IDAC8_CR1 |= WaveDAC_0_Low_IDAC8_IDIR_SRC_UDB;
  72:.\Generated_Source\PSoC5/WaveDAC_0_Low_IDAC8.c ****     #else
  73:.\Generated_Source\PSoC5/WaveDAC_0_Low_IDAC8.c ****         WaveDAC_0_Low_IDAC8_CR1 |= WaveDAC_0_Low_IDAC8_DEFAULT_POLARITY;
  51              		.loc 1 73 0
  52 0010 0B4A     		ldr	r2, .L2+4
  53 0012 0B4B     		ldr	r3, .L2+4
  54 0014 1B78     		ldrb	r3, [r3]
  55 0016 DBB2     		uxtb	r3, r3
  56 0018 43F00403 		orr	r3, r3, #4
  57 001c DBB2     		uxtb	r3, r3
  58 001e 1370     		strb	r3, [r2]
  74:.\Generated_Source\PSoC5/WaveDAC_0_Low_IDAC8.c ****     #endif/* (WaveDAC_0_Low_IDAC8_DEFAULT_POLARITY == WaveDAC_0_Low_IDAC8_HARDWARE_CONTROLLED) */
  75:.\Generated_Source\PSoC5/WaveDAC_0_Low_IDAC8.c ****     /*Controls Current Source from UDB Control*/
  76:.\Generated_Source\PSoC5/WaveDAC_0_Low_IDAC8.c ****     #if(WaveDAC_0_Low_IDAC8_HARDWARE_ENABLE != 0u ) 
  77:.\Generated_Source\PSoC5/WaveDAC_0_Low_IDAC8.c ****         WaveDAC_0_Low_IDAC8_CR1 |= WaveDAC_0_Low_IDAC8_IDIR_CTL_UDB;
  78:.\Generated_Source\PSoC5/WaveDAC_0_Low_IDAC8.c ****     #endif /* (WaveDAC_0_Low_IDAC8_HARDWARE_ENABLE != 0u ) */ 
  79:.\Generated_Source\PSoC5/WaveDAC_0_Low_IDAC8.c ****     
  80:.\Generated_Source\PSoC5/WaveDAC_0_Low_IDAC8.c ****     /* Set default strobe mode */
  81:.\Generated_Source\PSoC5/WaveDAC_0_Low_IDAC8.c ****     #if(WaveDAC_0_Low_IDAC8_DEFAULT_STRB != 0u)
  82:.\Generated_Source\PSoC5/WaveDAC_0_Low_IDAC8.c ****         WaveDAC_0_Low_IDAC8_Strobe |= WaveDAC_0_Low_IDAC8_STRB_EN;
  59              		.loc 1 82 0
  60 0020 084A     		ldr	r2, .L2+8
  61 0022 084B     		ldr	r3, .L2+8
  62 0024 1B78     		ldrb	r3, [r3]
  63 0026 DBB2     		uxtb	r3, r3
  64 0028 43F00803 		orr	r3, r3, #8
  65 002c DBB2     		uxtb	r3, r3
  66 002e 1370     		strb	r3, [r2]
  83:.\Generated_Source\PSoC5/WaveDAC_0_Low_IDAC8.c ****     #endif /* (WaveDAC_0_Low_IDAC8_DEFAULT_STRB != 0u) */
  84:.\Generated_Source\PSoC5/WaveDAC_0_Low_IDAC8.c ****     
  85:.\Generated_Source\PSoC5/WaveDAC_0_Low_IDAC8.c ****     /* Set default speed */
  86:.\Generated_Source\PSoC5/WaveDAC_0_Low_IDAC8.c ****     WaveDAC_0_Low_IDAC8_SetSpeed(WaveDAC_0_Low_IDAC8_DEFAULT_SPEED);
  67              		.loc 1 86 0
  68 0030 0220     		movs	r0, #2
  69 0032 FFF7FEFF 		bl	WaveDAC_0_Low_IDAC8_SetSpeed
  87:.\Generated_Source\PSoC5/WaveDAC_0_Low_IDAC8.c ****     
  88:.\Generated_Source\PSoC5/WaveDAC_0_Low_IDAC8.c ****     /* Set proper DAC trim */
  89:.\Generated_Source\PSoC5/WaveDAC_0_Low_IDAC8.c ****     WaveDAC_0_Low_IDAC8_DacTrim();
  70              		.loc 1 89 0
  71 0036 FFF7FEFF 		bl	WaveDAC_0_Low_IDAC8_DacTrim
  90:.\Generated_Source\PSoC5/WaveDAC_0_Low_IDAC8.c ****     
  91:.\Generated_Source\PSoC5/WaveDAC_0_Low_IDAC8.c **** }
  72              		.loc 1 91 0
  73 003a 80BD     		pop	{r7, pc}
  74              	.L3:
  75              		.align	2
  76              	.L2:
  77 003c 24580040 		.word	1073764388
  78 0040 25580040 		.word	1073764389
  79 0044 8F5A0040 		.word	1073765007
  80              		.cfi_endproc
ARM GAS  C:\Users\jthem\AppData\Local\Temp\cccoUQnd.s 			page 4


  81              	.LFE0:
  82              		.size	WaveDAC_0_Low_IDAC8_Init, .-WaveDAC_0_Low_IDAC8_Init
  83              		.section	.text.WaveDAC_0_Low_IDAC8_Enable,"ax",%progbits
  84              		.align	2
  85              		.global	WaveDAC_0_Low_IDAC8_Enable
  86              		.thumb
  87              		.thumb_func
  88              		.type	WaveDAC_0_Low_IDAC8_Enable, %function
  89              	WaveDAC_0_Low_IDAC8_Enable:
  90              	.LFB1:
  92:.\Generated_Source\PSoC5/WaveDAC_0_Low_IDAC8.c **** 
  93:.\Generated_Source\PSoC5/WaveDAC_0_Low_IDAC8.c **** 
  94:.\Generated_Source\PSoC5/WaveDAC_0_Low_IDAC8.c **** /*******************************************************************************
  95:.\Generated_Source\PSoC5/WaveDAC_0_Low_IDAC8.c **** * Function Name: WaveDAC_0_Low_IDAC8_Enable
  96:.\Generated_Source\PSoC5/WaveDAC_0_Low_IDAC8.c **** ********************************************************************************
  97:.\Generated_Source\PSoC5/WaveDAC_0_Low_IDAC8.c **** * Summary:
  98:.\Generated_Source\PSoC5/WaveDAC_0_Low_IDAC8.c **** *  Enable the IDAC8
  99:.\Generated_Source\PSoC5/WaveDAC_0_Low_IDAC8.c **** * 
 100:.\Generated_Source\PSoC5/WaveDAC_0_Low_IDAC8.c **** * Parameters:
 101:.\Generated_Source\PSoC5/WaveDAC_0_Low_IDAC8.c **** *  void:
 102:.\Generated_Source\PSoC5/WaveDAC_0_Low_IDAC8.c **** *
 103:.\Generated_Source\PSoC5/WaveDAC_0_Low_IDAC8.c **** * Return:
 104:.\Generated_Source\PSoC5/WaveDAC_0_Low_IDAC8.c **** *  (void)
 105:.\Generated_Source\PSoC5/WaveDAC_0_Low_IDAC8.c **** *
 106:.\Generated_Source\PSoC5/WaveDAC_0_Low_IDAC8.c **** * Theory:
 107:.\Generated_Source\PSoC5/WaveDAC_0_Low_IDAC8.c **** *
 108:.\Generated_Source\PSoC5/WaveDAC_0_Low_IDAC8.c **** * Side Effects:
 109:.\Generated_Source\PSoC5/WaveDAC_0_Low_IDAC8.c **** *
 110:.\Generated_Source\PSoC5/WaveDAC_0_Low_IDAC8.c **** *******************************************************************************/
 111:.\Generated_Source\PSoC5/WaveDAC_0_Low_IDAC8.c **** void WaveDAC_0_Low_IDAC8_Enable(void) 
 112:.\Generated_Source\PSoC5/WaveDAC_0_Low_IDAC8.c **** {
  91              		.loc 1 112 0
  92              		.cfi_startproc
  93              		@ args = 0, pretend = 0, frame = 0
  94              		@ frame_needed = 1, uses_anonymous_args = 0
  95              		@ link register save eliminated.
  96 0000 80B4     		push	{r7}
  97              		.cfi_def_cfa_offset 4
  98              		.cfi_offset 7, -4
  99 0002 00AF     		add	r7, sp, #0
 100              		.cfi_def_cfa_register 7
 113:.\Generated_Source\PSoC5/WaveDAC_0_Low_IDAC8.c ****     WaveDAC_0_Low_IDAC8_PWRMGR |= WaveDAC_0_Low_IDAC8_ACT_PWR_EN;
 101              		.loc 1 113 0
 102 0004 094A     		ldr	r2, .L5
 103 0006 094B     		ldr	r3, .L5
 104 0008 1B78     		ldrb	r3, [r3]
 105 000a DBB2     		uxtb	r3, r3
 106 000c 43F00203 		orr	r3, r3, #2
 107 0010 DBB2     		uxtb	r3, r3
 108 0012 1370     		strb	r3, [r2]
 114:.\Generated_Source\PSoC5/WaveDAC_0_Low_IDAC8.c ****     WaveDAC_0_Low_IDAC8_STBY_PWRMGR |= WaveDAC_0_Low_IDAC8_STBY_PWR_EN;
 109              		.loc 1 114 0
 110 0014 064A     		ldr	r2, .L5+4
 111 0016 064B     		ldr	r3, .L5+4
 112 0018 1B78     		ldrb	r3, [r3]
 113 001a DBB2     		uxtb	r3, r3
 114 001c 43F00203 		orr	r3, r3, #2
ARM GAS  C:\Users\jthem\AppData\Local\Temp\cccoUQnd.s 			page 5


 115 0020 DBB2     		uxtb	r3, r3
 116 0022 1370     		strb	r3, [r2]
 115:.\Generated_Source\PSoC5/WaveDAC_0_Low_IDAC8.c **** 
 116:.\Generated_Source\PSoC5/WaveDAC_0_Low_IDAC8.c ****     /* This is to restore the value of register CR0 which is saved 
 117:.\Generated_Source\PSoC5/WaveDAC_0_Low_IDAC8.c ****       in prior to the modification in stop() API */
 118:.\Generated_Source\PSoC5/WaveDAC_0_Low_IDAC8.c ****     #if (CY_PSOC5A)
 119:.\Generated_Source\PSoC5/WaveDAC_0_Low_IDAC8.c ****         if(WaveDAC_0_Low_IDAC8_restoreReg == 1u)
 120:.\Generated_Source\PSoC5/WaveDAC_0_Low_IDAC8.c ****         {
 121:.\Generated_Source\PSoC5/WaveDAC_0_Low_IDAC8.c ****             WaveDAC_0_Low_IDAC8_CR0 = WaveDAC_0_Low_IDAC8_lowPowerBackup.DACCR0Reg;
 122:.\Generated_Source\PSoC5/WaveDAC_0_Low_IDAC8.c **** 
 123:.\Generated_Source\PSoC5/WaveDAC_0_Low_IDAC8.c ****             /* Clear the flag */
 124:.\Generated_Source\PSoC5/WaveDAC_0_Low_IDAC8.c ****             WaveDAC_0_Low_IDAC8_restoreReg = 0u;
 125:.\Generated_Source\PSoC5/WaveDAC_0_Low_IDAC8.c ****         }
 126:.\Generated_Source\PSoC5/WaveDAC_0_Low_IDAC8.c ****     #endif /* CY_PSOC5A */
 127:.\Generated_Source\PSoC5/WaveDAC_0_Low_IDAC8.c **** }
 117              		.loc 1 127 0
 118 0024 BD46     		mov	sp, r7
 119              		.cfi_def_cfa_register 13
 120              		@ sp needed
 121 0026 5DF8047B 		ldr	r7, [sp], #4
 122              		.cfi_restore 7
 123              		.cfi_def_cfa_offset 0
 124 002a 7047     		bx	lr
 125              	.L6:
 126              		.align	2
 127              	.L5:
 128 002c A8430040 		.word	1073759144
 129 0030 B8430040 		.word	1073759160
 130              		.cfi_endproc
 131              	.LFE1:
 132              		.size	WaveDAC_0_Low_IDAC8_Enable, .-WaveDAC_0_Low_IDAC8_Enable
 133              		.section	.text.WaveDAC_0_Low_IDAC8_Start,"ax",%progbits
 134              		.align	2
 135              		.global	WaveDAC_0_Low_IDAC8_Start
 136              		.thumb
 137              		.thumb_func
 138              		.type	WaveDAC_0_Low_IDAC8_Start, %function
 139              	WaveDAC_0_Low_IDAC8_Start:
 140              	.LFB2:
 128:.\Generated_Source\PSoC5/WaveDAC_0_Low_IDAC8.c **** 
 129:.\Generated_Source\PSoC5/WaveDAC_0_Low_IDAC8.c **** 
 130:.\Generated_Source\PSoC5/WaveDAC_0_Low_IDAC8.c **** /*******************************************************************************
 131:.\Generated_Source\PSoC5/WaveDAC_0_Low_IDAC8.c **** * Function Name: WaveDAC_0_Low_IDAC8_Start
 132:.\Generated_Source\PSoC5/WaveDAC_0_Low_IDAC8.c **** ********************************************************************************
 133:.\Generated_Source\PSoC5/WaveDAC_0_Low_IDAC8.c **** * Summary:
 134:.\Generated_Source\PSoC5/WaveDAC_0_Low_IDAC8.c **** *  Set power level then turn on IDAC8.
 135:.\Generated_Source\PSoC5/WaveDAC_0_Low_IDAC8.c **** *
 136:.\Generated_Source\PSoC5/WaveDAC_0_Low_IDAC8.c **** * Parameters:  
 137:.\Generated_Source\PSoC5/WaveDAC_0_Low_IDAC8.c **** *  power: Sets power level between off (0) and (3) high power
 138:.\Generated_Source\PSoC5/WaveDAC_0_Low_IDAC8.c **** *
 139:.\Generated_Source\PSoC5/WaveDAC_0_Low_IDAC8.c **** * Return:
 140:.\Generated_Source\PSoC5/WaveDAC_0_Low_IDAC8.c **** *  (void)
 141:.\Generated_Source\PSoC5/WaveDAC_0_Low_IDAC8.c **** *
 142:.\Generated_Source\PSoC5/WaveDAC_0_Low_IDAC8.c **** * Global variables:
 143:.\Generated_Source\PSoC5/WaveDAC_0_Low_IDAC8.c **** *  WaveDAC_0_Low_IDAC8_initVar: Is modified when this function is called for 
 144:.\Generated_Source\PSoC5/WaveDAC_0_Low_IDAC8.c **** *   the first time. Is used to ensure that initialization happens only once.
 145:.\Generated_Source\PSoC5/WaveDAC_0_Low_IDAC8.c **** *
ARM GAS  C:\Users\jthem\AppData\Local\Temp\cccoUQnd.s 			page 6


 146:.\Generated_Source\PSoC5/WaveDAC_0_Low_IDAC8.c **** *******************************************************************************/
 147:.\Generated_Source\PSoC5/WaveDAC_0_Low_IDAC8.c **** void WaveDAC_0_Low_IDAC8_Start(void) 
 148:.\Generated_Source\PSoC5/WaveDAC_0_Low_IDAC8.c **** {
 141              		.loc 1 148 0
 142              		.cfi_startproc
 143              		@ args = 0, pretend = 0, frame = 0
 144              		@ frame_needed = 1, uses_anonymous_args = 0
 145 0000 80B5     		push	{r7, lr}
 146              		.cfi_def_cfa_offset 8
 147              		.cfi_offset 7, -8
 148              		.cfi_offset 14, -4
 149 0002 00AF     		add	r7, sp, #0
 150              		.cfi_def_cfa_register 7
 149:.\Generated_Source\PSoC5/WaveDAC_0_Low_IDAC8.c ****     /* Hardware initiazation only needs to occur the first time */
 150:.\Generated_Source\PSoC5/WaveDAC_0_Low_IDAC8.c ****     if ( WaveDAC_0_Low_IDAC8_initVar == 0u)  
 151              		.loc 1 150 0
 152 0004 074B     		ldr	r3, .L9
 153 0006 1B78     		ldrb	r3, [r3]	@ zero_extendqisi2
 154 0008 002B     		cmp	r3, #0
 155 000a 04D1     		bne	.L8
 151:.\Generated_Source\PSoC5/WaveDAC_0_Low_IDAC8.c ****     {
 152:.\Generated_Source\PSoC5/WaveDAC_0_Low_IDAC8.c ****         WaveDAC_0_Low_IDAC8_Init();
 156              		.loc 1 152 0
 157 000c FFF7FEFF 		bl	WaveDAC_0_Low_IDAC8_Init
 153:.\Generated_Source\PSoC5/WaveDAC_0_Low_IDAC8.c ****         
 154:.\Generated_Source\PSoC5/WaveDAC_0_Low_IDAC8.c ****         WaveDAC_0_Low_IDAC8_initVar = 1u;
 158              		.loc 1 154 0
 159 0010 044B     		ldr	r3, .L9
 160 0012 0122     		movs	r2, #1
 161 0014 1A70     		strb	r2, [r3]
 162              	.L8:
 155:.\Generated_Source\PSoC5/WaveDAC_0_Low_IDAC8.c ****     }
 156:.\Generated_Source\PSoC5/WaveDAC_0_Low_IDAC8.c ****    
 157:.\Generated_Source\PSoC5/WaveDAC_0_Low_IDAC8.c ****     /* Enable power to DAC */
 158:.\Generated_Source\PSoC5/WaveDAC_0_Low_IDAC8.c ****     WaveDAC_0_Low_IDAC8_Enable();
 163              		.loc 1 158 0
 164 0016 FFF7FEFF 		bl	WaveDAC_0_Low_IDAC8_Enable
 159:.\Generated_Source\PSoC5/WaveDAC_0_Low_IDAC8.c **** 
 160:.\Generated_Source\PSoC5/WaveDAC_0_Low_IDAC8.c ****     /* Set default value */
 161:.\Generated_Source\PSoC5/WaveDAC_0_Low_IDAC8.c ****     WaveDAC_0_Low_IDAC8_SetValue(WaveDAC_0_Low_IDAC8_DEFAULT_DATA);
 165              		.loc 1 161 0
 166 001a FF20     		movs	r0, #255
 167 001c FFF7FEFF 		bl	WaveDAC_0_Low_IDAC8_SetValue
 162:.\Generated_Source\PSoC5/WaveDAC_0_Low_IDAC8.c **** 
 163:.\Generated_Source\PSoC5/WaveDAC_0_Low_IDAC8.c **** }
 168              		.loc 1 163 0
 169 0020 80BD     		pop	{r7, pc}
 170              	.L10:
 171 0022 00BF     		.align	2
 172              	.L9:
 173 0024 00000000 		.word	WaveDAC_0_Low_IDAC8_initVar
 174              		.cfi_endproc
 175              	.LFE2:
 176              		.size	WaveDAC_0_Low_IDAC8_Start, .-WaveDAC_0_Low_IDAC8_Start
 177              		.section	.text.WaveDAC_0_Low_IDAC8_Stop,"ax",%progbits
 178              		.align	2
 179              		.global	WaveDAC_0_Low_IDAC8_Stop
ARM GAS  C:\Users\jthem\AppData\Local\Temp\cccoUQnd.s 			page 7


 180              		.thumb
 181              		.thumb_func
 182              		.type	WaveDAC_0_Low_IDAC8_Stop, %function
 183              	WaveDAC_0_Low_IDAC8_Stop:
 184              	.LFB3:
 164:.\Generated_Source\PSoC5/WaveDAC_0_Low_IDAC8.c **** 
 165:.\Generated_Source\PSoC5/WaveDAC_0_Low_IDAC8.c **** 
 166:.\Generated_Source\PSoC5/WaveDAC_0_Low_IDAC8.c **** /*******************************************************************************
 167:.\Generated_Source\PSoC5/WaveDAC_0_Low_IDAC8.c **** * Function Name: WaveDAC_0_Low_IDAC8_Stop
 168:.\Generated_Source\PSoC5/WaveDAC_0_Low_IDAC8.c **** ********************************************************************************
 169:.\Generated_Source\PSoC5/WaveDAC_0_Low_IDAC8.c **** * Summary:
 170:.\Generated_Source\PSoC5/WaveDAC_0_Low_IDAC8.c **** *  Powers down IDAC8 to lowest power state.
 171:.\Generated_Source\PSoC5/WaveDAC_0_Low_IDAC8.c **** *
 172:.\Generated_Source\PSoC5/WaveDAC_0_Low_IDAC8.c **** * Parameters:
 173:.\Generated_Source\PSoC5/WaveDAC_0_Low_IDAC8.c **** *  (void)
 174:.\Generated_Source\PSoC5/WaveDAC_0_Low_IDAC8.c **** *
 175:.\Generated_Source\PSoC5/WaveDAC_0_Low_IDAC8.c **** * Return:
 176:.\Generated_Source\PSoC5/WaveDAC_0_Low_IDAC8.c **** *  (void)
 177:.\Generated_Source\PSoC5/WaveDAC_0_Low_IDAC8.c **** *
 178:.\Generated_Source\PSoC5/WaveDAC_0_Low_IDAC8.c **** * Theory:
 179:.\Generated_Source\PSoC5/WaveDAC_0_Low_IDAC8.c **** *
 180:.\Generated_Source\PSoC5/WaveDAC_0_Low_IDAC8.c **** * Side Effects:
 181:.\Generated_Source\PSoC5/WaveDAC_0_Low_IDAC8.c **** *
 182:.\Generated_Source\PSoC5/WaveDAC_0_Low_IDAC8.c **** *******************************************************************************/
 183:.\Generated_Source\PSoC5/WaveDAC_0_Low_IDAC8.c **** void WaveDAC_0_Low_IDAC8_Stop(void) 
 184:.\Generated_Source\PSoC5/WaveDAC_0_Low_IDAC8.c **** {
 185              		.loc 1 184 0
 186              		.cfi_startproc
 187              		@ args = 0, pretend = 0, frame = 0
 188              		@ frame_needed = 1, uses_anonymous_args = 0
 189              		@ link register save eliminated.
 190 0000 80B4     		push	{r7}
 191              		.cfi_def_cfa_offset 4
 192              		.cfi_offset 7, -4
 193 0002 00AF     		add	r7, sp, #0
 194              		.cfi_def_cfa_register 7
 185:.\Generated_Source\PSoC5/WaveDAC_0_Low_IDAC8.c ****     /* Disble power to DAC */
 186:.\Generated_Source\PSoC5/WaveDAC_0_Low_IDAC8.c ****     WaveDAC_0_Low_IDAC8_PWRMGR &= (uint8)(~WaveDAC_0_Low_IDAC8_ACT_PWR_EN);
 195              		.loc 1 186 0
 196 0004 094A     		ldr	r2, .L12
 197 0006 094B     		ldr	r3, .L12
 198 0008 1B78     		ldrb	r3, [r3]
 199 000a DBB2     		uxtb	r3, r3
 200 000c 23F00203 		bic	r3, r3, #2
 201 0010 DBB2     		uxtb	r3, r3
 202 0012 1370     		strb	r3, [r2]
 187:.\Generated_Source\PSoC5/WaveDAC_0_Low_IDAC8.c ****     WaveDAC_0_Low_IDAC8_STBY_PWRMGR &= (uint8)(~WaveDAC_0_Low_IDAC8_STBY_PWR_EN);
 203              		.loc 1 187 0
 204 0014 064A     		ldr	r2, .L12+4
 205 0016 064B     		ldr	r3, .L12+4
 206 0018 1B78     		ldrb	r3, [r3]
 207 001a DBB2     		uxtb	r3, r3
 208 001c 23F00203 		bic	r3, r3, #2
 209 0020 DBB2     		uxtb	r3, r3
 210 0022 1370     		strb	r3, [r2]
 188:.\Generated_Source\PSoC5/WaveDAC_0_Low_IDAC8.c ****     
 189:.\Generated_Source\PSoC5/WaveDAC_0_Low_IDAC8.c ****     #if (CY_PSOC5A)
ARM GAS  C:\Users\jthem\AppData\Local\Temp\cccoUQnd.s 			page 8


 190:.\Generated_Source\PSoC5/WaveDAC_0_Low_IDAC8.c ****     
 191:.\Generated_Source\PSoC5/WaveDAC_0_Low_IDAC8.c ****         /* Set the global variable  */
 192:.\Generated_Source\PSoC5/WaveDAC_0_Low_IDAC8.c ****         WaveDAC_0_Low_IDAC8_restoreReg = 1u;
 193:.\Generated_Source\PSoC5/WaveDAC_0_Low_IDAC8.c **** 
 194:.\Generated_Source\PSoC5/WaveDAC_0_Low_IDAC8.c ****         /* Save the control register and then Clear it. */
 195:.\Generated_Source\PSoC5/WaveDAC_0_Low_IDAC8.c ****         WaveDAC_0_Low_IDAC8_lowPowerBackup.DACCR0Reg = WaveDAC_0_Low_IDAC8_CR0;
 196:.\Generated_Source\PSoC5/WaveDAC_0_Low_IDAC8.c ****         WaveDAC_0_Low_IDAC8_CR0 = (WaveDAC_0_Low_IDAC8_MODE_I | WaveDAC_0_Low_IDAC8_RANGE_3 | WaveD
 197:.\Generated_Source\PSoC5/WaveDAC_0_Low_IDAC8.c ****     #endif /* CY_PSOC5A */
 198:.\Generated_Source\PSoC5/WaveDAC_0_Low_IDAC8.c **** }
 211              		.loc 1 198 0
 212 0024 BD46     		mov	sp, r7
 213              		.cfi_def_cfa_register 13
 214              		@ sp needed
 215 0026 5DF8047B 		ldr	r7, [sp], #4
 216              		.cfi_restore 7
 217              		.cfi_def_cfa_offset 0
 218 002a 7047     		bx	lr
 219              	.L13:
 220              		.align	2
 221              	.L12:
 222 002c A8430040 		.word	1073759144
 223 0030 B8430040 		.word	1073759160
 224              		.cfi_endproc
 225              	.LFE3:
 226              		.size	WaveDAC_0_Low_IDAC8_Stop, .-WaveDAC_0_Low_IDAC8_Stop
 227              		.section	.text.WaveDAC_0_Low_IDAC8_SetSpeed,"ax",%progbits
 228              		.align	2
 229              		.global	WaveDAC_0_Low_IDAC8_SetSpeed
 230              		.thumb
 231              		.thumb_func
 232              		.type	WaveDAC_0_Low_IDAC8_SetSpeed, %function
 233              	WaveDAC_0_Low_IDAC8_SetSpeed:
 234              	.LFB4:
 199:.\Generated_Source\PSoC5/WaveDAC_0_Low_IDAC8.c **** 
 200:.\Generated_Source\PSoC5/WaveDAC_0_Low_IDAC8.c **** 
 201:.\Generated_Source\PSoC5/WaveDAC_0_Low_IDAC8.c **** /*******************************************************************************
 202:.\Generated_Source\PSoC5/WaveDAC_0_Low_IDAC8.c **** * Function Name: WaveDAC_0_Low_IDAC8_SetSpeed
 203:.\Generated_Source\PSoC5/WaveDAC_0_Low_IDAC8.c **** ********************************************************************************
 204:.\Generated_Source\PSoC5/WaveDAC_0_Low_IDAC8.c **** * Summary:
 205:.\Generated_Source\PSoC5/WaveDAC_0_Low_IDAC8.c **** *  Set DAC speed
 206:.\Generated_Source\PSoC5/WaveDAC_0_Low_IDAC8.c **** *
 207:.\Generated_Source\PSoC5/WaveDAC_0_Low_IDAC8.c **** * Parameters:
 208:.\Generated_Source\PSoC5/WaveDAC_0_Low_IDAC8.c **** *  power: Sets speed value
 209:.\Generated_Source\PSoC5/WaveDAC_0_Low_IDAC8.c **** *
 210:.\Generated_Source\PSoC5/WaveDAC_0_Low_IDAC8.c **** * Return:
 211:.\Generated_Source\PSoC5/WaveDAC_0_Low_IDAC8.c **** *  (void)
 212:.\Generated_Source\PSoC5/WaveDAC_0_Low_IDAC8.c **** *
 213:.\Generated_Source\PSoC5/WaveDAC_0_Low_IDAC8.c **** * Theory:
 214:.\Generated_Source\PSoC5/WaveDAC_0_Low_IDAC8.c **** *
 215:.\Generated_Source\PSoC5/WaveDAC_0_Low_IDAC8.c **** * Side Effects:
 216:.\Generated_Source\PSoC5/WaveDAC_0_Low_IDAC8.c **** *
 217:.\Generated_Source\PSoC5/WaveDAC_0_Low_IDAC8.c **** *******************************************************************************/
 218:.\Generated_Source\PSoC5/WaveDAC_0_Low_IDAC8.c **** void WaveDAC_0_Low_IDAC8_SetSpeed(uint8 speed) 
 219:.\Generated_Source\PSoC5/WaveDAC_0_Low_IDAC8.c **** {
 235              		.loc 1 219 0
 236              		.cfi_startproc
 237              		@ args = 0, pretend = 0, frame = 8
ARM GAS  C:\Users\jthem\AppData\Local\Temp\cccoUQnd.s 			page 9


 238              		@ frame_needed = 1, uses_anonymous_args = 0
 239              		@ link register save eliminated.
 240 0000 80B4     		push	{r7}
 241              		.cfi_def_cfa_offset 4
 242              		.cfi_offset 7, -4
 243 0002 83B0     		sub	sp, sp, #12
 244              		.cfi_def_cfa_offset 16
 245 0004 00AF     		add	r7, sp, #0
 246              		.cfi_def_cfa_register 7
 247 0006 0346     		mov	r3, r0
 248 0008 FB71     		strb	r3, [r7, #7]
 220:.\Generated_Source\PSoC5/WaveDAC_0_Low_IDAC8.c ****     /* Clear power mask then write in new value */
 221:.\Generated_Source\PSoC5/WaveDAC_0_Low_IDAC8.c ****     WaveDAC_0_Low_IDAC8_CR0 &= (uint8)(~WaveDAC_0_Low_IDAC8_HS_MASK);
 249              		.loc 1 221 0
 250 000a 0C4A     		ldr	r2, .L15
 251 000c 0B4B     		ldr	r3, .L15
 252 000e 1B78     		ldrb	r3, [r3]
 253 0010 DBB2     		uxtb	r3, r3
 254 0012 23F00203 		bic	r3, r3, #2
 255 0016 DBB2     		uxtb	r3, r3
 256 0018 1370     		strb	r3, [r2]
 222:.\Generated_Source\PSoC5/WaveDAC_0_Low_IDAC8.c ****     WaveDAC_0_Low_IDAC8_CR0 |=  ( speed & WaveDAC_0_Low_IDAC8_HS_MASK);
 257              		.loc 1 222 0
 258 001a 0849     		ldr	r1, .L15
 259 001c 074B     		ldr	r3, .L15
 260 001e 1B78     		ldrb	r3, [r3]
 261 0020 DAB2     		uxtb	r2, r3
 262 0022 FB79     		ldrb	r3, [r7, #7]
 263 0024 03F00203 		and	r3, r3, #2
 264 0028 DBB2     		uxtb	r3, r3
 265 002a 1343     		orrs	r3, r3, r2
 266 002c DBB2     		uxtb	r3, r3
 267 002e 0B70     		strb	r3, [r1]
 223:.\Generated_Source\PSoC5/WaveDAC_0_Low_IDAC8.c **** }
 268              		.loc 1 223 0
 269 0030 0C37     		adds	r7, r7, #12
 270              		.cfi_def_cfa_offset 4
 271 0032 BD46     		mov	sp, r7
 272              		.cfi_def_cfa_register 13
 273              		@ sp needed
 274 0034 5DF8047B 		ldr	r7, [sp], #4
 275              		.cfi_restore 7
 276              		.cfi_def_cfa_offset 0
 277 0038 7047     		bx	lr
 278              	.L16:
 279 003a 00BF     		.align	2
 280              	.L15:
 281 003c 24580040 		.word	1073764388
 282              		.cfi_endproc
 283              	.LFE4:
 284              		.size	WaveDAC_0_Low_IDAC8_SetSpeed, .-WaveDAC_0_Low_IDAC8_SetSpeed
 285              		.section	.text.WaveDAC_0_Low_IDAC8_SetPolarity,"ax",%progbits
 286              		.align	2
 287              		.global	WaveDAC_0_Low_IDAC8_SetPolarity
 288              		.thumb
 289              		.thumb_func
 290              		.type	WaveDAC_0_Low_IDAC8_SetPolarity, %function
ARM GAS  C:\Users\jthem\AppData\Local\Temp\cccoUQnd.s 			page 10


 291              	WaveDAC_0_Low_IDAC8_SetPolarity:
 292              	.LFB5:
 224:.\Generated_Source\PSoC5/WaveDAC_0_Low_IDAC8.c **** 
 225:.\Generated_Source\PSoC5/WaveDAC_0_Low_IDAC8.c **** 
 226:.\Generated_Source\PSoC5/WaveDAC_0_Low_IDAC8.c **** /*******************************************************************************
 227:.\Generated_Source\PSoC5/WaveDAC_0_Low_IDAC8.c **** * Function Name: WaveDAC_0_Low_IDAC8_SetPolarity
 228:.\Generated_Source\PSoC5/WaveDAC_0_Low_IDAC8.c **** ********************************************************************************
 229:.\Generated_Source\PSoC5/WaveDAC_0_Low_IDAC8.c **** * Summary:
 230:.\Generated_Source\PSoC5/WaveDAC_0_Low_IDAC8.c **** *  Sets IDAC to Sink or Source current.
 231:.\Generated_Source\PSoC5/WaveDAC_0_Low_IDAC8.c **** *  
 232:.\Generated_Source\PSoC5/WaveDAC_0_Low_IDAC8.c **** * Parameters:
 233:.\Generated_Source\PSoC5/WaveDAC_0_Low_IDAC8.c **** *  Polarity: Sets the IDAC to Sink or Source 
 234:.\Generated_Source\PSoC5/WaveDAC_0_Low_IDAC8.c **** *  0x00 - Source
 235:.\Generated_Source\PSoC5/WaveDAC_0_Low_IDAC8.c **** *  0x04 - Sink
 236:.\Generated_Source\PSoC5/WaveDAC_0_Low_IDAC8.c **** *
 237:.\Generated_Source\PSoC5/WaveDAC_0_Low_IDAC8.c **** * Return:
 238:.\Generated_Source\PSoC5/WaveDAC_0_Low_IDAC8.c **** *  (void)
 239:.\Generated_Source\PSoC5/WaveDAC_0_Low_IDAC8.c **** *
 240:.\Generated_Source\PSoC5/WaveDAC_0_Low_IDAC8.c **** * Theory:
 241:.\Generated_Source\PSoC5/WaveDAC_0_Low_IDAC8.c **** *
 242:.\Generated_Source\PSoC5/WaveDAC_0_Low_IDAC8.c **** * Side Effects:
 243:.\Generated_Source\PSoC5/WaveDAC_0_Low_IDAC8.c **** *
 244:.\Generated_Source\PSoC5/WaveDAC_0_Low_IDAC8.c **** *******************************************************************************/
 245:.\Generated_Source\PSoC5/WaveDAC_0_Low_IDAC8.c **** #if(WaveDAC_0_Low_IDAC8_DEFAULT_POLARITY != WaveDAC_0_Low_IDAC8_HARDWARE_CONTROLLED)
 246:.\Generated_Source\PSoC5/WaveDAC_0_Low_IDAC8.c ****     void WaveDAC_0_Low_IDAC8_SetPolarity(uint8 polarity) 
 247:.\Generated_Source\PSoC5/WaveDAC_0_Low_IDAC8.c ****     {
 293              		.loc 1 247 0
 294              		.cfi_startproc
 295              		@ args = 0, pretend = 0, frame = 8
 296              		@ frame_needed = 1, uses_anonymous_args = 0
 297 0000 80B5     		push	{r7, lr}
 298              		.cfi_def_cfa_offset 8
 299              		.cfi_offset 7, -8
 300              		.cfi_offset 14, -4
 301 0002 82B0     		sub	sp, sp, #8
 302              		.cfi_def_cfa_offset 16
 303 0004 00AF     		add	r7, sp, #0
 304              		.cfi_def_cfa_register 7
 305 0006 0346     		mov	r3, r0
 306 0008 FB71     		strb	r3, [r7, #7]
 248:.\Generated_Source\PSoC5/WaveDAC_0_Low_IDAC8.c ****         WaveDAC_0_Low_IDAC8_CR1 &= (uint8)(~WaveDAC_0_Low_IDAC8_IDIR_MASK);                /* clear
 307              		.loc 1 248 0
 308 000a 0C4A     		ldr	r2, .L18
 309 000c 0B4B     		ldr	r3, .L18
 310 000e 1B78     		ldrb	r3, [r3]
 311 0010 DBB2     		uxtb	r3, r3
 312 0012 23F00403 		bic	r3, r3, #4
 313 0016 DBB2     		uxtb	r3, r3
 314 0018 1370     		strb	r3, [r2]
 249:.\Generated_Source\PSoC5/WaveDAC_0_Low_IDAC8.c ****         WaveDAC_0_Low_IDAC8_CR1 |= (polarity & WaveDAC_0_Low_IDAC8_IDIR_MASK);             /* set n
 315              		.loc 1 249 0
 316 001a 0849     		ldr	r1, .L18
 317 001c 074B     		ldr	r3, .L18
 318 001e 1B78     		ldrb	r3, [r3]
 319 0020 DAB2     		uxtb	r2, r3
 320 0022 FB79     		ldrb	r3, [r7, #7]
 321 0024 03F00403 		and	r3, r3, #4
ARM GAS  C:\Users\jthem\AppData\Local\Temp\cccoUQnd.s 			page 11


 322 0028 DBB2     		uxtb	r3, r3
 323 002a 1343     		orrs	r3, r3, r2
 324 002c DBB2     		uxtb	r3, r3
 325 002e 0B70     		strb	r3, [r1]
 250:.\Generated_Source\PSoC5/WaveDAC_0_Low_IDAC8.c ****     
 251:.\Generated_Source\PSoC5/WaveDAC_0_Low_IDAC8.c ****         WaveDAC_0_Low_IDAC8_DacTrim();
 326              		.loc 1 251 0
 327 0030 FFF7FEFF 		bl	WaveDAC_0_Low_IDAC8_DacTrim
 252:.\Generated_Source\PSoC5/WaveDAC_0_Low_IDAC8.c ****     }
 328              		.loc 1 252 0
 329 0034 0837     		adds	r7, r7, #8
 330              		.cfi_def_cfa_offset 8
 331 0036 BD46     		mov	sp, r7
 332              		.cfi_def_cfa_register 13
 333              		@ sp needed
 334 0038 80BD     		pop	{r7, pc}
 335              	.L19:
 336 003a 00BF     		.align	2
 337              	.L18:
 338 003c 25580040 		.word	1073764389
 339              		.cfi_endproc
 340              	.LFE5:
 341              		.size	WaveDAC_0_Low_IDAC8_SetPolarity, .-WaveDAC_0_Low_IDAC8_SetPolarity
 342              		.section	.text.WaveDAC_0_Low_IDAC8_SetRange,"ax",%progbits
 343              		.align	2
 344              		.global	WaveDAC_0_Low_IDAC8_SetRange
 345              		.thumb
 346              		.thumb_func
 347              		.type	WaveDAC_0_Low_IDAC8_SetRange, %function
 348              	WaveDAC_0_Low_IDAC8_SetRange:
 349              	.LFB6:
 253:.\Generated_Source\PSoC5/WaveDAC_0_Low_IDAC8.c **** #endif/*(WaveDAC_0_Low_IDAC8_DEFAULT_POLARITY != WaveDAC_0_Low_IDAC8_HARDWARE_CONTROLLED)*/
 254:.\Generated_Source\PSoC5/WaveDAC_0_Low_IDAC8.c **** 
 255:.\Generated_Source\PSoC5/WaveDAC_0_Low_IDAC8.c **** 
 256:.\Generated_Source\PSoC5/WaveDAC_0_Low_IDAC8.c **** /*******************************************************************************
 257:.\Generated_Source\PSoC5/WaveDAC_0_Low_IDAC8.c **** * Function Name: WaveDAC_0_Low_IDAC8_SetRange
 258:.\Generated_Source\PSoC5/WaveDAC_0_Low_IDAC8.c **** ********************************************************************************
 259:.\Generated_Source\PSoC5/WaveDAC_0_Low_IDAC8.c **** * Summary:
 260:.\Generated_Source\PSoC5/WaveDAC_0_Low_IDAC8.c **** *  Set current range
 261:.\Generated_Source\PSoC5/WaveDAC_0_Low_IDAC8.c **** *
 262:.\Generated_Source\PSoC5/WaveDAC_0_Low_IDAC8.c **** * Parameters:
 263:.\Generated_Source\PSoC5/WaveDAC_0_Low_IDAC8.c **** *  Range: Sets on of four valid ranges.
 264:.\Generated_Source\PSoC5/WaveDAC_0_Low_IDAC8.c **** *
 265:.\Generated_Source\PSoC5/WaveDAC_0_Low_IDAC8.c **** * Return:
 266:.\Generated_Source\PSoC5/WaveDAC_0_Low_IDAC8.c **** *  (void)
 267:.\Generated_Source\PSoC5/WaveDAC_0_Low_IDAC8.c **** *
 268:.\Generated_Source\PSoC5/WaveDAC_0_Low_IDAC8.c **** * Theory:
 269:.\Generated_Source\PSoC5/WaveDAC_0_Low_IDAC8.c **** *
 270:.\Generated_Source\PSoC5/WaveDAC_0_Low_IDAC8.c **** * Side Effects:
 271:.\Generated_Source\PSoC5/WaveDAC_0_Low_IDAC8.c **** *
 272:.\Generated_Source\PSoC5/WaveDAC_0_Low_IDAC8.c **** *******************************************************************************/
 273:.\Generated_Source\PSoC5/WaveDAC_0_Low_IDAC8.c **** void WaveDAC_0_Low_IDAC8_SetRange(uint8 range) 
 274:.\Generated_Source\PSoC5/WaveDAC_0_Low_IDAC8.c **** {
 350              		.loc 1 274 0
 351              		.cfi_startproc
 352              		@ args = 0, pretend = 0, frame = 8
 353              		@ frame_needed = 1, uses_anonymous_args = 0
ARM GAS  C:\Users\jthem\AppData\Local\Temp\cccoUQnd.s 			page 12


 354 0000 80B5     		push	{r7, lr}
 355              		.cfi_def_cfa_offset 8
 356              		.cfi_offset 7, -8
 357              		.cfi_offset 14, -4
 358 0002 82B0     		sub	sp, sp, #8
 359              		.cfi_def_cfa_offset 16
 360 0004 00AF     		add	r7, sp, #0
 361              		.cfi_def_cfa_register 7
 362 0006 0346     		mov	r3, r0
 363 0008 FB71     		strb	r3, [r7, #7]
 275:.\Generated_Source\PSoC5/WaveDAC_0_Low_IDAC8.c ****     WaveDAC_0_Low_IDAC8_CR0 &= (uint8)(~WaveDAC_0_Low_IDAC8_RANGE_MASK);       /* Clear existing mo
 364              		.loc 1 275 0
 365 000a 0C4A     		ldr	r2, .L21
 366 000c 0B4B     		ldr	r3, .L21
 367 000e 1B78     		ldrb	r3, [r3]
 368 0010 DBB2     		uxtb	r3, r3
 369 0012 23F00C03 		bic	r3, r3, #12
 370 0016 DBB2     		uxtb	r3, r3
 371 0018 1370     		strb	r3, [r2]
 276:.\Generated_Source\PSoC5/WaveDAC_0_Low_IDAC8.c ****     WaveDAC_0_Low_IDAC8_CR0 |= ( range & WaveDAC_0_Low_IDAC8_RANGE_MASK );     /*  Set Range  */
 372              		.loc 1 276 0
 373 001a 0849     		ldr	r1, .L21
 374 001c 074B     		ldr	r3, .L21
 375 001e 1B78     		ldrb	r3, [r3]
 376 0020 DAB2     		uxtb	r2, r3
 377 0022 FB79     		ldrb	r3, [r7, #7]
 378 0024 03F00C03 		and	r3, r3, #12
 379 0028 DBB2     		uxtb	r3, r3
 380 002a 1343     		orrs	r3, r3, r2
 381 002c DBB2     		uxtb	r3, r3
 382 002e 0B70     		strb	r3, [r1]
 277:.\Generated_Source\PSoC5/WaveDAC_0_Low_IDAC8.c ****     WaveDAC_0_Low_IDAC8_DacTrim();
 383              		.loc 1 277 0
 384 0030 FFF7FEFF 		bl	WaveDAC_0_Low_IDAC8_DacTrim
 278:.\Generated_Source\PSoC5/WaveDAC_0_Low_IDAC8.c **** }
 385              		.loc 1 278 0
 386 0034 0837     		adds	r7, r7, #8
 387              		.cfi_def_cfa_offset 8
 388 0036 BD46     		mov	sp, r7
 389              		.cfi_def_cfa_register 13
 390              		@ sp needed
 391 0038 80BD     		pop	{r7, pc}
 392              	.L22:
 393 003a 00BF     		.align	2
 394              	.L21:
 395 003c 24580040 		.word	1073764388
 396              		.cfi_endproc
 397              	.LFE6:
 398              		.size	WaveDAC_0_Low_IDAC8_SetRange, .-WaveDAC_0_Low_IDAC8_SetRange
 399              		.section	.text.WaveDAC_0_Low_IDAC8_SetValue,"ax",%progbits
 400              		.align	2
 401              		.global	WaveDAC_0_Low_IDAC8_SetValue
 402              		.thumb
 403              		.thumb_func
 404              		.type	WaveDAC_0_Low_IDAC8_SetValue, %function
 405              	WaveDAC_0_Low_IDAC8_SetValue:
 406              	.LFB7:
ARM GAS  C:\Users\jthem\AppData\Local\Temp\cccoUQnd.s 			page 13


 279:.\Generated_Source\PSoC5/WaveDAC_0_Low_IDAC8.c **** 
 280:.\Generated_Source\PSoC5/WaveDAC_0_Low_IDAC8.c **** 
 281:.\Generated_Source\PSoC5/WaveDAC_0_Low_IDAC8.c **** /*******************************************************************************
 282:.\Generated_Source\PSoC5/WaveDAC_0_Low_IDAC8.c **** * Function Name: WaveDAC_0_Low_IDAC8_SetValue
 283:.\Generated_Source\PSoC5/WaveDAC_0_Low_IDAC8.c **** ********************************************************************************
 284:.\Generated_Source\PSoC5/WaveDAC_0_Low_IDAC8.c **** * Summary:
 285:.\Generated_Source\PSoC5/WaveDAC_0_Low_IDAC8.c **** *  Set DAC value
 286:.\Generated_Source\PSoC5/WaveDAC_0_Low_IDAC8.c **** *
 287:.\Generated_Source\PSoC5/WaveDAC_0_Low_IDAC8.c **** * Parameters:
 288:.\Generated_Source\PSoC5/WaveDAC_0_Low_IDAC8.c **** *  value: Sets DAC value between 0 and 255.
 289:.\Generated_Source\PSoC5/WaveDAC_0_Low_IDAC8.c **** *
 290:.\Generated_Source\PSoC5/WaveDAC_0_Low_IDAC8.c **** * Return:
 291:.\Generated_Source\PSoC5/WaveDAC_0_Low_IDAC8.c **** *  (void)
 292:.\Generated_Source\PSoC5/WaveDAC_0_Low_IDAC8.c **** *
 293:.\Generated_Source\PSoC5/WaveDAC_0_Low_IDAC8.c **** * Theory:
 294:.\Generated_Source\PSoC5/WaveDAC_0_Low_IDAC8.c **** *
 295:.\Generated_Source\PSoC5/WaveDAC_0_Low_IDAC8.c **** * Side Effects:
 296:.\Generated_Source\PSoC5/WaveDAC_0_Low_IDAC8.c **** *
 297:.\Generated_Source\PSoC5/WaveDAC_0_Low_IDAC8.c **** *******************************************************************************/
 298:.\Generated_Source\PSoC5/WaveDAC_0_Low_IDAC8.c **** void WaveDAC_0_Low_IDAC8_SetValue(uint8 value) 
 299:.\Generated_Source\PSoC5/WaveDAC_0_Low_IDAC8.c **** {
 407              		.loc 1 299 0
 408              		.cfi_startproc
 409              		@ args = 0, pretend = 0, frame = 8
 410              		@ frame_needed = 1, uses_anonymous_args = 0
 411              		@ link register save eliminated.
 412 0000 80B4     		push	{r7}
 413              		.cfi_def_cfa_offset 4
 414              		.cfi_offset 7, -4
 415 0002 83B0     		sub	sp, sp, #12
 416              		.cfi_def_cfa_offset 16
 417 0004 00AF     		add	r7, sp, #0
 418              		.cfi_def_cfa_register 7
 419 0006 0346     		mov	r3, r0
 420 0008 FB71     		strb	r3, [r7, #7]
 300:.\Generated_Source\PSoC5/WaveDAC_0_Low_IDAC8.c **** 
 301:.\Generated_Source\PSoC5/WaveDAC_0_Low_IDAC8.c ****     #if (CY_PSOC5A)
 302:.\Generated_Source\PSoC5/WaveDAC_0_Low_IDAC8.c ****         uint8 WaveDAC_0_Low_IDAC8_intrStatus = CyEnterCriticalSection();
 303:.\Generated_Source\PSoC5/WaveDAC_0_Low_IDAC8.c ****     #endif /* CY_PSOC5A */
 304:.\Generated_Source\PSoC5/WaveDAC_0_Low_IDAC8.c **** 
 305:.\Generated_Source\PSoC5/WaveDAC_0_Low_IDAC8.c ****     WaveDAC_0_Low_IDAC8_Data = value;         /*  Set Value  */
 421              		.loc 1 305 0
 422 000a 044A     		ldr	r2, .L24
 423 000c FB79     		ldrb	r3, [r7, #7]
 424 000e 1370     		strb	r3, [r2]
 306:.\Generated_Source\PSoC5/WaveDAC_0_Low_IDAC8.c ****     
 307:.\Generated_Source\PSoC5/WaveDAC_0_Low_IDAC8.c ****     /* PSOC5A silicons require a double write */
 308:.\Generated_Source\PSoC5/WaveDAC_0_Low_IDAC8.c ****     #if (CY_PSOC5A)
 309:.\Generated_Source\PSoC5/WaveDAC_0_Low_IDAC8.c ****         WaveDAC_0_Low_IDAC8_Data = value;
 310:.\Generated_Source\PSoC5/WaveDAC_0_Low_IDAC8.c ****         CyExitCriticalSection(WaveDAC_0_Low_IDAC8_intrStatus);
 311:.\Generated_Source\PSoC5/WaveDAC_0_Low_IDAC8.c ****     #endif /* CY_PSOC5A */
 312:.\Generated_Source\PSoC5/WaveDAC_0_Low_IDAC8.c **** }
 425              		.loc 1 312 0
 426 0010 0C37     		adds	r7, r7, #12
 427              		.cfi_def_cfa_offset 4
 428 0012 BD46     		mov	sp, r7
 429              		.cfi_def_cfa_register 13
ARM GAS  C:\Users\jthem\AppData\Local\Temp\cccoUQnd.s 			page 14


 430              		@ sp needed
 431 0014 5DF8047B 		ldr	r7, [sp], #4
 432              		.cfi_restore 7
 433              		.cfi_def_cfa_offset 0
 434 0018 7047     		bx	lr
 435              	.L25:
 436 001a 00BF     		.align	2
 437              	.L24:
 438 001c 815B0040 		.word	1073765249
 439              		.cfi_endproc
 440              	.LFE7:
 441              		.size	WaveDAC_0_Low_IDAC8_SetValue, .-WaveDAC_0_Low_IDAC8_SetValue
 442              		.section	.text.WaveDAC_0_Low_IDAC8_DacTrim,"ax",%progbits
 443              		.align	2
 444              		.global	WaveDAC_0_Low_IDAC8_DacTrim
 445              		.thumb
 446              		.thumb_func
 447              		.type	WaveDAC_0_Low_IDAC8_DacTrim, %function
 448              	WaveDAC_0_Low_IDAC8_DacTrim:
 449              	.LFB8:
 313:.\Generated_Source\PSoC5/WaveDAC_0_Low_IDAC8.c **** 
 314:.\Generated_Source\PSoC5/WaveDAC_0_Low_IDAC8.c **** 
 315:.\Generated_Source\PSoC5/WaveDAC_0_Low_IDAC8.c **** /*******************************************************************************
 316:.\Generated_Source\PSoC5/WaveDAC_0_Low_IDAC8.c **** * Function Name: WaveDAC_0_Low_IDAC8_DacTrim
 317:.\Generated_Source\PSoC5/WaveDAC_0_Low_IDAC8.c **** ********************************************************************************
 318:.\Generated_Source\PSoC5/WaveDAC_0_Low_IDAC8.c **** * Summary:
 319:.\Generated_Source\PSoC5/WaveDAC_0_Low_IDAC8.c **** *  Set the trim value for the given range.
 320:.\Generated_Source\PSoC5/WaveDAC_0_Low_IDAC8.c **** *
 321:.\Generated_Source\PSoC5/WaveDAC_0_Low_IDAC8.c **** * Parameters:
 322:.\Generated_Source\PSoC5/WaveDAC_0_Low_IDAC8.c **** *  None
 323:.\Generated_Source\PSoC5/WaveDAC_0_Low_IDAC8.c **** *
 324:.\Generated_Source\PSoC5/WaveDAC_0_Low_IDAC8.c **** * Return:
 325:.\Generated_Source\PSoC5/WaveDAC_0_Low_IDAC8.c **** *  (void) 
 326:.\Generated_Source\PSoC5/WaveDAC_0_Low_IDAC8.c **** *
 327:.\Generated_Source\PSoC5/WaveDAC_0_Low_IDAC8.c **** * Theory:
 328:.\Generated_Source\PSoC5/WaveDAC_0_Low_IDAC8.c **** *  Trim values for the IDAC blocks are stored in the "Customer Table" area in 
 329:.\Generated_Source\PSoC5/WaveDAC_0_Low_IDAC8.c **** *  Row 1 of the Hidden Flash.  There are 8 bytes of trim data for each 
 330:.\Generated_Source\PSoC5/WaveDAC_0_Low_IDAC8.c **** *  IDAC block.
 331:.\Generated_Source\PSoC5/WaveDAC_0_Low_IDAC8.c **** *  The values are:
 332:.\Generated_Source\PSoC5/WaveDAC_0_Low_IDAC8.c **** *       I Gain offset, min range, Sourcing
 333:.\Generated_Source\PSoC5/WaveDAC_0_Low_IDAC8.c **** *       I Gain offset, min range, Sinking
 334:.\Generated_Source\PSoC5/WaveDAC_0_Low_IDAC8.c **** *       I Gain offset, med range, Sourcing
 335:.\Generated_Source\PSoC5/WaveDAC_0_Low_IDAC8.c **** *       I Gain offset, med range, Sinking
 336:.\Generated_Source\PSoC5/WaveDAC_0_Low_IDAC8.c **** *       I Gain offset, max range, Sourcing
 337:.\Generated_Source\PSoC5/WaveDAC_0_Low_IDAC8.c **** *       I Gain offset, max range, Sinking
 338:.\Generated_Source\PSoC5/WaveDAC_0_Low_IDAC8.c **** *       V Gain offset, 1V range
 339:.\Generated_Source\PSoC5/WaveDAC_0_Low_IDAC8.c **** *       V Gain offset, 4V range
 340:.\Generated_Source\PSoC5/WaveDAC_0_Low_IDAC8.c **** *
 341:.\Generated_Source\PSoC5/WaveDAC_0_Low_IDAC8.c **** * Side Effects:
 342:.\Generated_Source\PSoC5/WaveDAC_0_Low_IDAC8.c **** *
 343:.\Generated_Source\PSoC5/WaveDAC_0_Low_IDAC8.c **** *******************************************************************************/
 344:.\Generated_Source\PSoC5/WaveDAC_0_Low_IDAC8.c **** void WaveDAC_0_Low_IDAC8_DacTrim(void) 
 345:.\Generated_Source\PSoC5/WaveDAC_0_Low_IDAC8.c **** {
 450              		.loc 1 345 0
 451              		.cfi_startproc
 452              		@ args = 0, pretend = 0, frame = 8
 453              		@ frame_needed = 1, uses_anonymous_args = 0
ARM GAS  C:\Users\jthem\AppData\Local\Temp\cccoUQnd.s 			page 15


 454              		@ link register save eliminated.
 455 0000 80B4     		push	{r7}
 456              		.cfi_def_cfa_offset 4
 457              		.cfi_offset 7, -4
 458 0002 83B0     		sub	sp, sp, #12
 459              		.cfi_def_cfa_offset 16
 460 0004 00AF     		add	r7, sp, #0
 461              		.cfi_def_cfa_register 7
 346:.\Generated_Source\PSoC5/WaveDAC_0_Low_IDAC8.c ****     uint8 mode;
 347:.\Generated_Source\PSoC5/WaveDAC_0_Low_IDAC8.c **** 
 348:.\Generated_Source\PSoC5/WaveDAC_0_Low_IDAC8.c ****     mode = ((WaveDAC_0_Low_IDAC8_CR0 & WaveDAC_0_Low_IDAC8_RANGE_MASK) >> 1u);
 462              		.loc 1 348 0
 463 0006 104B     		ldr	r3, .L28
 464 0008 1B78     		ldrb	r3, [r3]
 465 000a DBB2     		uxtb	r3, r3
 466 000c 03F00C03 		and	r3, r3, #12
 467 0010 5B08     		lsrs	r3, r3, #1
 468 0012 FB71     		strb	r3, [r7, #7]
 349:.\Generated_Source\PSoC5/WaveDAC_0_Low_IDAC8.c ****     
 350:.\Generated_Source\PSoC5/WaveDAC_0_Low_IDAC8.c ****     if((WaveDAC_0_Low_IDAC8_IDIR_MASK & WaveDAC_0_Low_IDAC8_CR1) == WaveDAC_0_Low_IDAC8_IDIR_SINK)
 469              		.loc 1 350 0
 470 0014 0D4B     		ldr	r3, .L28+4
 471 0016 1B78     		ldrb	r3, [r3]
 472 0018 DBB2     		uxtb	r3, r3
 473 001a 03F00403 		and	r3, r3, #4
 474 001e DBB2     		uxtb	r3, r3
 475 0020 002B     		cmp	r3, #0
 476 0022 02D0     		beq	.L27
 351:.\Generated_Source\PSoC5/WaveDAC_0_Low_IDAC8.c ****     {
 352:.\Generated_Source\PSoC5/WaveDAC_0_Low_IDAC8.c ****         mode++;
 477              		.loc 1 352 0
 478 0024 FB79     		ldrb	r3, [r7, #7]	@ zero_extendqisi2
 479 0026 0133     		adds	r3, r3, #1
 480 0028 FB71     		strb	r3, [r7, #7]
 481              	.L27:
 353:.\Generated_Source\PSoC5/WaveDAC_0_Low_IDAC8.c ****     }
 354:.\Generated_Source\PSoC5/WaveDAC_0_Low_IDAC8.c **** 
 355:.\Generated_Source\PSoC5/WaveDAC_0_Low_IDAC8.c ****     WaveDAC_0_Low_IDAC8_TR = CY_GET_XTND_REG8((uint8 *)(WaveDAC_0_Low_IDAC8_DAC_TRIM_BASE + mode));
 482              		.loc 1 355 0
 483 002a 094A     		ldr	r2, .L28+8
 484 002c FB79     		ldrb	r3, [r7, #7]	@ zero_extendqisi2
 485 002e 03F19243 		add	r3, r3, #1224736768
 486 0032 03F59873 		add	r3, r3, #304
 487 0036 1B78     		ldrb	r3, [r3]
 488 0038 DBB2     		uxtb	r3, r3
 489 003a 1370     		strb	r3, [r2]
 356:.\Generated_Source\PSoC5/WaveDAC_0_Low_IDAC8.c **** }
 490              		.loc 1 356 0
 491 003c 0C37     		adds	r7, r7, #12
 492              		.cfi_def_cfa_offset 4
 493 003e BD46     		mov	sp, r7
 494              		.cfi_def_cfa_register 13
 495              		@ sp needed
 496 0040 5DF8047B 		ldr	r7, [sp], #4
 497              		.cfi_restore 7
 498              		.cfi_def_cfa_offset 0
 499 0044 7047     		bx	lr
ARM GAS  C:\Users\jthem\AppData\Local\Temp\cccoUQnd.s 			page 16


 500              	.L29:
 501 0046 00BF     		.align	2
 502              	.L28:
 503 0048 24580040 		.word	1073764388
 504 004c 25580040 		.word	1073764389
 505 0050 09460040 		.word	1073759753
 506              		.cfi_endproc
 507              	.LFE8:
 508              		.size	WaveDAC_0_Low_IDAC8_DacTrim, .-WaveDAC_0_Low_IDAC8_DacTrim
 509              		.text
 510              	.Letext0:
 511              		.file 2 ".\\Generated_Source\\PSoC5\\cytypes.h"